Microsoft (R) Macro Assembler Version 5.10                  11/16/97 16:56:0
                                                             Page     1-1


       1				        .386
       2				DGROUP   group   _DATA, _BSS
       3 0000				_DATA    segment dword public 'DATA'
       4				       include mhdr.asm 
       5			     C	;;;;;;;;;;;;;;;;;;;;;;;;;;;;;;;;;;;;;;;
					;;;;;;;;;;;;;;;;;;;;;;;;;;;;;;;;;;;;;;;
					;;
       6			     C	;
       7			     C	; File:         header for PSL kernel, 
					WINDOWS interface
       8			     C	
       9			     C	   ALIGN 4
      10			     C	
      11			     C	 PUBLIC   _SYMNAM
      12 0000  00001754 R            C	_SYMNAM        dd symnam
      13			     C	 public   _HASHTABLE
      14 0004  000316C4 R            C	_HASHTABLE     dd hashtable
      15			     C	;;
      16			     C	;;  end of PSL kernel header include fi
					le
      17			     C	;;
      18			     C	;;;;;;;;;;;;;;;;;;;;;;;;;;;;;;;;;;;;;;;
					;;;;;;;;;;;;;;;;;;;;;;;;;;;;
      19			     C	
      20				   ALIGN 4
      21				  INCLUDE S_VA_FN.ASM
      22			     C	 PUBLIC symval
      23			     C	  ALIGN 4
      24 0008  E8000000              C	symval  DD 29*08000000h+OFFSET 0
      25 000C  E8000001              C	 DD 29*08000000h+OFFSET 1
      26 0010  E8000002              C	 DD 29*08000000h+OFFSET 2
      27 0014  E8000003              C	 DD 29*08000000h+OFFSET 3
      28 0018  E8000004              C	 DD 29*08000000h+OFFSET 4
      29 001C  E8000005              C	 DD 29*08000000h+OFFSET 5
      30 0020  E8000006              C	 DD 29*08000000h+OFFSET 6
      31 0024  E8000007              C	 DD 29*08000000h+OFFSET 7
      32 0028  E8000008              C	 DD 29*08000000h+OFFSET 8
      33 002C  E8000009              C	 DD 29*08000000h+OFFSET 9
      34 0030  E800000A              C	 DD 29*08000000h+OFFSET 10
      35 0034  E800000B              C	 DD 29*08000000h+OFFSET 11
      36 0038  E800000C              C	 DD 29*08000000h+OFFSET 12
      37 003C  E800000D              C	 DD 29*08000000h+OFFSET 13
      38 0040  E800000E              C	 DD 29*08000000h+OFFSET 14
      39 0044  E800000F              C	 DD 29*08000000h+OFFSET 15
      40 0048  E8000010              C	 DD 29*08000000h+OFFSET 16
      41 004C  E8000011              C	 DD 29*08000000h+OFFSET 17
      42 0050  E8000012              C	 DD 29*08000000h+OFFSET 18
      43 0054  E8000013              C	 DD 29*08000000h+OFFSET 19
      44 0058  E8000014              C	 DD 29*08000000h+OFFSET 20
      45 005C  E8000015              C	 DD 29*08000000h+OFFSET 21
      46 0060  E8000016              C	 DD 29*08000000h+OFFSET 22
      47 0064  E8000017              C	 DD 29*08000000h+OFFSET 23
      48 0068  E8000018              C	 DD 29*08000000h+OFFSET 24
      49 006C  E8000019              C	 DD 29*08000000h+OFFSET 25
Microsoft (R) Macro Assembler Version 5.10                  11/16/97 16:56:0
                                                             Page     1-2


      50 0070  E800001A              C	 DD 29*08000000h+OFFSET 26
      51 0074  E800001B              C	 DD 29*08000000h+OFFSET 27
      52 0078  E800001C              C	 DD 29*08000000h+OFFSET 28
      53 007C  E800001D              C	 DD 29*08000000h+OFFSET 29
      54 0080  E800001E              C	 DD 29*08000000h+OFFSET 30
      55 0084  E800001F              C	 DD 29*08000000h+OFFSET 31
      56 0088  E8000020              C	 DD 29*08000000h+OFFSET 32
      57 008C  E8000021              C	 DD 29*08000000h+OFFSET 33
      58 0090  E8000022              C	 DD 29*08000000h+OFFSET 34
      59 0094  E8000023              C	 DD 29*08000000h+OFFSET 35
      60 0098  E8000024              C	 DD 29*08000000h+OFFSET 36
      61 009C  E8000025              C	 DD 29*08000000h+OFFSET 37
      62 00A0  E8000026              C	 DD 29*08000000h+OFFSET 38
      63 00A4  E8000027              C	 DD 29*08000000h+OFFSET 39
      64 00A8  E8000028              C	 DD 29*08000000h+OFFSET 40
      65 00AC  E8000029              C	 DD 29*08000000h+OFFSET 41
      66 00B0  E800002A              C	 DD 29*08000000h+OFFSET 42
      67 00B4  E800002B              C	 DD 29*08000000h+OFFSET 43
      68 00B8  E800002C              C	 DD 29*08000000h+OFFSET 44
      69 00BC  E800002D              C	 DD 29*08000000h+OFFSET 45
      70 00C0  E800002E              C	 DD 29*08000000h+OFFSET 46
      71 00C4  E800002F              C	 DD 29*08000000h+OFFSET 47
      72 00C8  E8000030              C	 DD 29*08000000h+OFFSET 48
      73 00CC  E8000031              C	 DD 29*08000000h+OFFSET 49
      74 00D0  E8000032              C	 DD 29*08000000h+OFFSET 50
      75 00D4  E8000033              C	 DD 29*08000000h+OFFSET 51
      76 00D8  E8000034              C	 DD 29*08000000h+OFFSET 52
      77 00DC  E8000035              C	 DD 29*08000000h+OFFSET 53
      78 00E0  E8000036              C	 DD 29*08000000h+OFFSET 54
      79 00E4  E8000037              C	 DD 29*08000000h+OFFSET 55
      80 00E8  E8000038              C	 DD 29*08000000h+OFFSET 56
      81 00EC  E8000039              C	 DD 29*08000000h+OFFSET 57
      82 00F0  E800003A              C	 DD 29*08000000h+OFFSET 58
      83 00F4  E800003B              C	 DD 29*08000000h+OFFSET 59
      84 00F8  E800003C              C	 DD 29*08000000h+OFFSET 60
      85 00FC  E800003D              C	 DD 29*08000000h+OFFSET 61
      86 0100  E800003E              C	 DD 29*08000000h+OFFSET 62
      87 0104  E800003F              C	 DD 29*08000000h+OFFSET 63
      88 0108  E8000040              C	 DD 29*08000000h+OFFSET 64
      89 010C  E8000041              C	 DD 29*08000000h+OFFSET 65
      90 0110  E8000042              C	 DD 29*08000000h+OFFSET 66
      91 0114  E8000043              C	 DD 29*08000000h+OFFSET 67
      92 0118  E8000044              C	 DD 29*08000000h+OFFSET 68
      93 011C  E8000045              C	 DD 29*08000000h+OFFSET 69
      94 0120  E8000046              C	 DD 29*08000000h+OFFSET 70
      95 0124  E8000047              C	 DD 29*08000000h+OFFSET 71
      96 0128  E8000048              C	 DD 29*08000000h+OFFSET 72
      97 012C  E8000049              C	 DD 29*08000000h+OFFSET 73
      98 0130  E800004A              C	 DD 29*08000000h+OFFSET 74
      99 0134  E800004B              C	 DD 29*08000000h+OFFSET 75
     100 0138  E800004C              C	 DD 29*08000000h+OFFSET 76
     101 013C  E800004D              C	 DD 29*08000000h+OFFSET 77
     102 0140  E800004E              C	 DD 29*08000000h+OFFSET 78
     103 0144  E800004F              C	 DD 29*08000000h+OFFSET 79
Microsoft (R) Macro Assembler Version 5.10                  11/16/97 16:56:0
                                                             Page     1-3


     104 0148  E8000050              C	 DD 29*08000000h+OFFSET 80
     105 014C  E8000051              C	 DD 29*08000000h+OFFSET 81
     106 0150  E8000052              C	 DD 29*08000000h+OFFSET 82
     107 0154  E8000053              C	 DD 29*08000000h+OFFSET 83
     108 0158  E8000054              C	 DD 29*08000000h+OFFSET 84
     109 015C  E8000055              C	 DD 29*08000000h+OFFSET 85
     110 0160  E8000056              C	 DD 29*08000000h+OFFSET 86
     111 0164  E8000057              C	 DD 29*08000000h+OFFSET 87
     112 0168  E8000058              C	 DD 29*08000000h+OFFSET 88
     113 016C  E8000059              C	 DD 29*08000000h+OFFSET 89
     114 0170  E800005A              C	 DD 29*08000000h+OFFSET 90
     115 0174  E800005B              C	 DD 29*08000000h+OFFSET 91
     116 0178  E800005C              C	 DD 29*08000000h+OFFSET 92
     117 017C  E800005D              C	 DD 29*08000000h+OFFSET 93
     118 0180  E800005E              C	 DD 29*08000000h+OFFSET 94
     119 0184  E800005F              C	 DD 29*08000000h+OFFSET 95
     120 0188  E8000060              C	 DD 29*08000000h+OFFSET 96
     121 018C  E8000061              C	 DD 29*08000000h+OFFSET 97
     122 0190  E8000062              C	 DD 29*08000000h+OFFSET 98
     123 0194  E8000063              C	 DD 29*08000000h+OFFSET 99
     124 0198  E8000064              C	 DD 29*08000000h+OFFSET 100
     125 019C  E8000065              C	 DD 29*08000000h+OFFSET 101
     126 01A0  E8000066              C	 DD 29*08000000h+OFFSET 102
     127 01A4  E8000067              C	 DD 29*08000000h+OFFSET 103
     128 01A8  E8000068              C	 DD 29*08000000h+OFFSET 104
     129 01AC  E8000069              C	 DD 29*08000000h+OFFSET 105
     130 01B0  E800006A              C	 DD 29*08000000h+OFFSET 106
     131 01B4  E800006B              C	 DD 29*08000000h+OFFSET 107
     132 01B8  E800006C              C	 DD 29*08000000h+OFFSET 108
     133 01BC  E800006D              C	 DD 29*08000000h+OFFSET 109
     134 01C0  E800006E              C	 DD 29*08000000h+OFFSET 110
     135 01C4  E800006F              C	 DD 29*08000000h+OFFSET 111
     136 01C8  E8000070              C	 DD 29*08000000h+OFFSET 112
     137 01CC  E8000071              C	 DD 29*08000000h+OFFSET 113
     138 01D0  E8000072              C	 DD 29*08000000h+OFFSET 114
     139 01D4  E8000073              C	 DD 29*08000000h+OFFSET 115
     140 01D8  F0000074              C	 DD 30*08000000h+OFFSET 116
     141 01DC  E8000075              C	 DD 29*08000000h+OFFSET 117
     142 01E0  E8000076              C	 DD 29*08000000h+OFFSET 118
     143 01E4  E8000077              C	 DD 29*08000000h+OFFSET 119
     144 01E8  E8000078              C	 DD 29*08000000h+OFFSET 120
     145 01EC  E8000079              C	 DD 29*08000000h+OFFSET 121
     146 01F0  E800007A              C	 DD 29*08000000h+OFFSET 122
     147 01F4  E800007B              C	 DD 29*08000000h+OFFSET 123
     148 01F8  E800007C              C	 DD 29*08000000h+OFFSET 124
     149 01FC  E800007D              C	 DD 29*08000000h+OFFSET 125
     150 0200  E800007E              C	 DD 29*08000000h+OFFSET 126
     151 0204  E800007F              C	 DD 29*08000000h+OFFSET 127
     152 0208  F0000080              C	 DD 30*08000000h+OFFSET 128
     153 020C  E8000081              C	 DD 29*08000000h+OFFSET 129
     154 0210  E8000082              C	 DD 29*08000000h+OFFSET 130
     155 0214  E8000083              C	 DD 29*08000000h+OFFSET 131
     156 0218  E8000084              C	 DD 29*08000000h+OFFSET 132
     157 021C  E8000085              C	 DD 29*08000000h+OFFSET 133
Microsoft (R) Macro Assembler Version 5.10                  11/16/97 16:56:0
                                                             Page     1-4


     158 0220  E8000086              C	 DD 29*08000000h+OFFSET 134
     159 0224  E8000087              C	 DD 29*08000000h+OFFSET 135
     160 0228  E8000088              C	 DD 29*08000000h+OFFSET 136
     161 022C  E8000089              C	 DD 29*08000000h+OFFSET 137
     162 0230  E800008A              C	 DD 29*08000000h+OFFSET 138
     163 0234  E800008B              C	 DD 29*08000000h+OFFSET 139
     164 0238  E800008C              C	 DD 29*08000000h+OFFSET 140
     165 023C  E800008D              C	 DD 29*08000000h+OFFSET 141
     166 0240  E800008E              C	 DD 29*08000000h+OFFSET 142
     167 0244  E800008F              C	 DD 29*08000000h+OFFSET 143
     168 0248  E8000090              C	 DD 29*08000000h+OFFSET 144
     169 024C  E8000091              C	 DD 29*08000000h+OFFSET 145
     170 0250  E8000092              C	 DD 29*08000000h+OFFSET 146
     171 0254  E8000093              C	 DD 29*08000000h+OFFSET 147
     172 0258  E8000094              C	 DD 29*08000000h+OFFSET 148
     173 025C  E8000095              C	 DD 29*08000000h+OFFSET 149
     174 0260  E8000096              C	 DD 29*08000000h+OFFSET 150
     175 0264  E8000097              C	 DD 29*08000000h+OFFSET 151
     176 0268  E8000098              C	 DD 29*08000000h+OFFSET 152
     177 026C  E8000099              C	 DD 29*08000000h+OFFSET 153
     178 0270  E800009A              C	 DD 29*08000000h+OFFSET 154
     179 0274  E800009B              C	 DD 29*08000000h+OFFSET 155
     180 0278  E800009C              C	 DD 29*08000000h+OFFSET 156
     181 027C  E800009D              C	 DD 29*08000000h+OFFSET 157
     182 0280  E800009E              C	 DD 29*08000000h+OFFSET 158
     183 0284  E800009F              C	 DD 29*08000000h+OFFSET 159
     184 0288  E80000A0              C	 DD 29*08000000h+OFFSET 160
     185 028C  E80000A1              C	 DD 29*08000000h+OFFSET 161
     186 0290  E80000A2              C	 DD 29*08000000h+OFFSET 162
     187 0294  E80000A3              C	 DD 29*08000000h+OFFSET 163
     188 0298  E80000A4              C	 DD 29*08000000h+OFFSET 164
     189 029C  E80000A5              C	 DD 29*08000000h+OFFSET 165
     190 02A0  E80000A6              C	 DD 29*08000000h+OFFSET 166
     191 02A4  E80000A7              C	 DD 29*08000000h+OFFSET 167
     192 02A8  E80000A8              C	 DD 29*08000000h+OFFSET 168
     193 02AC  E80000A9              C	 DD 29*08000000h+OFFSET 169
     194 02B0  E80000AA              C	 DD 29*08000000h+OFFSET 170
     195 02B4  E80000AB              C	 DD 29*08000000h+OFFSET 171
     196 02B8  E80000AC              C	 DD 29*08000000h+OFFSET 172
     197 02BC  E80000AD              C	 DD 29*08000000h+OFFSET 173
     198 02C0  E80000AE              C	 DD 29*08000000h+OFFSET 174
     199 02C4  E80000AF              C	 DD 29*08000000h+OFFSET 175
     200 02C8  E80000B0              C	 DD 29*08000000h+OFFSET 176
     201 02CC  E80000B1              C	 DD 29*08000000h+OFFSET 177
     202 02D0  E80000B2              C	 DD 29*08000000h+OFFSET 178
     203 02D4  E80000B3              C	 DD 29*08000000h+OFFSET 179
     204 02D8  E80000B4              C	 DD 29*08000000h+OFFSET 180
     205 02DC  E80000B5              C	 DD 29*08000000h+OFFSET 181
     206 02E0  E80000B6              C	 DD 29*08000000h+OFFSET 182
     207 02E4  E80000B7              C	 DD 29*08000000h+OFFSET 183
     208 02E8  E80000B8              C	 DD 29*08000000h+OFFSET 184
     209 02EC  E80000B9              C	 DD 29*08000000h+OFFSET 185
     210 02F0  E80000BA              C	 DD 29*08000000h+OFFSET 186
     211 02F4  E80000BB              C	 DD 29*08000000h+OFFSET 187
Microsoft (R) Macro Assembler Version 5.10                  11/16/97 16:56:0
                                                             Page     1-5


     212 02F8  E80000BC              C	 DD 29*08000000h+OFFSET 188
     213 02FC  E80000BD              C	 DD 29*08000000h+OFFSET 189
     214 0300  E80000BE              C	 DD 29*08000000h+OFFSET 190
     215 0304  E80000BF              C	 DD 29*08000000h+OFFSET 191
     216 0308  E80000C0              C	 DD 29*08000000h+OFFSET 192
     217 030C  E80000C1              C	 DD 29*08000000h+OFFSET 193
     218 0310  E80000C2              C	 DD 29*08000000h+OFFSET 194
     219 0314  E80000C3              C	 DD 29*08000000h+OFFSET 195
     220 0318  E80000C4              C	 DD 29*08000000h+OFFSET 196
     221 031C  E80000C5              C	 DD 29*08000000h+OFFSET 197
     222 0320  E80000C6              C	 DD 29*08000000h+OFFSET 198
     223 0324  E80000C7              C	 DD 29*08000000h+OFFSET 199
     224 0328  E80000C8              C	 DD 29*08000000h+OFFSET 200
     225 032C  E80000C9              C	 DD 29*08000000h+OFFSET 201
     226 0330  E80000CA              C	 DD 29*08000000h+OFFSET 202
     227 0334  E80000CB              C	 DD 29*08000000h+OFFSET 203
     228 0338  E80000CC              C	 DD 29*08000000h+OFFSET 204
     229 033C  E80000CD              C	 DD 29*08000000h+OFFSET 205
     230 0340  E80000CE              C	 DD 29*08000000h+OFFSET 206
     231 0344  E80000CF              C	 DD 29*08000000h+OFFSET 207
     232 0348  E80000D0              C	 DD 29*08000000h+OFFSET 208
     233 034C  E80000D1              C	 DD 29*08000000h+OFFSET 209
     234 0350  E80000D2              C	 DD 29*08000000h+OFFSET 210
     235 0354  E80000D3              C	 DD 29*08000000h+OFFSET 211
     236 0358  E80000D4              C	 DD 29*08000000h+OFFSET 212
     237 035C  E80000D5              C	 DD 29*08000000h+OFFSET 213
     238 0360  E80000D6              C	 DD 29*08000000h+OFFSET 214
     239 0364  E80000D7              C	 DD 29*08000000h+OFFSET 215
     240 0368  E80000D8              C	 DD 29*08000000h+OFFSET 216
     241 036C  E80000D9              C	 DD 29*08000000h+OFFSET 217
     242 0370  E80000DA              C	 DD 29*08000000h+OFFSET 218
     243 0374  E80000DB              C	 DD 29*08000000h+OFFSET 219
     244 0378  E80000DC              C	 DD 29*08000000h+OFFSET 220
     245 037C  E80000DD              C	 DD 29*08000000h+OFFSET 221
     246 0380  E80000DE              C	 DD 29*08000000h+OFFSET 222
     247 0384  E80000DF              C	 DD 29*08000000h+OFFSET 223
     248 0388  E80000E0              C	 DD 29*08000000h+OFFSET 224
     249 038C  E80000E1              C	 DD 29*08000000h+OFFSET 225
     250 0390  E80000E2              C	 DD 29*08000000h+OFFSET 226
     251 0394  E80000E3              C	 DD 29*08000000h+OFFSET 227
     252 0398  E80000E4              C	 DD 29*08000000h+OFFSET 228
     253 039C  E80000E5              C	 DD 29*08000000h+OFFSET 229
     254 03A0  E80000E6              C	 DD 29*08000000h+OFFSET 230
     255 03A4  E80000E7              C	 DD 29*08000000h+OFFSET 231
     256 03A8  E80000E8              C	 DD 29*08000000h+OFFSET 232
     257 03AC  E80000E9              C	 DD 29*08000000h+OFFSET 233
     258 03B0  E80000EA              C	 DD 29*08000000h+OFFSET 234
     259 03B4  E80000EB              C	 DD 29*08000000h+OFFSET 235
     260 03B8  E80000EC              C	 DD 29*08000000h+OFFSET 236
     261 03BC  E80000ED              C	 DD 29*08000000h+OFFSET 237
     262 03C0  E80000EE              C	 DD 29*08000000h+OFFSET 238
     263 03C4  E80000EF              C	 DD 29*08000000h+OFFSET 239
     264 03C8  E80000F0              C	 DD 29*08000000h+OFFSET 240
     265 03CC  E80000F1              C	 DD 29*08000000h+OFFSET 241
Microsoft (R) Macro Assembler Version 5.10                  11/16/97 16:56:0
                                                             Page     1-6


     266 03D0  E80000F2              C	 DD 29*08000000h+OFFSET 242
     267 03D4  E80000F3              C	 DD 29*08000000h+OFFSET 243
     268 03D8  E80000F4              C	 DD 29*08000000h+OFFSET 244
     269 03DC  E80000F5              C	 DD 29*08000000h+OFFSET 245
     270 03E0  E80000F6              C	 DD 29*08000000h+OFFSET 246
     271 03E4  E80000F7              C	 DD 29*08000000h+OFFSET 247
     272 03E8  E80000F8              C	 DD 29*08000000h+OFFSET 248
     273 03EC  E80000F9              C	 DD 29*08000000h+OFFSET 249
     274 03F0  E80000FA              C	 DD 29*08000000h+OFFSET 250
     275 03F4  E80000FB              C	 DD 29*08000000h+OFFSET 251
     276 03F8  E80000FC              C	 DD 29*08000000h+OFFSET 252
     277 03FC  E80000FD              C	 DD 29*08000000h+OFFSET 253
     278 0400  E80000FE              C	 DD 29*08000000h+OFFSET 254
     279 0404  E80000FF              C	 DD 29*08000000h+OFFSET 255
     280 0408  E8000100              C	 DD 29*08000000h+OFFSET 256
     281 040C  00029018 R            C	 DD argumentblock
     282 0410  00029058 R            C	 DD tokenbuffer
     283 0414  0002DE7C R            C	 DD bndstk
     284 0418  0002FDC0 R            C	 DD catchstack
     285 041C  000316C4 R            C	 DD hashtable
     286 0420  0003A380 R            C	 DD onewordbuffer
     287 0424  0003A388 R            C	 DD saveargc
     288 0428  0003A390 R            C	 DD saveargv
     289 042C  0003A398 R            C	 DD datebuffer
     290 0430  E800010A              C	 DD 29*08000000h+OFFSET 266
     291			     C	 PUBLIC _psl_callback1
     292			     C	  ALIGN 4
     293 0434  E800010B              C	_psl_callback1  DD 29*08000000h+OFFSET 
					267
     294			     C	 PUBLIC _psl_callback2
     295			     C	  ALIGN 4
     296 0438  E800010C              C	_psl_callback2  DD 29*08000000h+OFFSET 
					268
     297			     C	 PUBLIC _psl_callback3
     298			     C	  ALIGN 4
     299 043C  E800010D              C	_psl_callback3  DD 29*08000000h+OFFSET 
					269
     300			     C	 PUBLIC _psl_callback4
     301			     C	  ALIGN 4
     302 0440  E800010E              C	_psl_callback4  DD 29*08000000h+OFFSET 
					270
     303 0444  E800010F              C	 DD 29*08000000h+OFFSET 271
     304			     C	 PUBLIC _stackupperbound
     305			     C	  ALIGN 4
     306 0448  E8000110              C	_stackupperbound  DD 29*08000000h+OFFSE
					T 272
     307 044C  E8000111              C	 DD 29*08000000h+OFFSET 273
     308 0450  E8000112              C	 DD 29*08000000h+OFFSET 274
     309			     C	 PUBLIC _bndstkupperbound
     310			     C	  ALIGN 4
     311 0454  E8000113              C	_bndstkupperbound  DD 29*08000000h+OFFS
					ET 275
     312			     C	 PUBLIC _bndstkptr
     313			     C	  ALIGN 4
Microsoft (R) Macro Assembler Version 5.10                  11/16/97 16:56:0
                                                             Page     1-7


     314 0458  E8000114              C	_bndstkptr  DD 29*08000000h+OFFSET 276
     315			     C	 PUBLIC _heaplowerbound
     316			     C	  ALIGN 4
     317 045C  E8000115              C	_heaplowerbound  DD 29*08000000h+OFFSET
					 277
     318 0460  E8000116              C	 DD 29*08000000h+OFFSET 278
     319 0464  E8000117              C	 DD 29*08000000h+OFFSET 279
     320			     C	 PUBLIC _gcarraylowerbound
     321			     C	  ALIGN 4
     322 0468  E8000118              C	_gcarraylowerbound  DD 29*08000000h+OFF
					SET 280
     323			     C	 PUBLIC _gcarrayupperbound
     324			     C	  ALIGN 4
     325 046C  E8000119              C	_gcarrayupperbound  DD 29*08000000h+OFF
					SET 281
     326			     C	 PUBLIC _heaplast
     327			     C	  ALIGN 4
     328 0470  E800011A              C	_heaplast  DD 29*08000000h+OFFSET 282
     329			     C	 PUBLIC _heaptrapbound
     330			     C	  ALIGN 4
     331 0474  E800011B              C	_heaptrapbound  DD 29*08000000h+OFFSET 
					283
     332			     C	 PUBLIC _heapupperbound
     333			     C	  ALIGN 4
     334 0478  E800011C              C	_heapupperbound  DD 29*08000000h+OFFSET
					 284
     335			     C	 PUBLIC __infbitlength_
     336			     C	  ALIGN 4
     337 047C  E800011D              C	__infbitlength_  DD 29*08000000h+OFFSET
					 285
     338			     C	 PUBLIC _lastbps
     339			     C	  ALIGN 4
     340 0480  E800011E              C	_lastbps  DD 29*08000000h+OFFSET 286
     341			     C	 PUBLIC _bpslowerbound
     342			     C	  ALIGN 4
     343 0484  E800011F              C	_bpslowerbound  DD 29*08000000h+OFFSET 
					287
     344			     C	 PUBLIC _oldheaplast
     345			     C	  ALIGN 4
     346 0488  E8000120              C	_oldheaplast  DD 29*08000000h+OFFSET 28
					8
     347			     C	 PUBLIC _oldheaplowerbound
     348			     C	  ALIGN 4
     349 048C  E8000121              C	_oldheaplowerbound  DD 29*08000000h+OFF
					SET 289
     350			     C	 PUBLIC _oldheaptrapbound
     351			     C	  ALIGN 4
     352 0490  E8000122              C	_oldheaptrapbound  DD 29*08000000h+OFFS
					ET 290
     353			     C	 PUBLIC _oldheapupperbound
     354			     C	  ALIGN 4
     355 0494  E8000123              C	_oldheapupperbound  DD 29*08000000h+OFF
					SET 291
     356			     C	 PUBLIC _mainstartinitialize
Microsoft (R) Macro Assembler Version 5.10                  11/16/97 16:56:0
                                                             Page     1-8


     357			     C	  ALIGN 4
     358 0498  E8000124              C	_mainstartinitialize  DD 29*08000000h+O
					FFSET 292
     359			     C	 PUBLIC _nextbps
     360			     C	  ALIGN 4
     361 049C  E8000125              C	_nextbps  DD 29*08000000h+OFFSET 293
     362			     C	 PUBLIC _unixstdin
     363			     C	  ALIGN 4
     364 04A0  E8000126              C	_unixstdin  DD 29*08000000h+OFFSET 294
     365			     C	 PUBLIC _unixstdout
     366			     C	  ALIGN 4
     367 04A4  E8000127              C	_unixstdout  DD 29*08000000h+OFFSET 295
     368			     C	 PUBLIC _unixstderr
     369			     C	  ALIGN 4
     370 04A8  E8000128              C	_unixstderr  DD 29*08000000h+OFFSET 296
     371			     C	 PUBLIC _unixnull
     372			     C	  ALIGN 4
     373 04AC  E8000129              C	_unixnull  DD 29*08000000h+OFFSET 297
     374			     C	 PUBLIC _unixeof
     375			     C	  ALIGN 4
     376 04B0  E800012A              C	_unixeof  DD 29*08000000h+OFFSET 298
     377			     C	 PUBLIC _unixtty
     378			     C	  ALIGN 4
     379 04B4  E800012B              C	_unixtty  DD 29*08000000h+OFFSET 299
     380 04B8  E800012C              C	 DD 29*08000000h+OFFSET 300
     381 04BC  E800012D              C	 DD 29*08000000h+OFFSET 301
     382 04C0  E800012E              C	 DD 29*08000000h+OFFSET 302
     383 04C4  E800012F              C	 DD 29*08000000h+OFFSET 303
     384 04C8  E8000130              C	 DD 29*08000000h+OFFSET 304
     385			     C	 PUBLIC _bruch_bruch
     386			     C	  ALIGN 4
     387 04CC  E8000131              C	_bruch_bruch  DD 29*08000000h+OFFSET 30
					5
     388 04D0  000001F1              C	 DD 497
     389 04D4  F0000080              C	 DD 30*08000000h+OFFSET 128
     390 04D8  00000008 R            C	 DD symval
     391			     C	 PUBLIC _old_symval
     392			     C	  ALIGN 4
     393 04DC  E8000135              C	_old_symval  DD 29*08000000h+OFFSET 309
     394 04E0  000007CC R            C	 DD symfnc
     395			     C	 PUBLIC _old_symfnc
     396			     C	  ALIGN 4
     397 04E4  E8000137              C	_old_symfnc  DD 29*08000000h+OFFSET 311
     398 04E8  00000F90 R            C	 DD symprp
     399			     C	 PUBLIC _old_symprp
     400			     C	  ALIGN 4
     401 04EC  E8000139              C	_old_symprp  DD 29*08000000h+OFFSET 313
     402 04F0  00001754 R            C	 DD symnam
     403 04F4  E800013B              C	 DD 29*08000000h+OFFSET 315
     404 04F8  E800013C              C	 DD 29*08000000h+OFFSET 316
     405 04FC  E800013D              C	 DD 29*08000000h+OFFSET 317
     406 0500  E800013E              C	 DD 29*08000000h+OFFSET 318
     407 0504  E800013F              C	 DD 29*08000000h+OFFSET 319
     408 0508  E8000140              C	 DD 29*08000000h+OFFSET 320
Microsoft (R) Macro Assembler Version 5.10                  11/16/97 16:56:0
                                                             Page     1-9


     409 050C  E8000141              C	 DD 29*08000000h+OFFSET 321
     410 0510  E8000142              C	 DD 29*08000000h+OFFSET 322
     411 0514  E8000143              C	 DD 29*08000000h+OFFSET 323
     412			     C	 PUBLIC _stacklowerbound
     413			     C	  ALIGN 4
     414 0518  E8000144              C	_stacklowerbound  DD 29*08000000h+OFFSE
					T 324
     415 051C  E8000145              C	 DD 29*08000000h+OFFSET 325
     416 0520  E8000146              C	 DD 29*08000000h+OFFSET 326
     417 0524  E8000147              C	 DD 29*08000000h+OFFSET 327
     418 0528  E8000148              C	 DD 29*08000000h+OFFSET 328
     419 052C  E8000149              C	 DD 29*08000000h+OFFSET 329
     420 0530  E800014A              C	 DD 29*08000000h+OFFSET 330
     421 0534  E800014B              C	 DD 29*08000000h+OFFSET 331
     422 0538  E800014C              C	 DD 29*08000000h+OFFSET 332
     423 053C  E800014D              C	 DD 29*08000000h+OFFSET 333
     424 0540  E800014E              C	 DD 29*08000000h+OFFSET 334
     425 0544  E800014F              C	 DD 29*08000000h+OFFSET 335
     426 0548  E8000150              C	 DD 29*08000000h+OFFSET 336
     427 054C  E8000151              C	 DD 29*08000000h+OFFSET 337
     428 0550  E8000152              C	 DD 29*08000000h+OFFSET 338
     429 0554  E8000153              C	 DD 29*08000000h+OFFSET 339
     430 0558  E8000154              C	 DD 29*08000000h+OFFSET 340
     431 055C  E8000155              C	 DD 29*08000000h+OFFSET 341
     432 0560  E8000156              C	 DD 29*08000000h+OFFSET 342
     433 0564  E8000157              C	 DD 29*08000000h+OFFSET 343
     434 0568  E8000158              C	 DD 29*08000000h+OFFSET 344
     435 056C  E8000159              C	 DD 29*08000000h+OFFSET 345
     436 0570  E800015A              C	 DD 29*08000000h+OFFSET 346
     437 0574  E800015B              C	 DD 29*08000000h+OFFSET 347
     438 0578  E800015C              C	 DD 29*08000000h+OFFSET 348
     439 057C  E800015D              C	 DD 29*08000000h+OFFSET 349
     440 0580  E800015E              C	 DD 29*08000000h+OFFSET 350
     441 0584  F0000080              C	 DD 30*08000000h+OFFSET 128
     442 0588  E8000160              C	 DD 29*08000000h+OFFSET 352
     443 058C  E8000161              C	 DD 29*08000000h+OFFSET 353
     444 0590  E8000162              C	 DD 29*08000000h+OFFSET 354
     445 0594  E8000163              C	 DD 29*08000000h+OFFSET 355
     446 0598  E8000164              C	 DD 29*08000000h+OFFSET 356
     447 059C  E8000165              C	 DD 29*08000000h+OFFSET 357
     448 05A0  E8000166              C	 DD 29*08000000h+OFFSET 358
     449 05A4  E8000167              C	 DD 29*08000000h+OFFSET 359
     450 05A8  E8000168              C	 DD 29*08000000h+OFFSET 360
     451 05AC  E8000169              C	 DD 29*08000000h+OFFSET 361
     452 05B0  E800016A              C	 DD 29*08000000h+OFFSET 362
     453 05B4  E800016B              C	 DD 29*08000000h+OFFSET 363
     454 05B8  E800016C              C	 DD 29*08000000h+OFFSET 364
     455 05BC  E800016D              C	 DD 29*08000000h+OFFSET 365
     456 05C0  E800016E              C	 DD 29*08000000h+OFFSET 366
     457 05C4  E800016F              C	 DD 29*08000000h+OFFSET 367
     458 05C8  E8000170              C	 DD 29*08000000h+OFFSET 368
     459 05CC  E8000171              C	 DD 29*08000000h+OFFSET 369
     460 05D0  E8000172              C	 DD 29*08000000h+OFFSET 370
     461 05D4  E8000173              C	 DD 29*08000000h+OFFSET 371
Microsoft (R) Macro Assembler Version 5.10                  11/16/97 16:56:0
                                                             Page     1-10


     462 05D8  F0000080              C	 DD 30*08000000h+OFFSET 128
     463 05DC  E8000175              C	 DD 29*08000000h+OFFSET 373
     464 05E0  E8000176              C	 DD 29*08000000h+OFFSET 374
     465 05E4  E8000177              C	 DD 29*08000000h+OFFSET 375
     466 05E8  E8000178              C	 DD 29*08000000h+OFFSET 376
     467 05EC  E8000179              C	 DD 29*08000000h+OFFSET 377
     468 05F0  E800017A              C	 DD 29*08000000h+OFFSET 378
     469 05F4  E800017B              C	 DD 29*08000000h+OFFSET 379
     470 05F8  E800017C              C	 DD 29*08000000h+OFFSET 380
     471 05FC  E800017D              C	 DD 29*08000000h+OFFSET 381
     472 0600  E800017E              C	 DD 29*08000000h+OFFSET 382
     473 0604  E800017F              C	 DD 29*08000000h+OFFSET 383
     474 0608  E8000180              C	 DD 29*08000000h+OFFSET 384
     475 060C  E8000181              C	 DD 29*08000000h+OFFSET 385
     476 0610  E8000182              C	 DD 29*08000000h+OFFSET 386
     477 0614  E8000183              C	 DD 29*08000000h+OFFSET 387
     478 0618  E8000184              C	 DD 29*08000000h+OFFSET 388
     479 061C  E8000185              C	 DD 29*08000000h+OFFSET 389
     480 0620  E8000186              C	 DD 29*08000000h+OFFSET 390
     481 0624  E8000187              C	 DD 29*08000000h+OFFSET 391
     482 0628  E8000188              C	 DD 29*08000000h+OFFSET 392
     483 062C  E8000189              C	 DD 29*08000000h+OFFSET 393
     484 0630  E800018A              C	 DD 29*08000000h+OFFSET 394
     485 0634  E800018B              C	 DD 29*08000000h+OFFSET 395
     486 0638  E800018C              C	 DD 29*08000000h+OFFSET 396
     487 063C  E800018D              C	 DD 29*08000000h+OFFSET 397
     488 0640  E800018E              C	 DD 29*08000000h+OFFSET 398
     489 0644  E800018F              C	 DD 29*08000000h+OFFSET 399
     490 0648  E8000190              C	 DD 29*08000000h+OFFSET 400
     491 064C  E8000191              C	 DD 29*08000000h+OFFSET 401
     492 0650  E8000192              C	 DD 29*08000000h+OFFSET 402
     493 0654  E8000193              C	 DD 29*08000000h+OFFSET 403
     494 0658  E8000194              C	 DD 29*08000000h+OFFSET 404
     495 065C  E8000195              C	 DD 29*08000000h+OFFSET 405
     496 0660  E8000196              C	 DD 29*08000000h+OFFSET 406
     497 0664  E8000197              C	 DD 29*08000000h+OFFSET 407
     498 0668  E8000198              C	 DD 29*08000000h+OFFSET 408
     499 066C  E8000199              C	 DD 29*08000000h+OFFSET 409
     500 0670  E800019A              C	 DD 29*08000000h+OFFSET 410
     501 0674  E800019B              C	 DD 29*08000000h+OFFSET 411
     502 0678  E800019C              C	 DD 29*08000000h+OFFSET 412
     503 067C  E800019D              C	 DD 29*08000000h+OFFSET 413
     504 0680  E800019E              C	 DD 29*08000000h+OFFSET 414
     505 0684  E800019F              C	 DD 29*08000000h+OFFSET 415
     506 0688  E80001A0              C	 DD 29*08000000h+OFFSET 416
     507 068C  E80001A1              C	 DD 29*08000000h+OFFSET 417
     508 0690  E80001A2              C	 DD 29*08000000h+OFFSET 418
     509 0694  E80001A3              C	 DD 29*08000000h+OFFSET 419
     510 0698  E80001A4              C	 DD 29*08000000h+OFFSET 420
     511 069C  E80001A5              C	 DD 29*08000000h+OFFSET 421
     512 06A0  E80001A6              C	 DD 29*08000000h+OFFSET 422
     513 06A4  E80001A7              C	 DD 29*08000000h+OFFSET 423
     514 06A8  E80001A8              C	 DD 29*08000000h+OFFSET 424
     515 06AC  E80001A9              C	 DD 29*08000000h+OFFSET 425
Microsoft (R) Macro Assembler Version 5.10                  11/16/97 16:56:0
                                                             Page     1-11


     516 06B0  E80001AA              C	 DD 29*08000000h+OFFSET 426
     517 06B4  E80001AB              C	 DD 29*08000000h+OFFSET 427
     518 06B8  E80001AC              C	 DD 29*08000000h+OFFSET 428
     519 06BC  E80001AD              C	 DD 29*08000000h+OFFSET 429
     520 06C0  E80001AE              C	 DD 29*08000000h+OFFSET 430
     521 06C4  E80001AF              C	 DD 29*08000000h+OFFSET 431
     522 06C8  E80001B0              C	 DD 29*08000000h+OFFSET 432
     523 06CC  E80001B1              C	 DD 29*08000000h+OFFSET 433
     524 06D0  E80001B2              C	 DD 29*08000000h+OFFSET 434
     525 06D4  E80001B3              C	 DD 29*08000000h+OFFSET 435
     526 06D8  E80001B4              C	 DD 29*08000000h+OFFSET 436
     527 06DC  E80001B5              C	 DD 29*08000000h+OFFSET 437
     528 06E0  E80001B6              C	 DD 29*08000000h+OFFSET 438
     529 06E4  E80001B7              C	 DD 29*08000000h+OFFSET 439
     530 06E8  E80001B8              C	 DD 29*08000000h+OFFSET 440
     531 06EC  E80001B9              C	 DD 29*08000000h+OFFSET 441
     532 06F0  E80001BA              C	 DD 29*08000000h+OFFSET 442
     533 06F4  E80001BB              C	 DD 29*08000000h+OFFSET 443
     534 06F8  E80001BC              C	 DD 29*08000000h+OFFSET 444
     535 06FC  E80001BD              C	 DD 29*08000000h+OFFSET 445
     536 0700  E80001BE              C	 DD 29*08000000h+OFFSET 446
     537 0704  E80001BF              C	 DD 29*08000000h+OFFSET 447
     538 0708  E80001C0              C	 DD 29*08000000h+OFFSET 448
     539 070C  E80001C1              C	 DD 29*08000000h+OFFSET 449
     540 0710  E80001C2              C	 DD 29*08000000h+OFFSET 450
     541 0714  E80001C3              C	 DD 29*08000000h+OFFSET 451
     542 0718  E80001C4              C	 DD 29*08000000h+OFFSET 452
     543 071C  E80001C5              C	 DD 29*08000000h+OFFSET 453
     544 0720  E80001C6              C	 DD 29*08000000h+OFFSET 454
     545 0724  E80001C7              C	 DD 29*08000000h+OFFSET 455
     546 0728  E80001C8              C	 DD 29*08000000h+OFFSET 456
     547 072C  E80001C9              C	 DD 29*08000000h+OFFSET 457
     548 0730  E80001CA              C	 DD 29*08000000h+OFFSET 458
     549 0734  E80001CB              C	 DD 29*08000000h+OFFSET 459
     550 0738  E80001CC              C	 DD 29*08000000h+OFFSET 460
     551 073C  E80001CD              C	 DD 29*08000000h+OFFSET 461
     552 0740  E80001CE              C	 DD 29*08000000h+OFFSET 462
     553 0744  E80001CF              C	 DD 29*08000000h+OFFSET 463
     554 0748  E80001D0              C	 DD 29*08000000h+OFFSET 464
     555 074C  E80001D1              C	 DD 29*08000000h+OFFSET 465
     556 0750  E80001D2              C	 DD 29*08000000h+OFFSET 466
     557 0754  E80001D3              C	 DD 29*08000000h+OFFSET 467
     558 0758  E80001D4              C	 DD 29*08000000h+OFFSET 468
     559 075C  E80001D5              C	 DD 29*08000000h+OFFSET 469
     560 0760  E80001D6              C	 DD 29*08000000h+OFFSET 470
     561 0764  E80001D7              C	 DD 29*08000000h+OFFSET 471
     562 0768  E80001D8              C	 DD 29*08000000h+OFFSET 472
     563 076C  E80001D9              C	 DD 29*08000000h+OFFSET 473
     564 0770  E80001DA              C	 DD 29*08000000h+OFFSET 474
     565 0774  E80001DB              C	 DD 29*08000000h+OFFSET 475
     566 0778  E80001DC              C	 DD 29*08000000h+OFFSET 476
     567 077C  E80001DD              C	 DD 29*08000000h+OFFSET 477
     568 0780  E80001DE              C	 DD 29*08000000h+OFFSET 478
     569 0784  E80001DF              C	 DD 29*08000000h+OFFSET 479
Microsoft (R) Macro Assembler Version 5.10                  11/16/97 16:56:0
                                                             Page     1-12


     570 0788  E80001E0              C	 DD 29*08000000h+OFFSET 480
     571 078C  E80001E1              C	 DD 29*08000000h+OFFSET 481
     572 0790  E80001E2              C	 DD 29*08000000h+OFFSET 482
     573 0794  E80001E3              C	 DD 29*08000000h+OFFSET 483
     574 0798  E80001E4              C	 DD 29*08000000h+OFFSET 484
     575 079C  E80001E5              C	 DD 29*08000000h+OFFSET 485
     576 07A0  E80001E6              C	 DD 29*08000000h+OFFSET 486
     577 07A4  E80001E7              C	 DD 29*08000000h+OFFSET 487
     578 07A8  E80001E8              C	 DD 29*08000000h+OFFSET 488
     579 07AC  E80001E9              C	 DD 29*08000000h+OFFSET 489
     580 07B0  E80001EA              C	 DD 29*08000000h+OFFSET 490
     581 07B4  E80001EB              C	 DD 29*08000000h+OFFSET 491
     582 07B8  E80001EC              C	 DD 29*08000000h+OFFSET 492
     583 07BC  E80001ED              C	 DD 29*08000000h+OFFSET 493
     584 07C0  E80001EE              C	 DD 29*08000000h+OFFSET 494
     585 07C4  E80001EF              C	 DD 29*08000000h+OFFSET 495
     586 07C8  E80001F0              C	 DD 29*08000000h+OFFSET 496
     587			     C	 PUBLIC symfnc
     588			     C	  ALIGN 4
     589 07CC  000021B7 R            C	symfnc  dd undefinedfunction
S_VA_FN.ASM(568): warning A4001: Extra characters on line
     590 07D0  000021B7 R            C	 dd undefinedfunction
S_VA_FN.ASM(569): warning A4001: Extra characters on line
     591 07D4  000021B7 R            C	 dd undefinedfunction
S_VA_FN.ASM(570): warning A4001: Extra characters on line
     592 07D8  000021B7 R            C	 dd undefinedfunction
S_VA_FN.ASM(571): warning A4001: Extra characters on line
     593 07DC  000021B7 R            C	 dd undefinedfunction
S_VA_FN.ASM(572): warning A4001: Extra characters on line
     594 07E0  000021B7 R            C	 dd undefinedfunction
S_VA_FN.ASM(573): warning A4001: Extra characters on line
     595 07E4  000021B7 R            C	 dd undefinedfunction
S_VA_FN.ASM(574): warning A4001: Extra characters on line
     596 07E8  000021B7 R            C	 dd undefinedfunction
S_VA_FN.ASM(575): warning A4001: Extra characters on line
     597 07EC  000021B7 R            C	 dd undefinedfunction
S_VA_FN.ASM(576): warning A4001: Extra characters on line
     598 07F0  000021B7 R            C	 dd undefinedfunction
S_VA_FN.ASM(577): warning A4001: Extra characters on line
     599 07F4  000021B7 R            C	 dd undefinedfunction
S_VA_FN.ASM(578): warning A4001: Extra characters on line
     600 07F8  000021B7 R            C	 dd undefinedfunction
S_VA_FN.ASM(579): warning A4001: Extra characters on line
     601 07FC  000021B7 R            C	 dd undefinedfunction
S_VA_FN.ASM(580): warning A4001: Extra characters on line
     602 0800  000021B7 R            C	 dd undefinedfunction
S_VA_FN.ASM(581): warning A4001: Extra characters on line
     603 0804  000021B7 R            C	 dd undefinedfunction
S_VA_FN.ASM(582): warning A4001: Extra characters on line
     604 0808  000021B7 R            C	 dd undefinedfunction
S_VA_FN.ASM(583): warning A4001: Extra characters on line
     605 080C  000021B7 R            C	 dd undefinedfunction
S_VA_FN.ASM(584): warning A4001: Extra characters on line
     606 0810  000021B7 R            C	 dd undefinedfunction
S_VA_FN.ASM(585): warning A4001: Extra characters on line
     607 0814  000021B7 R            C	 dd undefinedfunction
S_VA_FN.ASM(586): warning A4001: Extra characters on line
     608 0818  000021B7 R            C	 dd undefinedfunction
S_VA_FN.ASM(587): warning A4001: Extra characters on line
     609 081C  000021B7 R            C	 dd undefinedfunction
S_VA_FN.ASM(588): warning A4001: Extra characters on line
     610 0820  000021B7 R            C	 dd undefinedfunction
S_VA_FN.ASM(589): warning A4001: Extra characters on line
     611 0824  000021B7 R            C	 dd undefinedfunction
S_VA_FN.ASM(590): warning A4001: Extra characters on line
     612 0828  000021B7 R            C	 dd undefinedfunction
S_VA_FN.ASM(591): warning A4001: Extra characters on line
     613 082C  000021B7 R            C	 dd undefinedfunction
S_VA_FN.ASM(592): warning A4001: Extra characters on line
     614 0830  000021B7 R            C	 dd undefinedfunction
S_VA_FN.ASM(593): warning A4001: Extra characters on line
     615 0834  000021B7 R            C	 dd undefinedfunction
S_VA_FN.ASM(594): warning A4001: Extra characters on line
     616 0838  000021B7 R            C	 dd undefinedfunction
S_VA_FN.ASM(595): warning A4001: Extra characters on line
     617 083C  000021B7 R            C	 dd undefinedfunction
S_VA_FN.ASM(596): warning A4001: Extra characters on line
     618 0840  000021B7 R            C	 dd undefinedfunction
S_VA_FN.ASM(597): warning A4001: Extra characters on line
     619 0844  000021B7 R            C	 dd undefinedfunction
S_VA_FN.ASM(598): warning A4001: Extra characters on line
     620 0848  000021B7 R            C	 dd undefinedfunction
S_VA_FN.ASM(599): warning A4001: Extra characters on line
     621 084C  000021B7 R            C	 dd undefinedfunction
S_VA_FN.ASM(600): warning A4001: Extra characters on line
     622 0850  000021B7 R            C	 dd undefinedfunction
S_VA_FN.ASM(601): warning A4001: Extra characters on line
     623 0854  000021B7 R            C	 dd undefinedfunction
S_VA_FN.ASM(602): warning A4001: Extra characters on line
Microsoft (R) Macro Assembler Version 5.10                  11/16/97 16:56:0
                                                             Page     1-13


     624 0858  000021B7 R            C	 dd undefinedfunction
S_VA_FN.ASM(603): warning A4001: Extra characters on line
     625 085C  000021B7 R            C	 dd undefinedfunction
S_VA_FN.ASM(604): warning A4001: Extra characters on line
     626 0860  000021B7 R            C	 dd undefinedfunction
S_VA_FN.ASM(605): warning A4001: Extra characters on line
     627 0864  000021B7 R            C	 dd undefinedfunction
S_VA_FN.ASM(606): warning A4001: Extra characters on line
     628 0868  000021B7 R            C	 dd undefinedfunction
S_VA_FN.ASM(607): warning A4001: Extra characters on line
     629 086C  000021B7 R            C	 dd undefinedfunction
S_VA_FN.ASM(608): warning A4001: Extra characters on line
     630 0870  000021B7 R            C	 dd undefinedfunction
S_VA_FN.ASM(609): warning A4001: Extra characters on line
     631 0874  000021B7 R            C	 dd undefinedfunction
S_VA_FN.ASM(610): warning A4001: Extra characters on line
     632 0878  000021B7 R            C	 dd undefinedfunction
S_VA_FN.ASM(611): warning A4001: Extra characters on line
     633 087C  000021B7 R            C	 dd undefinedfunction
S_VA_FN.ASM(612): warning A4001: Extra characters on line
     634 0880  000021B7 R            C	 dd undefinedfunction
S_VA_FN.ASM(613): warning A4001: Extra characters on line
     635 0884  000021B7 R            C	 dd undefinedfunction
S_VA_FN.ASM(614): warning A4001: Extra characters on line
     636 0888  000021B7 R            C	 dd undefinedfunction
S_VA_FN.ASM(615): warning A4001: Extra characters on line
     637 088C  000021B7 R            C	 dd undefinedfunction
S_VA_FN.ASM(616): warning A4001: Extra characters on line
     638 0890  000021B7 R            C	 dd undefinedfunction
S_VA_FN.ASM(617): warning A4001: Extra characters on line
     639 0894  000021B7 R            C	 dd undefinedfunction
S_VA_FN.ASM(618): warning A4001: Extra characters on line
     640 0898  000021B7 R            C	 dd undefinedfunction
S_VA_FN.ASM(619): warning A4001: Extra characters on line
     641 089C  000021B7 R            C	 dd undefinedfunction
S_VA_FN.ASM(620): warning A4001: Extra characters on line
     642 08A0  000021B7 R            C	 dd undefinedfunction
S_VA_FN.ASM(621): warning A4001: Extra characters on line
     643 08A4  000021B7 R            C	 dd undefinedfunction
S_VA_FN.ASM(622): warning A4001: Extra characters on line
     644 08A8  000021B7 R            C	 dd undefinedfunction
S_VA_FN.ASM(623): warning A4001: Extra characters on line
     645 08AC  000021B7 R            C	 dd undefinedfunction
S_VA_FN.ASM(624): warning A4001: Extra characters on line
     646 08B0  000021B7 R            C	 dd undefinedfunction
S_VA_FN.ASM(625): warning A4001: Extra characters on line
     647 08B4  000021B7 R            C	 dd undefinedfunction
S_VA_FN.ASM(626): warning A4001: Extra characters on line
     648 08B8  000021B7 R            C	 dd undefinedfunction
S_VA_FN.ASM(627): warning A4001: Extra characters on line
     649 08BC  000021B7 R            C	 dd undefinedfunction
S_VA_FN.ASM(628): warning A4001: Extra characters on line
     650 08C0  000021B7 R            C	 dd undefinedfunction
S_VA_FN.ASM(629): warning A4001: Extra characters on line
     651 08C4  000021B7 R            C	 dd undefinedfunction
S_VA_FN.ASM(630): warning A4001: Extra characters on line
     652 08C8  000021B7 R            C	 dd undefinedfunction
S_VA_FN.ASM(631): warning A4001: Extra characters on line
     653 08CC  000021B7 R            C	 dd undefinedfunction
S_VA_FN.ASM(632): warning A4001: Extra characters on line
     654 08D0  000021B7 R            C	 dd undefinedfunction
S_VA_FN.ASM(633): warning A4001: Extra characters on line
     655 08D4  000021B7 R            C	 dd undefinedfunction
S_VA_FN.ASM(634): warning A4001: Extra characters on line
     656 08D8  000021B7 R            C	 dd undefinedfunction
S_VA_FN.ASM(635): warning A4001: Extra characters on line
     657 08DC  000021B7 R            C	 dd undefinedfunction
S_VA_FN.ASM(636): warning A4001: Extra characters on line
     658 08E0  000021B7 R            C	 dd undefinedfunction
S_VA_FN.ASM(637): warning A4001: Extra characters on line
     659 08E4  000021B7 R            C	 dd undefinedfunction
S_VA_FN.ASM(638): warning A4001: Extra characters on line
     660 08E8  000021B7 R            C	 dd undefinedfunction
S_VA_FN.ASM(639): warning A4001: Extra characters on line
     661 08EC  000021B7 R            C	 dd undefinedfunction
S_VA_FN.ASM(640): warning A4001: Extra characters on line
     662 08F0  000021B7 R            C	 dd undefinedfunction
S_VA_FN.ASM(641): warning A4001: Extra characters on line
     663 08F4  000021B7 R            C	 dd undefinedfunction
S_VA_FN.ASM(642): warning A4001: Extra characters on line
     664 08F8  000021B7 R            C	 dd undefinedfunction
S_VA_FN.ASM(643): warning A4001: Extra characters on line
     665 08FC  000021B7 R            C	 dd undefinedfunction
S_VA_FN.ASM(644): warning A4001: Extra characters on line
     666 0900  000021B7 R            C	 dd undefinedfunction
S_VA_FN.ASM(645): warning A4001: Extra characters on line
     667 0904  000021B7 R            C	 dd undefinedfunction
S_VA_FN.ASM(646): warning A4001: Extra characters on line
     668 0908  000021B7 R            C	 dd undefinedfunction
S_VA_FN.ASM(647): warning A4001: Extra characters on line
     669 090C  000021B7 R            C	 dd undefinedfunction
S_VA_FN.ASM(648): warning A4001: Extra characters on line
     670 0910  000021B7 R            C	 dd undefinedfunction
S_VA_FN.ASM(649): warning A4001: Extra characters on line
     671 0914  000021B7 R            C	 dd undefinedfunction
S_VA_FN.ASM(650): warning A4001: Extra characters on line
     672 0918  000021B7 R            C	 dd undefinedfunction
S_VA_FN.ASM(651): warning A4001: Extra characters on line
     673 091C  000021B7 R            C	 dd undefinedfunction
S_VA_FN.ASM(652): warning A4001: Extra characters on line
     674 0920  000021B7 R            C	 dd undefinedfunction
S_VA_FN.ASM(653): warning A4001: Extra characters on line
     675 0924  000021B7 R            C	 dd undefinedfunction
S_VA_FN.ASM(654): warning A4001: Extra characters on line
     676 0928  000021B7 R            C	 dd undefinedfunction
S_VA_FN.ASM(655): warning A4001: Extra characters on line
     677 092C  000021B7 R            C	 dd undefinedfunction
S_VA_FN.ASM(656): warning A4001: Extra characters on line
Microsoft (R) Macro Assembler Version 5.10                  11/16/97 16:56:0
                                                             Page     1-14


     678 0930  000021B7 R            C	 dd undefinedfunction
S_VA_FN.ASM(657): warning A4001: Extra characters on line
     679 0934  000021B7 R            C	 dd undefinedfunction
S_VA_FN.ASM(658): warning A4001: Extra characters on line
     680 0938  000021B7 R            C	 dd undefinedfunction
S_VA_FN.ASM(659): warning A4001: Extra characters on line
     681 093C  000021B7 R            C	 dd undefinedfunction
S_VA_FN.ASM(660): warning A4001: Extra characters on line
     682 0940  000021B7 R            C	 dd undefinedfunction
S_VA_FN.ASM(661): warning A4001: Extra characters on line
     683 0944  000021B7 R            C	 dd undefinedfunction
S_VA_FN.ASM(662): warning A4001: Extra characters on line
     684 0948  000021B7 R            C	 dd undefinedfunction
S_VA_FN.ASM(663): warning A4001: Extra characters on line
     685 094C  000021B7 R            C	 dd undefinedfunction
S_VA_FN.ASM(664): warning A4001: Extra characters on line
     686 0950  000021B7 R            C	 dd undefinedfunction
S_VA_FN.ASM(665): warning A4001: Extra characters on line
     687 0954  000021B7 R            C	 dd undefinedfunction
S_VA_FN.ASM(666): warning A4001: Extra characters on line
     688 0958  000021B7 R            C	 dd undefinedfunction
S_VA_FN.ASM(667): warning A4001: Extra characters on line
     689 095C  000021B7 R            C	 dd undefinedfunction
S_VA_FN.ASM(668): warning A4001: Extra characters on line
     690 0960  000021B7 R            C	 dd undefinedfunction
S_VA_FN.ASM(669): warning A4001: Extra characters on line
     691 0964  000021B7 R            C	 dd undefinedfunction
S_VA_FN.ASM(670): warning A4001: Extra characters on line
     692 0968  000021B7 R            C	 dd undefinedfunction
S_VA_FN.ASM(671): warning A4001: Extra characters on line
     693 096C  000021B7 R            C	 dd undefinedfunction
S_VA_FN.ASM(672): warning A4001: Extra characters on line
     694 0970  000021B7 R            C	 dd undefinedfunction
S_VA_FN.ASM(673): warning A4001: Extra characters on line
     695 0974  000021B7 R            C	 dd undefinedfunction
S_VA_FN.ASM(674): warning A4001: Extra characters on line
     696 0978  000021B7 R            C	 dd undefinedfunction
S_VA_FN.ASM(675): warning A4001: Extra characters on line
     697 097C  000021B7 R            C	 dd undefinedfunction
S_VA_FN.ASM(676): warning A4001: Extra characters on line
     698 0980  000021B7 R            C	 dd undefinedfunction
S_VA_FN.ASM(677): warning A4001: Extra characters on line
     699 0984  000021B7 R            C	 dd undefinedfunction
S_VA_FN.ASM(678): warning A4001: Extra characters on line
     700 0988  000021B7 R            C	 dd undefinedfunction
S_VA_FN.ASM(679): warning A4001: Extra characters on line
     701 098C  000021B7 R            C	 dd undefinedfunction
S_VA_FN.ASM(680): warning A4001: Extra characters on line
     702 0990  000021B7 R            C	 dd undefinedfunction
S_VA_FN.ASM(681): warning A4001: Extra characters on line
     703 0994  000021B7 R            C	 dd undefinedfunction
S_VA_FN.ASM(682): warning A4001: Extra characters on line
     704 0998  000021B7 R            C	 dd undefinedfunction
S_VA_FN.ASM(683): warning A4001: Extra characters on line
     705 099C  000021B7 R            C	 dd undefinedfunction
S_VA_FN.ASM(684): warning A4001: Extra characters on line
     706 09A0  000021B7 R            C	 dd undefinedfunction
S_VA_FN.ASM(685): warning A4001: Extra characters on line
     707 09A4  000021B7 R            C	 dd undefinedfunction
S_VA_FN.ASM(686): warning A4001: Extra characters on line
     708 09A8  000021B7 R            C	 dd undefinedfunction
S_VA_FN.ASM(687): warning A4001: Extra characters on line
     709 09AC  000021B7 R            C	 dd undefinedfunction
S_VA_FN.ASM(688): warning A4001: Extra characters on line
     710 09B0  000021B7 R            C	 dd undefinedfunction
S_VA_FN.ASM(689): warning A4001: Extra characters on line
     711 09B4  000021B7 R            C	 dd undefinedfunction
S_VA_FN.ASM(690): warning A4001: Extra characters on line
     712 09B8  000021B7 R            C	 dd undefinedfunction
S_VA_FN.ASM(691): warning A4001: Extra characters on line
     713 09BC  000021B7 R            C	 dd undefinedfunction
S_VA_FN.ASM(692): warning A4001: Extra characters on line
     714 09C0  000021B7 R            C	 dd undefinedfunction
S_VA_FN.ASM(693): warning A4001: Extra characters on line
     715 09C4  000021B7 R            C	 dd undefinedfunction
S_VA_FN.ASM(694): warning A4001: Extra characters on line
     716 09C8  000021B7 R            C	 dd undefinedfunction
S_VA_FN.ASM(695): warning A4001: Extra characters on line
     717 09CC  000021B7 R            C	 dd undefinedfunction
S_VA_FN.ASM(696): warning A4001: Extra characters on line
     718 09D0  000021B7 R            C	 dd undefinedfunction
S_VA_FN.ASM(697): warning A4001: Extra characters on line
     719 09D4  000021B7 R            C	 dd undefinedfunction
S_VA_FN.ASM(698): warning A4001: Extra characters on line
     720 09D8  000021B7 R            C	 dd undefinedfunction
S_VA_FN.ASM(699): warning A4001: Extra characters on line
     721 09DC  000021B7 R            C	 dd undefinedfunction
S_VA_FN.ASM(700): warning A4001: Extra characters on line
     722 09E0  000021B7 R            C	 dd undefinedfunction
S_VA_FN.ASM(701): warning A4001: Extra characters on line
     723 09E4  000021B7 R            C	 dd undefinedfunction
S_VA_FN.ASM(702): warning A4001: Extra characters on line
     724 09E8  000021B7 R            C	 dd undefinedfunction
S_VA_FN.ASM(703): warning A4001: Extra characters on line
     725 09EC  000021B7 R            C	 dd undefinedfunction
S_VA_FN.ASM(704): warning A4001: Extra characters on line
     726 09F0  000021B7 R            C	 dd undefinedfunction
S_VA_FN.ASM(705): warning A4001: Extra characters on line
     727 09F4  000021B7 R            C	 dd undefinedfunction
S_VA_FN.ASM(706): warning A4001: Extra characters on line
     728 09F8  000021B7 R            C	 dd undefinedfunction
S_VA_FN.ASM(707): warning A4001: Extra characters on line
     729 09FC  000021B7 R            C	 dd undefinedfunction
S_VA_FN.ASM(708): warning A4001: Extra characters on line
     730 0A00  000021B7 R            C	 dd undefinedfunction
S_VA_FN.ASM(709): warning A4001: Extra characters on line
     731 0A04  000021B7 R            C	 dd undefinedfunction
S_VA_FN.ASM(710): warning A4001: Extra characters on line
Microsoft (R) Macro Assembler Version 5.10                  11/16/97 16:56:0
                                                             Page     1-15


     732 0A08  000021B7 R            C	 dd undefinedfunction
S_VA_FN.ASM(711): warning A4001: Extra characters on line
     733 0A0C  000021B7 R            C	 dd undefinedfunction
S_VA_FN.ASM(712): warning A4001: Extra characters on line
     734 0A10  000021B7 R            C	 dd undefinedfunction
S_VA_FN.ASM(713): warning A4001: Extra characters on line
     735 0A14  000021B7 R            C	 dd undefinedfunction
S_VA_FN.ASM(714): warning A4001: Extra characters on line
     736 0A18  000021B7 R            C	 dd undefinedfunction
S_VA_FN.ASM(715): warning A4001: Extra characters on line
     737 0A1C  000021B7 R            C	 dd undefinedfunction
S_VA_FN.ASM(716): warning A4001: Extra characters on line
     738 0A20  000021B7 R            C	 dd undefinedfunction
S_VA_FN.ASM(717): warning A4001: Extra characters on line
     739 0A24  000021B7 R            C	 dd undefinedfunction
S_VA_FN.ASM(718): warning A4001: Extra characters on line
     740 0A28  000021B7 R            C	 dd undefinedfunction
S_VA_FN.ASM(719): warning A4001: Extra characters on line
     741 0A2C  000021B7 R            C	 dd undefinedfunction
S_VA_FN.ASM(720): warning A4001: Extra characters on line
     742 0A30  000021B7 R            C	 dd undefinedfunction
S_VA_FN.ASM(721): warning A4001: Extra characters on line
     743 0A34  000021B7 R            C	 dd undefinedfunction
S_VA_FN.ASM(722): warning A4001: Extra characters on line
     744 0A38  000021B7 R            C	 dd undefinedfunction
S_VA_FN.ASM(723): warning A4001: Extra characters on line
     745 0A3C  000021B7 R            C	 dd undefinedfunction
S_VA_FN.ASM(724): warning A4001: Extra characters on line
     746 0A40  000021B7 R            C	 dd undefinedfunction
S_VA_FN.ASM(725): warning A4001: Extra characters on line
     747 0A44  000021B7 R            C	 dd undefinedfunction
S_VA_FN.ASM(726): warning A4001: Extra characters on line
     748 0A48  000021B7 R            C	 dd undefinedfunction
S_VA_FN.ASM(727): warning A4001: Extra characters on line
     749 0A4C  000021B7 R            C	 dd undefinedfunction
S_VA_FN.ASM(728): warning A4001: Extra characters on line
     750 0A50  000021B7 R            C	 dd undefinedfunction
S_VA_FN.ASM(729): warning A4001: Extra characters on line
     751 0A54  000021B7 R            C	 dd undefinedfunction
S_VA_FN.ASM(730): warning A4001: Extra characters on line
     752 0A58  000021B7 R            C	 dd undefinedfunction
S_VA_FN.ASM(731): warning A4001: Extra characters on line
     753 0A5C  000021B7 R            C	 dd undefinedfunction
S_VA_FN.ASM(732): warning A4001: Extra characters on line
     754 0A60  000021B7 R            C	 dd undefinedfunction
S_VA_FN.ASM(733): warning A4001: Extra characters on line
     755 0A64  000021B7 R            C	 dd undefinedfunction
S_VA_FN.ASM(734): warning A4001: Extra characters on line
     756 0A68  000021B7 R            C	 dd undefinedfunction
S_VA_FN.ASM(735): warning A4001: Extra characters on line
     757 0A6C  000021B7 R            C	 dd undefinedfunction
S_VA_FN.ASM(736): warning A4001: Extra characters on line
     758 0A70  000021B7 R            C	 dd undefinedfunction
S_VA_FN.ASM(737): warning A4001: Extra characters on line
     759 0A74  000021B7 R            C	 dd undefinedfunction
S_VA_FN.ASM(738): warning A4001: Extra characters on line
     760 0A78  000021B7 R            C	 dd undefinedfunction
S_VA_FN.ASM(739): warning A4001: Extra characters on line
     761 0A7C  000021B7 R            C	 dd undefinedfunction
S_VA_FN.ASM(740): warning A4001: Extra characters on line
     762 0A80  000021B7 R            C	 dd undefinedfunction
S_VA_FN.ASM(741): warning A4001: Extra characters on line
     763 0A84  000021B7 R            C	 dd undefinedfunction
S_VA_FN.ASM(742): warning A4001: Extra characters on line
     764 0A88  000021B7 R            C	 dd undefinedfunction
S_VA_FN.ASM(743): warning A4001: Extra characters on line
     765 0A8C  000021B7 R            C	 dd undefinedfunction
S_VA_FN.ASM(744): warning A4001: Extra characters on line
     766 0A90  000021B7 R            C	 dd undefinedfunction
S_VA_FN.ASM(745): warning A4001: Extra characters on line
     767 0A94  000021B7 R            C	 dd undefinedfunction
S_VA_FN.ASM(746): warning A4001: Extra characters on line
     768 0A98  000021B7 R            C	 dd undefinedfunction
S_VA_FN.ASM(747): warning A4001: Extra characters on line
     769 0A9C  000021B7 R            C	 dd undefinedfunction
S_VA_FN.ASM(748): warning A4001: Extra characters on line
     770 0AA0  000021B7 R            C	 dd undefinedfunction
S_VA_FN.ASM(749): warning A4001: Extra characters on line
     771 0AA4  000021B7 R            C	 dd undefinedfunction
S_VA_FN.ASM(750): warning A4001: Extra characters on line
     772 0AA8  000021B7 R            C	 dd undefinedfunction
S_VA_FN.ASM(751): warning A4001: Extra characters on line
     773 0AAC  000021B7 R            C	 dd undefinedfunction
S_VA_FN.ASM(752): warning A4001: Extra characters on line
     774 0AB0  000021B7 R            C	 dd undefinedfunction
S_VA_FN.ASM(753): warning A4001: Extra characters on line
     775 0AB4  000021B7 R            C	 dd undefinedfunction
S_VA_FN.ASM(754): warning A4001: Extra characters on line
     776 0AB8  000021B7 R            C	 dd undefinedfunction
S_VA_FN.ASM(755): warning A4001: Extra characters on line
     777 0ABC  000021B7 R            C	 dd undefinedfunction
S_VA_FN.ASM(756): warning A4001: Extra characters on line
     778 0AC0  000021B7 R            C	 dd undefinedfunction
S_VA_FN.ASM(757): warning A4001: Extra characters on line
     779 0AC4  000021B7 R            C	 dd undefinedfunction
S_VA_FN.ASM(758): warning A4001: Extra characters on line
     780 0AC8  000021B7 R            C	 dd undefinedfunction
S_VA_FN.ASM(759): warning A4001: Extra characters on line
     781 0ACC  000021B7 R            C	 dd undefinedfunction
S_VA_FN.ASM(760): warning A4001: Extra characters on line
     782 0AD0  000021B7 R            C	 dd undefinedfunction
S_VA_FN.ASM(761): warning A4001: Extra characters on line
     783 0AD4  000021B7 R            C	 dd undefinedfunction
S_VA_FN.ASM(762): warning A4001: Extra characters on line
     784 0AD8  000021B7 R            C	 dd undefinedfunction
S_VA_FN.ASM(763): warning A4001: Extra characters on line
     785 0ADC  000021B7 R            C	 dd undefinedfunction
S_VA_FN.ASM(764): warning A4001: Extra characters on line
Microsoft (R) Macro Assembler Version 5.10                  11/16/97 16:56:0
                                                             Page     1-16


     786 0AE0  000021B7 R            C	 dd undefinedfunction
S_VA_FN.ASM(765): warning A4001: Extra characters on line
     787 0AE4  000021B7 R            C	 dd undefinedfunction
S_VA_FN.ASM(766): warning A4001: Extra characters on line
     788 0AE8  000021B7 R            C	 dd undefinedfunction
S_VA_FN.ASM(767): warning A4001: Extra characters on line
     789 0AEC  000021B7 R            C	 dd undefinedfunction
S_VA_FN.ASM(768): warning A4001: Extra characters on line
     790 0AF0  000021B7 R            C	 dd undefinedfunction
S_VA_FN.ASM(769): warning A4001: Extra characters on line
     791 0AF4  000021B7 R            C	 dd undefinedfunction
S_VA_FN.ASM(770): warning A4001: Extra characters on line
     792 0AF8  000021B7 R            C	 dd undefinedfunction
S_VA_FN.ASM(771): warning A4001: Extra characters on line
     793 0AFC  000021B7 R            C	 dd undefinedfunction
S_VA_FN.ASM(772): warning A4001: Extra characters on line
     794 0B00  000021B7 R            C	 dd undefinedfunction
S_VA_FN.ASM(773): warning A4001: Extra characters on line
     795 0B04  000021B7 R            C	 dd undefinedfunction
S_VA_FN.ASM(774): warning A4001: Extra characters on line
     796 0B08  000021B7 R            C	 dd undefinedfunction
S_VA_FN.ASM(775): warning A4001: Extra characters on line
     797 0B0C  000021B7 R            C	 dd undefinedfunction
S_VA_FN.ASM(776): warning A4001: Extra characters on line
     798 0B10  000021B7 R            C	 dd undefinedfunction
S_VA_FN.ASM(777): warning A4001: Extra characters on line
     799 0B14  000021B7 R            C	 dd undefinedfunction
S_VA_FN.ASM(778): warning A4001: Extra characters on line
     800 0B18  000021B7 R            C	 dd undefinedfunction
S_VA_FN.ASM(779): warning A4001: Extra characters on line
     801 0B1C  000021B7 R            C	 dd undefinedfunction
S_VA_FN.ASM(780): warning A4001: Extra characters on line
     802 0B20  000021B7 R            C	 dd undefinedfunction
S_VA_FN.ASM(781): warning A4001: Extra characters on line
     803 0B24  000021B7 R            C	 dd undefinedfunction
S_VA_FN.ASM(782): warning A4001: Extra characters on line
     804 0B28  000021B7 R            C	 dd undefinedfunction
S_VA_FN.ASM(783): warning A4001: Extra characters on line
     805 0B2C  000021B7 R            C	 dd undefinedfunction
S_VA_FN.ASM(784): warning A4001: Extra characters on line
     806 0B30  000021B7 R            C	 dd undefinedfunction
S_VA_FN.ASM(785): warning A4001: Extra characters on line
     807 0B34  000021B7 R            C	 dd undefinedfunction
S_VA_FN.ASM(786): warning A4001: Extra characters on line
     808 0B38  000021B7 R            C	 dd undefinedfunction
S_VA_FN.ASM(787): warning A4001: Extra characters on line
     809 0B3C  000021B7 R            C	 dd undefinedfunction
S_VA_FN.ASM(788): warning A4001: Extra characters on line
     810 0B40  000021B7 R            C	 dd undefinedfunction
S_VA_FN.ASM(789): warning A4001: Extra characters on line
     811 0B44  000021B7 R            C	 dd undefinedfunction
S_VA_FN.ASM(790): warning A4001: Extra characters on line
     812 0B48  000021B7 R            C	 dd undefinedfunction
S_VA_FN.ASM(791): warning A4001: Extra characters on line
     813 0B4C  000021B7 R            C	 dd undefinedfunction
S_VA_FN.ASM(792): warning A4001: Extra characters on line
     814 0B50  000021B7 R            C	 dd undefinedfunction
S_VA_FN.ASM(793): warning A4001: Extra characters on line
     815 0B54  000021B7 R            C	 dd undefinedfunction
S_VA_FN.ASM(794): warning A4001: Extra characters on line
     816 0B58  000021B7 R            C	 dd undefinedfunction
S_VA_FN.ASM(795): warning A4001: Extra characters on line
     817 0B5C  000021B7 R            C	 dd undefinedfunction
S_VA_FN.ASM(796): warning A4001: Extra characters on line
     818 0B60  000021B7 R            C	 dd undefinedfunction
S_VA_FN.ASM(797): warning A4001: Extra characters on line
     819 0B64  000021B7 R            C	 dd undefinedfunction
S_VA_FN.ASM(798): warning A4001: Extra characters on line
     820 0B68  000021B7 R            C	 dd undefinedfunction
S_VA_FN.ASM(799): warning A4001: Extra characters on line
     821 0B6C  000021B7 R            C	 dd undefinedfunction
S_VA_FN.ASM(800): warning A4001: Extra characters on line
     822 0B70  000021B7 R            C	 dd undefinedfunction
S_VA_FN.ASM(801): warning A4001: Extra characters on line
     823 0B74  000021B7 R            C	 dd undefinedfunction
S_VA_FN.ASM(802): warning A4001: Extra characters on line
     824 0B78  000021B7 R            C	 dd undefinedfunction
S_VA_FN.ASM(803): warning A4001: Extra characters on line
     825 0B7C  000021B7 R            C	 dd undefinedfunction
S_VA_FN.ASM(804): warning A4001: Extra characters on line
     826 0B80  000021B7 R            C	 dd undefinedfunction
S_VA_FN.ASM(805): warning A4001: Extra characters on line
     827 0B84  000021B7 R            C	 dd undefinedfunction
S_VA_FN.ASM(806): warning A4001: Extra characters on line
     828 0B88  000021B7 R            C	 dd undefinedfunction
S_VA_FN.ASM(807): warning A4001: Extra characters on line
     829 0B8C  000021B7 R            C	 dd undefinedfunction
S_VA_FN.ASM(808): warning A4001: Extra characters on line
     830 0B90  000021B7 R            C	 dd undefinedfunction
S_VA_FN.ASM(809): warning A4001: Extra characters on line
     831 0B94  000021B7 R            C	 dd undefinedfunction
S_VA_FN.ASM(810): warning A4001: Extra characters on line
     832 0B98  000021B7 R            C	 dd undefinedfunction
S_VA_FN.ASM(811): warning A4001: Extra characters on line
     833 0B9C  000021B7 R            C	 dd undefinedfunction
S_VA_FN.ASM(812): warning A4001: Extra characters on line
     834 0BA0  000021B7 R            C	 dd undefinedfunction
S_VA_FN.ASM(813): warning A4001: Extra characters on line
     835 0BA4  000021B7 R            C	 dd undefinedfunction
S_VA_FN.ASM(814): warning A4001: Extra characters on line
     836 0BA8  000021B7 R            C	 dd undefinedfunction
S_VA_FN.ASM(815): warning A4001: Extra characters on line
     837 0BAC  000021B7 R            C	 dd undefinedfunction
S_VA_FN.ASM(816): warning A4001: Extra characters on line
     838 0BB0  000021B7 R            C	 dd undefinedfunction
S_VA_FN.ASM(817): warning A4001: Extra characters on line
     839 0BB4  000021B7 R            C	 dd undefinedfunction
S_VA_FN.ASM(818): warning A4001: Extra characters on line
Microsoft (R) Macro Assembler Version 5.10                  11/16/97 16:56:0
                                                             Page     1-17


     840 0BB8  000021B7 R            C	 dd undefinedfunction
S_VA_FN.ASM(819): warning A4001: Extra characters on line
     841 0BBC  000021B7 R            C	 dd undefinedfunction
S_VA_FN.ASM(820): warning A4001: Extra characters on line
     842 0BC0  000021B7 R            C	 dd undefinedfunction
S_VA_FN.ASM(821): warning A4001: Extra characters on line
     843 0BC4  000021B7 R            C	 dd undefinedfunction
S_VA_FN.ASM(822): warning A4001: Extra characters on line
     844 0BC8  000021B7 R            C	 dd undefinedfunction
S_VA_FN.ASM(823): warning A4001: Extra characters on line
     845 0BCC  00000004 R            C	 DD firstkernel
     846 0BD0  000021B7 R            C	 dd undefinedfunction
S_VA_FN.ASM(825): warning A4001: Extra characters on line
     847 0BD4  000021B7 R            C	 dd undefinedfunction
S_VA_FN.ASM(826): warning A4001: Extra characters on line
     848 0BD8  000021B7 R            C	 dd undefinedfunction
S_VA_FN.ASM(827): warning A4001: Extra characters on line
     849 0BDC  000021B7 R            C	 dd undefinedfunction
S_VA_FN.ASM(828): warning A4001: Extra characters on line
     850 0BE0  000021B7 R            C	 dd undefinedfunction
S_VA_FN.ASM(829): warning A4001: Extra characters on line
     851 0BE4  000021B7 R            C	 dd undefinedfunction
S_VA_FN.ASM(830): warning A4001: Extra characters on line
     852 0BE8  000021B7 R            C	 dd undefinedfunction
S_VA_FN.ASM(831): warning A4001: Extra characters on line
     853 0BEC  000021B7 R            C	 dd undefinedfunction
S_VA_FN.ASM(832): warning A4001: Extra characters on line
     854 0BF0  000021B7 R            C	 dd undefinedfunction
S_VA_FN.ASM(833): warning A4001: Extra characters on line
     855 0BF4  00000009 R            C	 DD l0001
     856 0BF8  000021B7 R            C	 dd undefinedfunction
S_VA_FN.ASM(835): warning A4001: Extra characters on line
     857 0BFC  000021B7 R            C	 dd undefinedfunction
S_VA_FN.ASM(836): warning A4001: Extra characters on line
     858 0C00  000021B7 R            C	 dd undefinedfunction
S_VA_FN.ASM(837): warning A4001: Extra characters on line
     859 0C04  000021B7 R            C	 dd undefinedfunction
S_VA_FN.ASM(838): warning A4001: Extra characters on line
     860 0C08  000021B7 R            C	 dd undefinedfunction
S_VA_FN.ASM(839): warning A4001: Extra characters on line
     861 0C0C  000021B7 R            C	 dd undefinedfunction
S_VA_FN.ASM(840): warning A4001: Extra characters on line
     862 0C10  000021B7 R            C	 dd undefinedfunction
S_VA_FN.ASM(841): warning A4001: Extra characters on line
     863 0C14  000021B7 R            C	 dd undefinedfunction
S_VA_FN.ASM(842): warning A4001: Extra characters on line
     864 0C18  000021B7 R            C	 dd undefinedfunction
S_VA_FN.ASM(843): warning A4001: Extra characters on line
     865 0C1C  000021B7 R            C	 dd undefinedfunction
S_VA_FN.ASM(844): warning A4001: Extra characters on line
     866 0C20  000021B7 R            C	 dd undefinedfunction
S_VA_FN.ASM(845): warning A4001: Extra characters on line
     867 0C24  000021B7 R            C	 dd undefinedfunction
S_VA_FN.ASM(846): warning A4001: Extra characters on line
     868 0C28  00000085 R            C	 DD l0002
     869 0C2C  000021B7 R            C	 dd undefinedfunction
S_VA_FN.ASM(848): warning A4001: Extra characters on line
     870 0C30  000021B7 R            C	 dd undefinedfunction
S_VA_FN.ASM(849): warning A4001: Extra characters on line
     871 0C34  000021B7 R            C	 dd undefinedfunction
S_VA_FN.ASM(850): warning A4001: Extra characters on line
     872 0C38  000021B7 R            C	 dd undefinedfunction
S_VA_FN.ASM(851): warning A4001: Extra characters on line
     873 0C3C  000021B7 R            C	 dd undefinedfunction
S_VA_FN.ASM(852): warning A4001: Extra characters on line
     874 0C40  000021B7 R            C	 dd undefinedfunction
S_VA_FN.ASM(853): warning A4001: Extra characters on line
     875 0C44  000021B7 R            C	 dd undefinedfunction
S_VA_FN.ASM(854): warning A4001: Extra characters on line
     876 0C48  000021B7 R            C	 dd undefinedfunction
S_VA_FN.ASM(855): warning A4001: Extra characters on line
     877 0C4C  000021B7 R            C	 dd undefinedfunction
S_VA_FN.ASM(856): warning A4001: Extra characters on line
     878 0C50  000021B7 R            C	 dd undefinedfunction
S_VA_FN.ASM(857): warning A4001: Extra characters on line
     879 0C54  000021B7 R            C	 dd undefinedfunction
S_VA_FN.ASM(858): warning A4001: Extra characters on line
     880 0C58  000021B7 R            C	 dd undefinedfunction
S_VA_FN.ASM(859): warning A4001: Extra characters on line
     881 0C5C  000021B7 R            C	 dd undefinedfunction
S_VA_FN.ASM(860): warning A4001: Extra characters on line
     882 0C60  000021B7 R            C	 dd undefinedfunction
S_VA_FN.ASM(861): warning A4001: Extra characters on line
     883 0C64  000021B7 R            C	 dd undefinedfunction
S_VA_FN.ASM(862): warning A4001: Extra characters on line
     884 0C68  000021B7 R            C	 dd undefinedfunction
S_VA_FN.ASM(863): warning A4001: Extra characters on line
     885 0C6C  000021B7 R            C	 dd undefinedfunction
S_VA_FN.ASM(864): warning A4001: Extra characters on line
     886 0C70  000021B7 R            C	 dd undefinedfunction
S_VA_FN.ASM(865): warning A4001: Extra characters on line
     887 0C74  000021B7 R            C	 dd undefinedfunction
S_VA_FN.ASM(866): warning A4001: Extra characters on line
     888 0C78  000021B7 R            C	 dd undefinedfunction
S_VA_FN.ASM(867): warning A4001: Extra characters on line
     889 0C7C  000021B7 R            C	 dd undefinedfunction
S_VA_FN.ASM(868): warning A4001: Extra characters on line
     890 0C80  000021B7 R            C	 dd undefinedfunction
S_VA_FN.ASM(869): warning A4001: Extra characters on line
     891 0C84  000021B7 R            C	 dd undefinedfunction
S_VA_FN.ASM(870): warning A4001: Extra characters on line
     892 0C88  000021B7 R            C	 dd undefinedfunction
S_VA_FN.ASM(871): warning A4001: Extra characters on line
     893 0C8C  0000010C R            C	 DD l0003
Microsoft (R) Macro Assembler Version 5.10                  11/16/97 16:56:0
                                                             Page     1-18


     894 0C90  000021B7 R            C	 dd undefinedfunction
S_VA_FN.ASM(873): warning A4001: Extra characters on line
     895 0C94  000021B7 R            C	 dd undefinedfunction
S_VA_FN.ASM(874): warning A4001: Extra characters on line
     896 0C98  000021B7 R            C	 dd undefinedfunction
S_VA_FN.ASM(875): warning A4001: Extra characters on line
     897 0C9C  000021B7 R            C	 dd undefinedfunction
S_VA_FN.ASM(876): warning A4001: Extra characters on line
     898 0CA0  000021B7 R            C	 dd undefinedfunction
S_VA_FN.ASM(877): warning A4001: Extra characters on line
     899 0CA4  000021B7 R            C	 dd undefinedfunction
S_VA_FN.ASM(878): warning A4001: Extra characters on line
     900 0CA8  000021B7 R            C	 dd undefinedfunction
S_VA_FN.ASM(879): warning A4001: Extra characters on line
     901 0CAC  000021B7 R            C	 dd undefinedfunction
S_VA_FN.ASM(880): warning A4001: Extra characters on line
     902 0CB0  000021B7 R            C	 dd undefinedfunction
S_VA_FN.ASM(881): warning A4001: Extra characters on line
     903 0CB4  000021B7 R            C	 dd undefinedfunction
S_VA_FN.ASM(882): warning A4001: Extra characters on line
     904 0CB8  0000024C R            C	 DD l0007
     905 0CBC  000021B7 R            C	 dd undefinedfunction
S_VA_FN.ASM(884): warning A4001: Extra characters on line
     906 0CC0  00000174 R            C	 DD l0004
     907 0CC4  00001B4E R            C	 DD l0169
     908 0CC8  00000364 R            C	 DD l0014
     909 0CCC  0000039A R            C	 DD l0017
     910 0CD0  00000328 R            C	 DD l0012
     911 0CD4  00001EE6 R            C	 DD l0227
     912 0CD8  0000028F R            C	 DD _psl_main
     913 0CDC  000021B7 R            C	 dd undefinedfunction
S_VA_FN.ASM(892): warning A4001: Extra characters on line
     914 0CE0  000021B7 R            C	 dd undefinedfunction
S_VA_FN.ASM(893): warning A4001: Extra characters on line
     915 0CE4  000021B7 R            C	 dd undefinedfunction
S_VA_FN.ASM(894): warning A4001: Extra characters on line
     916 0CE8  0000035A R            C	 DD l0013
     917 0CEC  00000338 R            C	 DD _psl_call
     918 0CF0  00000509 R            C	 DD l0028
     919 0CF4  0000236D R            C	 DD initcode
     920 0CF8  00000428 R            C	 DD l0022
     921 0CFC  0000044E R            C	 DD l0024
     922 0D00  00000AD1 R            C	 DD faslin
     923 0D04  000021B7 R            C	 dd undefinedfunction
S_VA_FN.ASM(902): warning A4001: Extra characters on line
     924 0D08  000003EA R            C	 DD external_strlen
     925 0D0C  0000041E R            C	 DD l0021
     926 0D10  00001D89 R            C	 DD l0207
     927 0D14  00001D97 R            C	 DD l0208
     928 0D18  0000043F R            C	 DD l0023
     929 0D1C  00001D7B R            C	 DD l0206
     930 0D20  00001DC0 R            C	 DD l0211
     931 0D24  0000224F R            C	 DD l0257
     932 0D28  00000492 R            C	 DD binaryopenread
     933 0D2C  00001F2F R            C	 DD l0232
     934 0D30  000004D1 R            C	 DD binaryread
     935 0D34  00001FD6 R            C	 DD fread
     936 0D38  000004E0 R            C	 DD binaryreadblock
     937 0D3C  00001F03 R            C	 DD l0229
     938 0D40  000004FA R            C	 DD binaryclose
     939 0D44  00000876 R            C	 DD l0047
     940 0D48  000021B7 R            C	 dd undefinedfunction
S_VA_FN.ASM(919): warning A4001: Extra characters on line
     941 0D4C  000015B1 R            C	 DD l0122
     942 0D50  000006EA R            C	 DD intern
     943 0D54  000014C8 R            C	 DD subseq
     944 0D58  00000612 R            C	 DD l0035
     945 0D5C  00000707 R            C	 DD l0041
     946 0D60  000013E3 R            C	 DD gtid
     947 0D64  00001461 R            C	 DD gtconststr
Microsoft (R) Macro Assembler Version 5.10                  11/16/97 16:56:0
                                                             Page     1-19


     948 0D68  000016E0 R            C	 DD copystringtofrom
     949 0D6C  000009AB R            C	 DD l0057
     950 0D70  00000A1B R            C	 DD l0060
     951 0D74  00001625 R            C	 DD l0127
     952 0D78  00002030 R            C	 DD plantunbound
     953 0D7C  000011F5 R            C	 DD l0102
     954 0D80  000010B8 R            C	 DD l0098
     955 0D84  00001238 R            C	 DD gtbps
     956 0D88  00001435 R            C	 DD gtwrds
     957 0D8C  00000DF3 R            C	 DD l0076
     958 0D90  00000CF6 R            C	 DD l0068
     959 0D94  00002173 R            C	 DD l0251
     960 0D98  00000CEC R            C	 DD delbps
     961 0D9C  000021B7 R            C	 dd undefinedfunction
S_VA_FN.ASM(940): warning A4001: Extra characters on line
     962 0DA0  00000EF2 R            C	 DD l0083
     963 0DA4  00000F35 R            C	 DD l0084
     964 0DA8  000021B7 R            C	 dd undefinedfunction
S_VA_FN.ASM(943): warning A4001: Extra characters on line
     965 0DAC  00000F8B R            C	 DD l0085
     966 0DB0  0000109F R            C	 DD l0097
     967 0DB4  00001095 R            C	 DD l0096
     968 0DB8  000018E0 R            C	 DD putd
     969 0DBC  000011B8 R            C	 DD putentry
     970 0DC0  00001326 R            C	 DD l0110
     971 0DC4  000021B7 R            C	 dd undefinedfunction
S_VA_FN.ASM(950): warning A4001: Extra characters on line
     972 0DC8  000021B7 R            C	 dd undefinedfunction
S_VA_FN.ASM(951): warning A4001: Extra characters on line
     973 0DCC  00001A72 R            C	 DD stderror
     974 0DD0  000021B7 R            C	 dd undefinedfunction
S_VA_FN.ASM(953): warning A4001: Extra characters on line
     975 0DD4  0000135F R            C	 DD l0112
     976 0DD8  0000133A R            C	 DD gtheap
     977 0DDC  000013B7 R            C	 DD l0115
     978 0DE0  000021B7 R            C	 dd undefinedfunction
S_VA_FN.ASM(957): warning A4001: Extra characters on line
     979 0DE4  000021B7 R            C	 dd undefinedfunction
S_VA_FN.ASM(958): warning A4001: Extra characters on line
     980 0DE8  00001771 R            C	 DD cons
     981 0DEC  000017A5 R            C	 DD interrogate
     982 0DF0  000017B5 R            C	 DD modify
     983 0DF4  000017D6 R            C	 DD l0136
     984 0DF8  000017C7 R            C	 DD put
     985 0DFC  000018CB R            C	 DD l0143
     986 0E00  00001869 R            C	 DD atsoc
     987 0E04  000018B4 R            C	 DD l0142
     988 0E08  0000190F R            C	 DD l0145
     989 0E0C  0000209F R            C	 DD plantcodepointer
     990 0E10  000021B7 R            C	 dd undefinedfunction
S_VA_FN.ASM(969): warning A4001: Extra characters on line
     991 0E14  000021B7 R            C	 dd undefinedfunction
S_VA_FN.ASM(970): warning A4001: Extra characters on line
     992 0E18  00001A59 R            C	 DD l0156
     993 0E1C  000019AF R            C	 DD fluid
     994 0E20  000021B7 R            C	 dd undefinedfunction
S_VA_FN.ASM(973): warning A4001: Extra characters on line
     995 0E24  000021B7 R            C	 dd undefinedfunction
S_VA_FN.ASM(974): warning A4001: Extra characters on line
     996 0E28  00001A81 R            C	 DD l0157
     997 0E2C  000021B7 R            C	 dd undefinedfunction
S_VA_FN.ASM(976): warning A4001: Extra characters on line
     998 0E30  00001AAD R            C	 DD l0158
     999 0E34  00001AD3 R            C	 DD l0160
    1000 0E38  00001AE0 R            C	 DD l0161
    1001 0E3C  00001AED R            C	 DD l0162
Microsoft (R) Macro Assembler Version 5.10                  11/16/97 16:56:0
                                                             Page     1-20


    1002 0E40  00001AFA R            C	 DD l0163
    1003 0E44  00001B08 R            C	 DD l0164
    1004 0E48  00001B15 R            C	 DD l0165
    1005 0E4C  00001B22 R            C	 DD l0166
    1006 0E50  00001B30 R            C	 DD l0167
    1007 0E54  00001B3E R            C	 DD l0168
    1008 0E58  00001B5D R            C	 DD l0170
    1009 0E5C  00001B6A R            C	 DD l0171
    1010 0E60  00001B78 R            C	 DD l0172
    1011 0E64  00001B87 R            C	 DD l0173
    1012 0E68  00001B95 R            C	 DD l0174
    1013 0E6C  00001BA3 R            C	 DD l0175
    1014 0E70  00001BB2 R            C	 DD l0176
    1015 0E74  00001BC1 R            C	 DD l0177
    1016 0E78  00001BCF R            C	 DD l0178
    1017 0E7C  00001BDE R            C	 DD l0179
    1018 0E80  00001BEC R            C	 DD l0180
    1019 0E84  00001BFB R            C	 DD l0181
    1020 0E88  00001C09 R            C	 DD l0182
    1021 0E8C  00001C18 R            C	 DD l0183
    1022 0E90  00001C28 R            C	 DD l0184
    1023 0E94  00001C38 R            C	 DD l0185
    1024 0E98  00001C48 R            C	 DD l0186
    1025 0E9C  00001C58 R            C	 DD l0187
    1026 0EA0  00001C69 R            C	 DD l0188
    1027 0EA4  00001C7A R            C	 DD l0189
    1028 0EA8  00001C8A R            C	 DD l0190
    1029 0EAC  00001C99 R            C	 DD l0191
    1030 0EB0  00001CA8 R            C	 DD l0192
    1031 0EB4  00001CB7 R            C	 DD l0193
    1032 0EB8  00001CC6 R            C	 DD l0194
    1033 0EBC  00001CD5 R            C	 DD l0195
    1034 0EC0  00001CE4 R            C	 DD l0196
    1035 0EC4  00001CF3 R            C	 DD l0197
    1036 0EC8  00001D02 R            C	 DD l0198
    1037 0ECC  00001D11 R            C	 DD l0199
    1038 0ED0  00001D20 R            C	 DD l0200
    1039 0ED4  00001D2F R            C	 DD l0201
    1040 0ED8  00001D3F R            C	 DD l0202
    1041 0EDC  00001D4C R            C	 DD l0203
    1042 0EE0  00001D5B R            C	 DD l0204
    1043 0EE4  00001D6A R            C	 DD l0205
    1044 0EE8  00001DA5 R            C	 DD l0209
    1045 0EEC  00001DB2 R            C	 DD l0210
    1046 0EF0  00001DCF R            C	 DD l0212
    1047 0EF4  00001DDD R            C	 DD l0213
    1048 0EF8  00001E06 R            C	 DD l0215
    1049 0EFC  00001E2D R            C	 DD l0217
    1050 0F00  00001E53 R            C	 DD l0219
    1051 0F04  00001E7B R            C	 DD l0221
    1052 0F08  00001EA4 R            C	 DD l0223
    1053 0F0C  00001ECA R            C	 DD l0225
    1054 0F10  00001ED8 R            C	 DD l0226
    1055 0F14  00001EF4 R            C	 DD l0228
Microsoft (R) Macro Assembler Version 5.10                  11/16/97 16:56:0
                                                             Page     1-21


    1056 0F18  00001F11 R            C	 DD l0230
    1057 0F1C  00001F21 R            C	 DD l0231
    1058 0F20  00001F3D R            C	 DD l0233
    1059 0F24  00001F4C R            C	 DD l0234
    1060 0F28  00001F5B R            C	 DD l0235
    1061 0F2C  00001F69 R            C	 DD l0236
    1062 0F30  00001F79 R            C	 DD l0237
    1063 0F34  00001F8A R            C	 DD l0238
    1064 0F38  00001F98 R            C	 DD l0239
    1065 0F3C  00001FA9 R            C	 DD l0240
    1066 0F40  00001FB6 R            C	 DD l0241
    1067 0F44  00001FC7 R            C	 DD l0242
    1068 0F48  00001FE5 R            C	 DD fputc
    1069 0F4C  00001FF4 R            C	 DD fgetc
    1070 0F50  00002003 R            C	 DD fgets
    1071 0F54  00002012 R            C	 DD fwrite
    1072 0F58  00002021 R            C	 DD fflush
    1073 0F5C  00002081 R            C	 DD l0244
    1074 0F60  000020F5 R            C	 DD l0247
    1075 0F64  00002155 R            C	 DD l0249
    1076 0F68  00002104 R            C	 DD plantlambdalink
    1077 0F6C  00002179 R            C	 DD bittable
    1078 0F70  000021B7 R            C	 DD undefinedfunction
    1079 0F74  000021E1 R            C	 DD l0255
    1080 0F78  000021B7 R            C	 dd undefinedfunction
S_VA_FN.ASM(1059): warning A4001: Extra characters on line
    1081 0F7C  0000221C R            C	 DD compiledcallinginterpreted
    1082 0F80  000021B7 R            C	 dd undefinedfunction
S_VA_FN.ASM(1061): warning A4001: Extra characters on line
    1083 0F84  000021B7 R            C	 dd undefinedfunction
S_VA_FN.ASM(1062): warning A4001: Extra characters on line
    1084 0F88  00002368 R            C	 DD lastkernel
    1085 0F8C  00002292 R            C	 DD codeaddressp
    1086 0F90				_DATA    ends
    1087				
    1088 0000				_BSS     segment dword public 'BSS'
    1089 0000				_BSS     ends
    1090				
    1091 0000				_TEXT    segment dword public 'CODE'
    1092				         assume  CS:_TEXT
    1093				         assume  DS:DGROUP
    1094 0000  00000001			 DD 1
    1095				; (*entry firstkernel expr 1)
    1096				 PUBLIC firstkernel
    1097 0004				firstkernel:
    1098 0004  C3			 ret 
main.ASM(19): warning A4001: Extra characters on line
    1099 0005  00000000			 DD 0
    1100				; (*entry init-pointers expr 0)
    1101				 PUBLIC l0001
    1102 0009				l0001:
    1103 0009  C7 05 00000434 R 0000	 mov ds:symval+1068,0
    1104       0000			
main.ASM(24): warning A4001: Extra characters on line
    1105 0013  C7 05 00000438 R 0000	 mov ds:symval+1072,0
    1106       0000			
main.ASM(25): warning A4001: Extra characters on line
    1107 001D  C7 05 0000043C R 0000	 mov ds:symval+1076,0
    1108       0000			
main.ASM(26): warning A4001: Extra characters on line
    1109 0027  C7 05 00000440 R 0000	 mov ds:symval+1080,0
Microsoft (R) Macro Assembler Version 5.10                  11/16/97 16:56:0
                                                             Page     1-22


    1110       0000			
main.ASM(27): warning A4001: Extra characters on line
    1111 0031  B8 FFFFB1E0		 mov eax,-20000
main.ASM(28): warning A4001: Extra characters on line
    1112 0036  03 05 00000444 R		 add eax,symval+1084
main.ASM(29): warning A4001: Extra characters on line
    1113 003C  A3 00000448 R		 mov ds:symval+1088,eax
main.ASM(30): warning A4001: Extra characters on line
    1114 0041  8B 3D 00000418 R		 mov edi,symval+1040
main.ASM(31): warning A4001: Extra characters on line
    1115 0047  89 3D 0000044C R		 mov ds:symval+1092,edi
main.ASM(32): warning A4001: Extra characters on line
    1116 004D  8B 3D 00000414 R		 mov edi,symval+1036
main.ASM(33): warning A4001: Extra characters on line
    1117 0053  89 3D 00000450 R		 mov ds:symval+1096,edi
main.ASM(34): warning A4001: Extra characters on line
    1118 0059  BB 00001F3C		 mov ebx,7996
main.ASM(35): warning A4001: Extra characters on line
    1119 005E  03 1D 00000414 R		 add ebx,symval+1036
main.ASM(36): warning A4001: Extra characters on line
    1120 0064  89 1D 00000454 R		 mov ds:symval+1100,ebx
main.ASM(37): warning A4001: Extra characters on line
    1121 006A  8B 3D 00000414 R		 mov edi,symval+1036
main.ASM(38): warning A4001: Extra characters on line
    1122 0070  89 3D 00000458 R		 mov ds:symval+1104,edi
main.ASM(39): warning A4001: Extra characters on line
    1123 0076  A1 0000045C R		 mov eax,symval+1108
main.ASM(40): warning A4001: Extra characters on line
    1124 007B  A3 00000460 R		 mov ds:symval+1112,eax
main.ASM(41): warning A4001: Extra characters on line
    1125 0080  C3			 ret 
main.ASM(42): warning A4001: Extra characters on line
    1126 0081  00000000			 DD 0
    1127				; (*entry init-fluids expr 0)
    1128				 PUBLIC l0002
    1129 0085				l0002:
    1130 0085  B8 F0000080		 mov eax,30*08000000h+OFFSET 128
main.ASM(47): warning A4001: Extra characters on line
    1131 008A  A3 00000468 R		 mov ds:symval+1120,eax
main.ASM(48): warning A4001: Extra characters on line
    1132 008F  A3 0000046C R		 mov ds:symval+1124,eax
main.ASM(49): warning A4001: Extra characters on line
    1133 0094  A3 00000470 R		 mov ds:symval+1128,eax
main.ASM(50): warning A4001: Extra characters on line
    1134 0099  A3 00000474 R		 mov ds:symval+1132,eax
main.ASM(51): warning A4001: Extra characters on line
    1135 009E  A3 00000478 R		 mov ds:symval+1136,eax
main.ASM(52): warning A4001: Extra characters on line
    1136 00A3  A3 0000047C R		 mov ds:symval+1140,eax
main.ASM(53): warning A4001: Extra characters on line
    1137 00A8  A3 00000480 R		 mov ds:symval+1144,eax
main.ASM(54): warning A4001: Extra characters on line
    1138 00AD  A3 00000484 R		 mov ds:symval+1148,eax
main.ASM(55): warning A4001: Extra characters on line
    1139 00B2  A3 00000488 R		 mov ds:symval+1152,eax
main.ASM(56): warning A4001: Extra characters on line
    1140 00B7  A3 0000048C R		 mov ds:symval+1156,eax
main.ASM(57): warning A4001: Extra characters on line
    1141 00BC  A3 00000490 R		 mov ds:symval+1160,eax
main.ASM(58): warning A4001: Extra characters on line
    1142 00C1  A3 00000494 R		 mov ds:symval+1164,eax
main.ASM(59): warning A4001: Extra characters on line
    1143 00C6  A3 00000498 R		 mov ds:symval+1168,eax
main.ASM(60): warning A4001: Extra characters on line
    1144 00CB  A3 0000049C R		 mov ds:symval+1172,eax
main.ASM(61): warning A4001: Extra characters on line
    1145 00D0  A3 00000448 R		 mov ds:symval+1088,eax
main.ASM(62): warning A4001: Extra characters on line
    1146 00D5  A3 000004A0 R		 mov ds:symval+1176,eax
main.ASM(63): warning A4001: Extra characters on line
    1147 00DA  A3 000004A4 R		 mov ds:symval+1180,eax
main.ASM(64): warning A4001: Extra characters on line
    1148 00DF  A3 000004A8 R		 mov ds:symval+1184,eax
main.ASM(65): warning A4001: Extra characters on line
    1149 00E4  A3 000004AC R		 mov ds:symval+1188,eax
main.ASM(66): warning A4001: Extra characters on line
    1150 00E9  A3 000004B0 R		 mov ds:symval+1192,eax
main.ASM(67): warning A4001: Extra characters on line
    1151 00EE  A3 000004B4 R		 mov ds:symval+1196,eax
main.ASM(68): warning A4001: Extra characters on line
    1152 00F3  A3 000004B8 R		 mov ds:symval+1200,eax
main.ASM(69): warning A4001: Extra characters on line
    1153 00F8  A3 000004BC R		 mov ds:symval+1204,eax
main.ASM(70): warning A4001: Extra characters on line
    1154 00FD  A3 000004C0 R		 mov ds:symval+1208,eax
main.ASM(71): warning A4001: Extra characters on line
    1155 0102  A3 000004C4 R		 mov ds:symval+1212,eax
main.ASM(72): warning A4001: Extra characters on line
    1156 0107  C3			 ret 
main.ASM(73): warning A4001: Extra characters on line
    1157 0108  00000000			 DD 0
    1158				; (*entry &&init-tables1 expr 0)
    1159				 PUBLIC l0003
    1160 010C				l0003:
    1161 010C  C7 05 000004CC R 0000	 mov ds:symval+1220,0
    1162       0000			
main.ASM(78): warning A4001: Extra characters on line
    1163 0116  8B 3D 000004D0 R		 mov edi,symval+1224
main.ASM(79): warning A4001: Extra characters on line
Microsoft (R) Macro Assembler Version 5.10                  11/16/97 16:56:0
                                                             Page     1-23


    1164 011C  89 3D 000004D4 R		 mov ds:symval+1228,edi
main.ASM(80): warning A4001: Extra characters on line
    1165 0122  8B 3D 000004D8 R		 mov edi,symval+1232
main.ASM(81): warning A4001: Extra characters on line
    1166 0128  89 3D 000004DC R		 mov ds:symval+1236,edi
main.ASM(82): warning A4001: Extra characters on line
    1167 012E  8B 3D 000004E0 R		 mov edi,symval+1240
main.ASM(83): warning A4001: Extra characters on line
    1168 0134  89 3D 000004E4 R		 mov ds:symval+1244,edi
main.ASM(84): warning A4001: Extra characters on line
    1169 013A  8B 3D 000004E8 R		 mov edi,symval+1248
main.ASM(85): warning A4001: Extra characters on line
    1170 0140  89 3D 000004EC R		 mov ds:symval+1252,edi
main.ASM(86): warning A4001: Extra characters on line
    1171 0146  B8 00009C40		 mov eax,40000
main.ASM(87): warning A4001: Extra characters on line
    1172 014B  03 05 000004F0 R		 add eax,symval+1256
main.ASM(88): warning A4001: Extra characters on line
    1173 0151  A3 000004D8 R		 mov ds:symval+1232,eax
main.ASM(89): warning A4001: Extra characters on line
    1174 0156  BB 00009C40		 mov ebx,40000
main.ASM(90): warning A4001: Extra characters on line
    1175 015B  03 D8			 add ebx,eax
main.ASM(91): warning A4001: Extra characters on line
    1176 015D  89 1D 000004E0 R		 mov ds:symval+1240,ebx
main.ASM(92): warning A4001: Extra characters on line
    1177 0163  B8 00009C40		 mov eax,40000
main.ASM(93): warning A4001: Extra characters on line
    1178 0168  03 C3			 add eax,ebx
main.ASM(94): warning A4001: Extra characters on line
    1179 016A  A3 000004E8 R		 mov ds:symval+1248,eax
main.ASM(95): warning A4001: Extra characters on line
    1180 016F  C3			 ret 
main.ASM(96): warning A4001: Extra characters on line
    1181 0170  00000000			 DD 0
    1182				; (*entry &&init-tables2 expr 0)
    1183				 PUBLIC l0004
    1184 0174				l0004:
    1185 0174  89 4424 DC		 mov  DWORD PTR -36[esp],eax
main.ASM(101): warning A4001: Extra characters on line
    1186 0178  83 EC 08			 sub esp,8
main.ASM(102): warning A4001: Extra characters on line
    1187 017B  BF F0000080		 mov edi,30*08000000h+OFFSET 128
main.ASM(103): warning A4001: Extra characters on line
    1188 0180  89 7C24 04		 mov  DWORD PTR 4[esp],edi
main.ASM(104): warning A4001: Extra characters on line
    1189 0184  89 3C24			 mov DWORD PTR [esp],edi
main.ASM(105): warning A4001: Extra characters on line
    1190 0187  BF F0000080		 mov edi,30*08000000h+OFFSET 128
main.ASM(106): warning A4001: Extra characters on line
    1191 018C  3B 3D 00000498 R		 cmp edi,symval+1168
main.ASM(107): warning A4001: Extra characters on line
    1192 0192  0F 84 000001FF R		 je l0005
main.ASM(108): warning A4001: Extra characters on line
    1193 0198  8B 3D 00000478 R		 mov edi,symval+1136
main.ASM(109): warning A4001: Extra characters on line
    1194 019E  89 3C24			 mov DWORD PTR [esp],edi
main.ASM(110): warning A4001: Extra characters on line
    1195 01A1  8B 3D 00000474 R		 mov edi,symval+1132
main.ASM(111): warning A4001: Extra characters on line
    1196 01A7  89 7C24 04		 mov  DWORD PTR 4[esp],edi
main.ASM(112): warning A4001: Extra characters on line
    1197 01AB  8B 1D 000004E4 R		 mov ebx,symval+1244
main.ASM(113): warning A4001: Extra characters on line
    1198 01B1  A1 000004E0 R		 mov eax,symval+1240
main.ASM(114): warning A4001: Extra characters on line
    1199 01B6  BF 0000013B		 mov edi,315
main.ASM(115): warning A4001: Extra characters on line
    1200 01BB  FF 15 00000CB8 R		 call [symfnc+1260]
main.ASM(116): warning A4001: Extra characters on line
    1201 01C1  8B 1D 000004DC R		 mov ebx,symval+1236
main.ASM(117): warning A4001: Extra characters on line
    1202 01C7  A1 000004D8 R		 mov eax,symval+1232
main.ASM(118): warning A4001: Extra characters on line
    1203 01CC  BF 0000013B		 mov edi,315
main.ASM(119): warning A4001: Extra characters on line
    1204 01D1  FF 15 00000CB8 R		 call [symfnc+1260]
main.ASM(120): warning A4001: Extra characters on line
    1205 01D7  8B 7C24 04		 mov edi, DWORD PTR 4[esp]
main.ASM(121): warning A4001: Extra characters on line
    1206 01DB  89 3D 00000474 R		 mov ds:symval+1132,edi
main.ASM(122): warning A4001: Extra characters on line
    1207 01E1  8B 3C24			 mov edi,DWORD PTR [esp]
main.ASM(123): warning A4001: Extra characters on line
    1208 01E4  89 3D 00000478 R		 mov ds:symval+1136,edi
main.ASM(124): warning A4001: Extra characters on line
    1209 01EA  BF 0000013C		 mov edi,316
main.ASM(125): warning A4001: Extra characters on line
    1210 01EF  FF 15 00000CBC R		 call [symfnc+1264]
main.ASM(126): warning A4001: Extra characters on line
    1211 01F5  B8 F0000080		 mov eax,30*08000000h+OFFSET 128
main.ASM(127): warning A4001: Extra characters on line
    1212 01FA  EB 48 90 90 90		 jmp l0006
main.ASM(128): warning A4001: Extra characters on line
    1213 01FF				l0005:
    1214 01FF  8B 1D 000004E0 R		 mov ebx,symval+1240
main.ASM(130): warning A4001: Extra characters on line
    1215 0205  A1 000004E4 R		 mov eax,symval+1244
main.ASM(131): warning A4001: Extra characters on line
    1216 020A  BF 0000013B		 mov edi,315
main.ASM(132): warning A4001: Extra characters on line
    1217 020F  FF 15 00000CB8 R		 call [symfnc+1260]
main.ASM(133): warning A4001: Extra characters on line
Microsoft (R) Macro Assembler Version 5.10                  11/16/97 16:56:0
                                                             Page     1-24


    1218 0215  8B 1D 000004D8 R		 mov ebx,symval+1232
main.ASM(134): warning A4001: Extra characters on line
    1219 021B  A1 000004DC R		 mov eax,symval+1236
main.ASM(135): warning A4001: Extra characters on line
    1220 0220  BF 0000013B		 mov edi,315
main.ASM(136): warning A4001: Extra characters on line
    1221 0225  FF 15 00000CB8 R		 call [symfnc+1260]
main.ASM(137): warning A4001: Extra characters on line
    1222 022B  8B 1D 000004E8 R		 mov ebx,symval+1248
main.ASM(138): warning A4001: Extra characters on line
    1223 0231  A1 000004EC R		 mov eax,symval+1252
main.ASM(139): warning A4001: Extra characters on line
    1224 0236  83 C4 08			 add esp,8
main.ASM(140): warning A4001: Extra characters on line
    1225 0239  BF 0000013B		 mov edi,315
main.ASM(141): warning A4001: Extra characters on line
    1226 023E  FF 25 00000CB8 R		 jmp [symfnc+1260]
main.ASM(142): warning A4001: Extra characters on line
    1227 0244				l0006:
    1228 0244  83 C4 08			 add esp,8
main.ASM(144): warning A4001: Extra characters on line
    1229 0247  C3			 ret 
main.ASM(145): warning A4001: Extra characters on line
    1230 0248  00000002			 DD 2
    1231				; (*entry &&symcopy expr 2)
    1232				 PUBLIC l0007
    1233 024C				l0007:
    1234 024C  89 4424 E0		 mov  DWORD PTR -32[esp],eax
main.ASM(150): warning A4001: Extra characters on line
    1235 0250  50			 push eax
main.ASM(151): warning A4001: Extra characters on line
    1236 0251  8B EB			 mov ebp,ebx
main.ASM(152): warning A4001: Extra characters on line
    1237 0253  8B 1D 000004D4 R		 mov ebx,symval+1228
main.ASM(153): warning A4001: Extra characters on line
    1238 0259  33 C0			 xor eax,eax
main.ASM(154): warning A4001: Extra characters on line
    1239 025B  8B D0			 mov edx,eax
main.ASM(155): warning A4001: Extra characters on line
    1240 025D  8B CB			 mov ecx,ebx
main.ASM(156): warning A4001: Extra characters on line
    1241 025F				l0008:
    1242 025F  3B D1			 cmp edx,ecx
main.ASM(158): warning A4001: Extra characters on line
    1243 0261  0F 8E 00000271 R		 jle l0009
main.ASM(159): warning A4001: Extra characters on line
    1244 0267  B8 F0000080		 mov eax,30*08000000h+OFFSET 128
main.ASM(160): warning A4001: Extra characters on line
    1245 026C  EB 19 90 90 90		 jmp l0010
main.ASM(161): warning A4001: Extra characters on line
    1246 0271				l0009:
    1247 0271  8B C2			 mov eax,edx
main.ASM(163): warning A4001: Extra characters on line
    1248 0273  C1 E0 02			 shl eax,2
main.ASM(164): warning A4001: Extra characters on line
    1249 0276  03 C5			 add eax,ebp
main.ASM(165): warning A4001: Extra characters on line
    1250 0278  8B DA			 mov ebx,edx
main.ASM(166): warning A4001: Extra characters on line
    1251 027A  C1 E3 02			 shl ebx,2
main.ASM(167): warning A4001: Extra characters on line
    1252 027D  03 1C24			 add ebx,DWORD PTR [esp]
main.ASM(168): warning A4001: Extra characters on line
    1253 0280  8B 3B			 mov edi,DWORD PTR [ebx]
main.ASM(169): warning A4001: Extra characters on line
    1254 0282  89 38			 mov DWORD PTR [eax],edi
main.ASM(170): warning A4001: Extra characters on line
    1255 0284  42			 inc edx
main.ASM(171): warning A4001: Extra characters on line
    1256 0285  EB D8			 jmp l0008
main.ASM(172): warning A4001: Extra characters on line
    1257 0287				l0010:
    1258 0287  83 C4 04			 add esp,4
main.ASM(174): warning A4001: Extra characters on line
    1259 028A  C3			 ret 
main.ASM(175): warning A4001: Extra characters on line
    1260 028B  00000000			 DD 0
    1261				; (*entry _psl_main expr 0)
    1262				 PUBLIC _psl_main
    1263 028F				_psl_main:
    1264 028F  55			 push ebp
main.ASM(180): warning A4001: Extra characters on line
    1265 0290  8B 4424 08		 mov eax, DWORD PTR 8[esp]
main.ASM(181): warning A4001: Extra characters on line
    1266 0294  8B 5C24 0C		 mov ebx, DWORD PTR 12[esp]
main.ASM(182): warning A4001: Extra characters on line
    1267 0298  89 25 00000518 R		 mov ds:symval+1296,esp
main.ASM(183): warning A4001: Extra characters on line
    1268 029E  A3 0000051C R		 mov ds:symval+1300,eax
main.ASM(184): warning A4001: Extra characters on line
    1269 02A3  89 1D 00000520 R		 mov ds:symval+1304,ebx
main.ASM(185): warning A4001: Extra characters on line
    1270 02A9  50			 push eax
main.ASM(186): warning A4001: Extra characters on line
    1271 02AA  53			 push ebx
main.ASM(187): warning A4001: Extra characters on line
Microsoft (R) Macro Assembler Version 5.10                  11/16/97 16:56:0
                                                             Page     1-25


    1272 02AB  C7 05 0000047C R 0000	 mov ds:symval+1140,27
    1273       001B			
main.ASM(188): warning A4001: Extra characters on line
    1274 02B5  C7 05 00000498 R F0000080 mov ds:symval+1168,30*08000000h+OFFSET
					 128
main.ASM(189): warning A4001: Extra characters on line
    1275 02BF  BF 00000130		 mov edi,304
main.ASM(190): warning A4001: Extra characters on line
    1276 02C4  FF 15 00000C8C R		 call [symfnc+1216]
main.ASM(191): warning A4001: Extra characters on line
    1277 02CA  5B			 pop ebx
main.ASM(192): warning A4001: Extra characters on line
    1278 02CB  58			 pop eax
main.ASM(193): warning A4001: Extra characters on line
    1279 02CC  BF 0000013E		 mov edi,318
main.ASM(194): warning A4001: Extra characters on line
    1280 02D1  FF 15 00000CC4 R		 call [symfnc+1272]
main.ASM(195): warning A4001: Extra characters on line
    1281 02D7  BF 0000013D		 mov edi,317
main.ASM(196): warning A4001: Extra characters on line
    1282 02DC  FF 15 00000CC0 R		 call [symfnc+1268]
main.ASM(197): warning A4001: Extra characters on line
    1283 02E2  BF 0000010A		 mov edi,266
main.ASM(198): warning A4001: Extra characters on line
    1284 02E7  FF 15 00000BF4 R		 call [symfnc+1064]
main.ASM(199): warning A4001: Extra characters on line
    1285 02ED  33 C0			 xor eax,eax
main.ASM(200): warning A4001: Extra characters on line
    1286 02EF  48			 dec eax
main.ASM(201): warning A4001: Extra characters on line
    1287 02F0  BF 0000013F		 mov edi,319
main.ASM(202): warning A4001: Extra characters on line
    1288 02F5  FF 15 00000CC8 R		 call [symfnc+1276]
main.ASM(203): warning A4001: Extra characters on line
    1289 02FB  8B 4424 08		 mov eax, DWORD PTR 8[esp]
main.ASM(204): warning A4001: Extra characters on line
    1290 02FF  8B 5C24 0C		 mov ebx, DWORD PTR 12[esp]
main.ASM(205): warning A4001: Extra characters on line
    1291 0303  A3 0000051C R		 mov ds:symval+1300,eax
main.ASM(206): warning A4001: Extra characters on line
    1292 0308  89 1D 00000520 R		 mov ds:symval+1304,ebx
main.ASM(207): warning A4001: Extra characters on line
    1293 030E  BF 00000140		 mov edi,320
main.ASM(208): warning A4001: Extra characters on line
    1294 0313  FF 15 00000CCC R		 call [symfnc+1280]
main.ASM(209): warning A4001: Extra characters on line
    1295 0319				l0011:
    1296 0319  33 C0			 xor eax,eax
main.ASM(211): warning A4001: Extra characters on line
    1297 031B  BF 00000141		 mov edi,321
main.ASM(212): warning A4001: Extra characters on line
    1298 0320  FF 25 00000CD0 R		 jmp [symfnc+1284]
main.ASM(213): warning A4001: Extra characters on line
    1299 0326  5D			 pop ebp
main.ASM(214): warning A4001: Extra characters on line
    1300 0327  C3			 ret 
main.ASM(215): warning A4001: Extra characters on line
    1301				; (*entry exit-with-status expr 1)
    1302				 PUBLIC l0012
    1303 0328				l0012:
    1304 0328  BF 00000142		 mov edi,322
main.ASM(219): warning A4001: Extra characters on line
    1305 032D  FF 15 00000CD4 R		 call [symfnc+1288]
main.ASM(220): warning A4001: Extra characters on line
    1306 0333  C3			 ret 
main.ASM(221): warning A4001: Extra characters on line
    1307 0334  00000004			 DD 4
    1308				; (*entry _psl_call expr 4)
    1309				 PUBLIC _psl_call
    1310 0338				_psl_call:
    1311 0338  55			 push ebp
main.ASM(226): warning A4001: Extra characters on line
    1312 0339  8B 4424 08		 mov eax, DWORD PTR 8[esp]
main.ASM(227): warning A4001: Extra characters on line
    1313 033D  8B 5C24 0C		 mov ebx, DWORD PTR 12[esp]
main.ASM(228): warning A4001: Extra characters on line
    1314 0341  8B 4C24 10		 mov ecx, DWORD PTR 16[esp]
main.ASM(229): warning A4001: Extra characters on line
    1315 0345  8B 5424 14		 mov edx, DWORD PTR 20[esp]
main.ASM(230): warning A4001: Extra characters on line
    1316 0349  BF 00000147		 mov edi,327
main.ASM(231): warning A4001: Extra characters on line
    1317 034E  FF 15 00000CE8 R		 call [symfnc+1308]
main.ASM(232): warning A4001: Extra characters on line
    1318 0354  5D			 pop ebp
main.ASM(233): warning A4001: Extra characters on line
    1319 0355  C3			 ret 
main.ASM(234): warning A4001: Extra characters on line
    1320 0356  00000004			 DD 4
    1321				; (*entry psl_call1 expr 4)
    1322				 PUBLIC l0013
    1323 035A				l0013:
    1324 035A  B8 F0000080		 mov eax,30*08000000h+OFFSET 128
main.ASM(239): warning A4001: Extra characters on line
Microsoft (R) Macro Assembler Version 5.10                  11/16/97 16:56:0
                                                             Page     1-26


    1325 035F  C3			 ret 
main.ASM(240): warning A4001: Extra characters on line
    1326 0360  00000001			 DD 1
    1327				; (*entry &time-control expr 1)
    1328				 PUBLIC l0014
    1329 0364				l0014:
    1330 0364  B8 F0000080		 mov eax,30*08000000h+OFFSET 128
main.ASM(245): warning A4001: Extra characters on line
    1331 0369  C3			 ret 
main.ASM(246): warning A4001: Extra characters on line
    1332 036A				l0015:
    1333 036A  00000015			 DD 21
    1334 036E  41 62 6F 75 74 20	 DB 65,98,111,117,116,32,116,111,32,108
					,111
    1335       74 6F 20 6C 6F		
    1336 0379  61 64 20 4C 4F 41	 DB 97,100,32,76,79,65,68,45,80,83,76,0
					,0
    1337       44 2D 50 53 4C 00	
    1338       00			
    1339 0386				l0016:
    1340 0386  00000009			 DD 9
    1341 038A  6C 6F 61 64 2D 70	 DB 108,111,97,100,45,112,115,108,46,98
					,0
    1342       73 6C 2E 62 00		
    1343 0395  00			 DB 0
    1344 0396  00000000			 DD 0
    1345				; (*entry pre-main expr 0)
    1346				 PUBLIC l0017
    1347 039A				l0017:
    1348 039A  BF 00000149		 mov edi,329
main.ASM(259): warning A4001: Extra characters on line
    1349 039F  FF 15 00000CF0 R		 call [symfnc+1316]
main.ASM(260): warning A4001: Extra characters on line
    1350 03A5  BF 0000014A		 mov edi,330
main.ASM(261): warning A4001: Extra characters on line
    1351 03AA  FF 15 00000CF4 R		 call [symfnc+1320]
main.ASM(262): warning A4001: Extra characters on line
    1352 03B0  B8 036A R		 mov eax,4*08000000h+OFFSET l0015
main.ASM(263): warning A4001: Extra characters on line
    1353 03B5  BF 0000014B		 mov edi,331
main.ASM(264): warning A4001: Extra characters on line
    1354 03BA  FF 15 00000CF8 R		 call [symfnc+1324]
main.ASM(265): warning A4001: Extra characters on line
    1355 03C0  BF 0000014C		 mov edi,332
main.ASM(266): warning A4001: Extra characters on line
    1356 03C5  FF 15 00000CFC R		 call [symfnc+1328]
main.ASM(267): warning A4001: Extra characters on line
    1357 03CB  B8 0386 R		 mov eax,4*08000000h+OFFSET l0016
main.ASM(268): warning A4001: Extra characters on line
    1358 03D0  BF 0000014D		 mov edi,333
main.ASM(269): warning A4001: Extra characters on line
    1359 03D5  FF 15 00000D00 R		 call [symfnc+1332]
main.ASM(270): warning A4001: Extra characters on line
    1360 03DB  BF 0000014E		 mov edi,334
main.ASM(271): warning A4001: Extra characters on line
    1361 03E0  FF 25 00000D04 R		 jmp [symfnc+1336]
main.ASM(272): warning A4001: Extra characters on line
    1362 03E6  00000001			 DD 1
    1363				; (*entry external_strlen expr 1)
    1364				 PUBLIC external_strlen
    1365 03EA				external_strlen:
    1366 03EA  89 4424 E0		 mov  DWORD PTR -32[esp],eax
main.ASM(277): warning A4001: Extra characters on line
    1367 03EE  6A 00			 push 0
main.ASM(278): warning A4001: Extra characters on line
    1368 03F0  50			 push eax
main.ASM(279): warning A4001: Extra characters on line
    1369 03F1				l0018:
    1370 03F1  8B 5C24 04		 mov ebx, DWORD PTR 4[esp]
main.ASM(281): warning A4001: Extra characters on line
    1371 03F5  8B 0424			 mov eax,DWORD PTR [esp]
main.ASM(282): warning A4001: Extra characters on line
    1372 03F8  8A 0418			 mov al,0[eax][ebx*1]
main.ASM(283): warning A4001: Extra characters on line
    1373 03FB  66| 98			 cbw 
main.ASM(284): warning A4001: Extra characters on line
    1374 03FD  98			 cwde 
main.ASM(285): warning A4001: Extra characters on line
    1375 03FE  83 F8 00			 cmp eax,0
main.ASM(286): warning A4001: Extra characters on line
Microsoft (R) Macro Assembler Version 5.10                  11/16/97 16:56:0
                                                             Page     1-27


    1376 0401  0F 85 00000410 R		 jne l0019
main.ASM(287): warning A4001: Extra characters on line
    1377 0407  8B 4424 04		 mov eax, DWORD PTR 4[esp]
main.ASM(288): warning A4001: Extra characters on line
    1378 040B  EB 09 90 90 90		 jmp l0020
main.ASM(289): warning A4001: Extra characters on line
    1379 0410				l0019:
    1380 0410  FF 4424 04		 inc  DWORD PTR 4[esp]
main.ASM(291): warning A4001: Extra characters on line
    1381 0414  EB DB			 jmp l0018
main.ASM(292): warning A4001: Extra characters on line
    1382 0416				l0020:
    1383 0416  83 C4 08			 add esp,8
main.ASM(294): warning A4001: Extra characters on line
    1384 0419  C3			 ret 
main.ASM(295): warning A4001: Extra characters on line
    1385 041A  00000000			 DD 0
    1386				; (*entry ! yield expr 0)
    1387				 PUBLIC l0021
    1388 041E				l0021:
    1389 041E  B8 F0000080		 mov eax,30*08000000h+OFFSET 128
main.ASM(300): warning A4001: Extra characters on line
    1390 0423  C3			 ret 
main.ASM(301): warning A4001: Extra characters on line
    1391 0424  00000001			 DD 1
    1392				; (*entry console-print-string expr 1)
    1393				 PUBLIC l0022
    1394 0428				l0022:
    1395 0428  25 07FFFFFF		 and eax,134217727
main.ASM(306): warning A4001: Extra characters on line
    1396 042D  83 C0 04			 add eax,4
main.ASM(307): warning A4001: Extra characters on line
    1397 0430  BF 00000151		 mov edi,337
main.ASM(308): warning A4001: Extra characters on line
    1398 0435  FF 25 00000D10 R		 jmp [symfnc+1348]
main.ASM(309): warning A4001: Extra characters on line
    1399 043B  00000001			 DD 1
    1400				; (*entry console-print-number expr 1)
    1401				 PUBLIC l0023
    1402 043F				l0023:
    1403 043F  BF 00000152		 mov edi,338
main.ASM(314): warning A4001: Extra characters on line
    1404 0444  FF 25 00000D14 R		 jmp [symfnc+1352]
main.ASM(315): warning A4001: Extra characters on line
    1405 044A  00000000			 DD 0
    1406				; (*entry console-newline expr 0)
    1407				 PUBLIC l0024
    1408 044E				l0024:
    1409 044E  B8 0000000A		 mov eax,10
main.ASM(320): warning A4001: Extra characters on line
    1410 0453  BF 00000154		 mov edi,340
main.ASM(321): warning A4001: Extra characters on line
    1411 0458  FF 25 00000D1C R		 jmp [symfnc+1360]
main.ASM(322): warning A4001: Extra characters on line
    1412 045E				l0025:
    1413 045E  00000001			 DD 1
    1414 0462  72 62 00 00		 DB 114,98,0,0
    1415 0466				l0026:
    1416 0466  00000022			 DD 34
    1417 046A  43 6F 75 6C 64 6E	 DB 67,111,117,108,100,110,39,116,32,11
					1,112
    1418       27 74 20 6F 70		
    1419 0475  65 6E 20 62 69 6E	 DB 101,110,32,98,105,110,97,114,121,32
					,102
    1420       61 72 79 20 66		
    1421 0480  69 6C 65 20 66 6F	 DB 105,108,101,32,102,111,114,32,105,1
					10
    1422       72 20 69 6E		
    1423 048A  70 75 74 00		 DB 112,117,116,0
    1424 048E  00000001			 DD 1
    1425				; (*entry binaryopenread expr 1)
    1426				 PUBLIC binaryopenread
Microsoft (R) Macro Assembler Version 5.10                  11/16/97 16:56:0
                                                             Page     1-28


    1427 0492				binaryopenread:
    1428 0492  BB 045E R		 mov ebx,4*08000000h+OFFSET l0025
main.ASM(336): warning A4001: Extra characters on line
    1429 0497  81 E3 07FFFFFF		 and ebx,134217727
main.ASM(337): warning A4001: Extra characters on line
    1430 049D  83 C3 04			 add ebx,4
main.ASM(338): warning A4001: Extra characters on line
    1431 04A0  25 07FFFFFF		 and eax,134217727
main.ASM(339): warning A4001: Extra characters on line
    1432 04A5  83 C0 04			 add eax,4
main.ASM(340): warning A4001: Extra characters on line
    1433 04A8  BF 00000155		 mov edi,341
main.ASM(341): warning A4001: Extra characters on line
    1434 04AD  FF 15 00000D20 R		 call [symfnc+1364]
main.ASM(342): warning A4001: Extra characters on line
    1435 04B3  83 F8 00			 cmp eax,0
main.ASM(343): warning A4001: Extra characters on line
    1436 04B6  0F 85 000004CC R		 jne l0027
main.ASM(344): warning A4001: Extra characters on line
    1437 04BC  B8 0466 R		 mov eax,4*08000000h+OFFSET l0026
main.ASM(345): warning A4001: Extra characters on line
    1438 04C1  BF 00000156		 mov edi,342
main.ASM(346): warning A4001: Extra characters on line
    1439 04C6  FF 25 00000D24 R		 jmp [symfnc+1368]
main.ASM(347): warning A4001: Extra characters on line
    1440 04CC				l0027:
    1441 04CC  C3			 ret 
main.ASM(349): warning A4001: Extra characters on line
    1442 04CD  00000001			 DD 1
    1443				; (*entry binaryread expr 1)
    1444				 PUBLIC binaryread
    1445 04D1				binaryread:
    1446 04D1  BF 00000158		 mov edi,344
main.ASM(354): warning A4001: Extra characters on line
    1447 04D6  FF 25 00000D2C R		 jmp [symfnc+1376]
main.ASM(355): warning A4001: Extra characters on line
    1448 04DC  00000003			 DD 3
    1449				; (*entry binaryreadblock expr 3)
    1450				 PUBLIC binaryreadblock
    1451 04E0				binaryreadblock:
    1452 04E0  8B EB			 mov ebp,ebx
main.ASM(360): warning A4001: Extra characters on line
    1453 04E2  8B D0			 mov edx,eax
main.ASM(361): warning A4001: Extra characters on line
    1454 04E4  BB 00000004		 mov ebx,4
main.ASM(362): warning A4001: Extra characters on line
    1455 04E9  8B C5			 mov eax,ebp
main.ASM(363): warning A4001: Extra characters on line
    1456 04EB  BF 0000015A		 mov edi,346
main.ASM(364): warning A4001: Extra characters on line
    1457 04F0  FF 25 00000D34 R		 jmp [symfnc+1384]
main.ASM(365): warning A4001: Extra characters on line
    1458 04F6  00000001			 DD 1
    1459				; (*entry binaryclose expr 1)
    1460				 PUBLIC binaryclose
    1461 04FA				binaryclose:
    1462 04FA  BF 0000015C		 mov edi,348
main.ASM(370): warning A4001: Extra characters on line
    1463 04FF  FF 25 00000D3C R		 jmp [symfnc+1392]
main.ASM(371): warning A4001: Extra characters on line
    1464 0505  00000000			 DD 0
    1465				; (*entry initialize-symbol-table expr 
					0)
    1466				 PUBLIC l0028
    1467 0509				l0028:
    1468 0509  89 4424 DC		 mov  DWORD PTR -36[esp],eax
main.ASM(376): warning A4001: Extra characters on line
    1469 050D  83 EC 08			 sub esp,8
main.ASM(377): warning A4001: Extra characters on line
    1470 0510  BF F0000080		 mov edi,30*08000000h+OFFSET 128
main.ASM(378): warning A4001: Extra characters on line
    1471 0515  89 7C24 04		 mov  DWORD PTR 4[esp],edi
main.ASM(379): warning A4001: Extra characters on line
    1472 0519  89 3C24			 mov DWORD PTR [esp],edi
main.ASM(380): warning A4001: Extra characters on line
    1473 051C  BB 00002710		 mov ebx,10000
main.ASM(381): warning A4001: Extra characters on line
    1474 0521  A1 000004D0 R		 mov eax,symval+1224
main.ASM(382): warning A4001: Extra characters on line
    1475 0526  8B D0			 mov edx,eax
main.ASM(383): warning A4001: Extra characters on line
    1476 0528  8B CB			 mov ecx,ebx
main.ASM(384): warning A4001: Extra characters on line
    1477 052A				l0029:
    1478 052A  3B D1			 cmp edx,ecx
main.ASM(386): warning A4001: Extra characters on line
    1479 052C  0F 8F 00000547 R		 jg l0030
main.ASM(387): warning A4001: Extra characters on line
Microsoft (R) Macro Assembler Version 5.10                  11/16/97 16:56:0
                                                             Page     1-29


    1480 0532  8B C2			 mov eax,edx
main.ASM(388): warning A4001: Extra characters on line
    1481 0534  C1 E0 02			 shl eax,2
main.ASM(389): warning A4001: Extra characters on line
    1482 0537  03 05 000004F0 R		 add eax,symval+1256
main.ASM(390): warning A4001: Extra characters on line
    1483 053D  33 DB			 xor ebx,ebx
main.ASM(391): warning A4001: Extra characters on line
    1484 053F  43			 inc ebx
main.ASM(392): warning A4001: Extra characters on line
    1485 0540  03 DA			 add ebx,edx
main.ASM(393): warning A4001: Extra characters on line
    1486 0542  89 18			 mov DWORD PTR [eax],ebx
main.ASM(394): warning A4001: Extra characters on line
    1487 0544  42			 inc edx
main.ASM(395): warning A4001: Extra characters on line
    1488 0545  EB E3			 jmp l0029
main.ASM(396): warning A4001: Extra characters on line
    1489 0547				l0030:
    1490 0547  8B 35 000004F0 R		 mov esi,symval+1256
main.ASM(398): warning A4001: Extra characters on line
    1491 054D  C7 86 00009C40 0000	 mov  DWORD PTR 40000[esi],0
    1492       0000			
main.ASM(399): warning A4001: Extra characters on line
    1493 0557  BB 0000465D		 mov ebx,18013
main.ASM(400): warning A4001: Extra characters on line
    1494 055C  33 C0			 xor eax,eax
main.ASM(401): warning A4001: Extra characters on line
    1495 055E  89 0424			 mov DWORD PTR [esp],eax
main.ASM(402): warning A4001: Extra characters on line
    1496 0561  89 5C24 04		 mov  DWORD PTR 4[esp],ebx
main.ASM(403): warning A4001: Extra characters on line
    1497 0565				l0031:
    1498 0565  8B 3C24			 mov edi,DWORD PTR [esp]
main.ASM(405): warning A4001: Extra characters on line
    1499 0568  3B 7C24 04		 cmp edi, DWORD PTR 4[esp]
main.ASM(406): warning A4001: Extra characters on line
    1500 056C  0F 8F 00000587 R		 jg l0032
main.ASM(407): warning A4001: Extra characters on line
    1501 0572  33 C9			 xor ecx,ecx
main.ASM(408): warning A4001: Extra characters on line
    1502 0574  8B 1C24			 mov ebx,DWORD PTR [esp]
main.ASM(409): warning A4001: Extra characters on line
    1503 0577  A1 0000041C R		 mov eax,symval+1044
main.ASM(410): warning A4001: Extra characters on line
    1504 057C  D1 E3			 shl ebx,1
main.ASM(411): warning A4001: Extra characters on line
    1505 057E  66| 89 0C03		 mov 0[ebx][eax*1],cx
main.ASM(412): warning A4001: Extra characters on line
    1506 0582  FF 0424			 inc DWORD PTR [esp]
main.ASM(413): warning A4001: Extra characters on line
    1507 0585  EB DE			 jmp l0031
main.ASM(414): warning A4001: Extra characters on line
    1508 0587				l0032:
    1509 0587  8B 3D 000004F0 R		 mov edi,symval+1256
main.ASM(416): warning A4001: Extra characters on line
    1510 058D  8B 87 00000200		 mov eax, DWORD PTR 512[edi]
main.ASM(417): warning A4001: Extra characters on line
    1511 0593  BF 0000015E		 mov edi,350
main.ASM(418): warning A4001: Extra characters on line
    1512 0598  FF 15 00000D44 R		 call [symfnc+1400]
main.ASM(419): warning A4001: Extra characters on line
    1513 059E  B9 00000080		 mov ecx,128
main.ASM(420): warning A4001: Extra characters on line
    1514 05A3  8B D8			 mov ebx,eax
main.ASM(421): warning A4001: Extra characters on line
    1515 05A5  A1 0000041C R		 mov eax,symval+1044
main.ASM(422): warning A4001: Extra characters on line
    1516 05AA  D1 E3			 shl ebx,1
main.ASM(423): warning A4001: Extra characters on line
    1517 05AC  66| 89 0C03		 mov 0[ebx][eax*1],cx
main.ASM(424): warning A4001: Extra characters on line
    1518 05B0  33 DB			 xor ebx,ebx
main.ASM(425): warning A4001: Extra characters on line
    1519 05B2  4B			 dec ebx
main.ASM(426): warning A4001: Extra characters on line
    1520 05B3  03 1D 000004D0 R		 add ebx,symval+1224
main.ASM(427): warning A4001: Extra characters on line
    1521 05B9  B8 00000100		 mov eax,256
main.ASM(428): warning A4001: Extra characters on line
    1522 05BE  89 0424			 mov DWORD PTR [esp],eax
main.ASM(429): warning A4001: Extra characters on line
    1523 05C1  89 5C24 04		 mov  DWORD PTR 4[esp],ebx
main.ASM(430): warning A4001: Extra characters on line
    1524 05C5				l0033:
    1525 05C5  8B 3C24			 mov edi,DWORD PTR [esp]
main.ASM(432): warning A4001: Extra characters on line
    1526 05C8  3B 7C24 04		 cmp edi, DWORD PTR 4[esp]
main.ASM(433): warning A4001: Extra characters on line
    1527 05CC  0F 8F 00000600 R		 jg l0034
main.ASM(434): warning A4001: Extra characters on line
    1528 05D2  8B 0424			 mov eax,DWORD PTR [esp]
main.ASM(435): warning A4001: Extra characters on line
    1529 05D5  C1 E0 02			 shl eax,2
main.ASM(436): warning A4001: Extra characters on line
    1530 05D8  03 05 000004F0 R		 add eax,symval+1256
main.ASM(437): warning A4001: Extra characters on line
    1531 05DE  8B 00			 mov eax,DWORD PTR [eax]
main.ASM(438): warning A4001: Extra characters on line
    1532 05E0  BF 0000015E		 mov edi,350
main.ASM(439): warning A4001: Extra characters on line
    1533 05E5  FF 15 00000D44 R		 call [symfnc+1400]
main.ASM(440): warning A4001: Extra characters on line
Microsoft (R) Macro Assembler Version 5.10                  11/16/97 16:56:0
                                                             Page     1-30


    1534 05EB  8B 0C24			 mov ecx,DWORD PTR [esp]
main.ASM(441): warning A4001: Extra characters on line
    1535 05EE  8B D8			 mov ebx,eax
main.ASM(442): warning A4001: Extra characters on line
    1536 05F0  A1 0000041C R		 mov eax,symval+1044
main.ASM(443): warning A4001: Extra characters on line
    1537 05F5  D1 E3			 shl ebx,1
main.ASM(444): warning A4001: Extra characters on line
    1538 05F7  66| 89 0C03		 mov 0[ebx][eax*1],cx
main.ASM(445): warning A4001: Extra characters on line
    1539 05FB  FF 0424			 inc DWORD PTR [esp]
main.ASM(446): warning A4001: Extra characters on line
    1540 05FE  EB C5			 jmp l0033
main.ASM(447): warning A4001: Extra characters on line
    1541 0600				l0034:
    1542 0600  B8 F0000080		 mov eax,30*08000000h+OFFSET 128
main.ASM(449): warning A4001: Extra characters on line
    1543 0605  A3 00000584 R		 mov ds:symval+1404,eax
main.ASM(450): warning A4001: Extra characters on line
    1544 060A  83 C4 08			 add esp,8
main.ASM(451): warning A4001: Extra characters on line
    1545 060D  C3			 ret 
main.ASM(452): warning A4001: Extra characters on line
    1546 060E  00000001			 DD 1
    1547				; (*entry faslin-intern expr 1)
    1548				 PUBLIC l0035
    1549 0612				l0035:
    1550 0612  89 4424 D8		 mov  DWORD PTR -40[esp],eax
main.ASM(457): warning A4001: Extra characters on line
    1551 0616  83 EC 0C			 sub esp,12
main.ASM(458): warning A4001: Extra characters on line
    1552 0619  BF F0000080		 mov edi,30*08000000h+OFFSET 128
main.ASM(459): warning A4001: Extra characters on line
    1553 061E  89 7C24 08		 mov  DWORD PTR 8[esp],edi
main.ASM(460): warning A4001: Extra characters on line
    1554 0622  89 7C24 04		 mov  DWORD PTR 4[esp],edi
main.ASM(461): warning A4001: Extra characters on line
    1555 0626  89 0424			 mov DWORD PTR [esp],eax
main.ASM(462): warning A4001: Extra characters on line
    1556 0629  8B D8			 mov ebx,eax
main.ASM(463): warning A4001: Extra characters on line
    1557 062B  33 C0			 xor eax,eax
main.ASM(464): warning A4001: Extra characters on line
    1558 062D  BF 00000160		 mov edi,352
main.ASM(465): warning A4001: Extra characters on line
    1559 0632  FF 15 00000D4C R		 call [symfnc+1408]
main.ASM(466): warning A4001: Extra characters on line
    1560 0638  89 4424 04		 mov  DWORD PTR 4[esp],eax
main.ASM(467): warning A4001: Extra characters on line
    1561 063C  3D F0000080		 cmp eax,30*08000000h+OFFSET 128
main.ASM(468): warning A4001: Extra characters on line
    1562 0641  0F 85 00000658 R		 jne l0036
main.ASM(469): warning A4001: Extra characters on line
    1563 0647  8B 0424			 mov eax,DWORD PTR [esp]
main.ASM(470): warning A4001: Extra characters on line
    1564 064A  83 C4 0C			 add esp,12
main.ASM(471): warning A4001: Extra characters on line
    1565 064D  BF 00000161		 mov edi,353
main.ASM(472): warning A4001: Extra characters on line
    1566 0652  FF 25 00000D50 R		 jmp [symfnc+1412]
main.ASM(473): warning A4001: Extra characters on line
    1567 0658				l0036:
    1568 0658  8B 0424			 mov eax,DWORD PTR [esp]
main.ASM(475): warning A4001: Extra characters on line
    1569 065B  25 07FFFFFF		 and eax,134217727
main.ASM(476): warning A4001: Extra characters on line
    1570 0660  8B 00			 mov eax,DWORD PTR [eax]
main.ASM(477): warning A4001: Extra characters on line
    1571 0662  C1 E0 05			 shl eax,5
main.ASM(478): warning A4001: Extra characters on line
    1572 0665  C1 F8 05			 sar eax,5
main.ASM(479): warning A4001: Extra characters on line
    1573 0668  89 4424 08		 mov  DWORD PTR 8[esp],eax
main.ASM(480): warning A4001: Extra characters on line
    1574 066C  3B 4424 04		 cmp eax, DWORD PTR 4[esp]
main.ASM(481): warning A4001: Extra characters on line
    1575 0670  0F 8E 0000069B R		 jle l0037
main.ASM(482): warning A4001: Extra characters on line
    1576 0676  33 DB			 xor ebx,ebx
main.ASM(483): warning A4001: Extra characters on line
    1577 0678  43			 inc ebx
main.ASM(484): warning A4001: Extra characters on line
    1578 0679  03 5C24 04		 add ebx, DWORD PTR 4[esp]
main.ASM(485): warning A4001: Extra characters on line
    1579 067D  8B 0424			 mov eax,DWORD PTR [esp]
main.ASM(486): warning A4001: Extra characters on line
    1580 0680  25 07FFFFFF		 and eax,134217727
main.ASM(487): warning A4001: Extra characters on line
    1581 0685  83 C0 04			 add eax,4
main.ASM(488): warning A4001: Extra characters on line
    1582 0688  8A 0418			 mov al,0[eax][ebx*1]
main.ASM(489): warning A4001: Extra characters on line
    1583 068B  66| 98			 cbw 
main.ASM(490): warning A4001: Extra characters on line
    1584 068D  98			 cwde 
main.ASM(491): warning A4001: Extra characters on line
    1585 068E  83 F8 00			 cmp eax,0
main.ASM(492): warning A4001: Extra characters on line
    1586 0691  0F 85 0000069B R		 jne l0037
main.ASM(493): warning A4001: Extra characters on line
    1587 0697  FF 4424 04		 inc  DWORD PTR 4[esp]
main.ASM(494): warning A4001: Extra characters on line
Microsoft (R) Macro Assembler Version 5.10                  11/16/97 16:56:0
                                                             Page     1-31


    1588 069B				l0037:
    1589 069B  8B 7C24 04		 mov edi, DWORD PTR 4[esp]
main.ASM(496): warning A4001: Extra characters on line
    1590 069F  3B 7C24 08		 cmp edi, DWORD PTR 8[esp]
main.ASM(497): warning A4001: Extra characters on line
    1591 06A3  0F 8C 000006B1 R		 jl l0038
main.ASM(498): warning A4001: Extra characters on line
    1592 06A9  8B 0424			 mov eax,DWORD PTR [esp]
main.ASM(499): warning A4001: Extra characters on line
    1593 06AC  EB 2A 90 90 90		 jmp l0039
main.ASM(500): warning A4001: Extra characters on line
    1594 06B1				l0038:
    1595 06B1  8B 0C24			 mov ecx,DWORD PTR [esp]
main.ASM(502): warning A4001: Extra characters on line
    1596 06B4  81 E1 07FFFFFF		 and ecx,134217727
main.ASM(503): warning A4001: Extra characters on line
    1597 06BA  8B 09			 mov ecx,DWORD PTR [ecx]
main.ASM(504): warning A4001: Extra characters on line
    1598 06BC  C1 E1 05			 shl ecx,5
main.ASM(505): warning A4001: Extra characters on line
    1599 06BF  C1 F9 05			 sar ecx,5
main.ASM(506): warning A4001: Extra characters on line
    1600 06C2  41			 inc ecx
main.ASM(507): warning A4001: Extra characters on line
    1601 06C3  33 DB			 xor ebx,ebx
main.ASM(508): warning A4001: Extra characters on line
    1602 06C5  43			 inc ebx
main.ASM(509): warning A4001: Extra characters on line
    1603 06C6  03 5C24 04		 add ebx, DWORD PTR 4[esp]
main.ASM(510): warning A4001: Extra characters on line
    1604 06CA  8B 0424			 mov eax,DWORD PTR [esp]
main.ASM(511): warning A4001: Extra characters on line
    1605 06CD  BF 00000162		 mov edi,354
main.ASM(512): warning A4001: Extra characters on line
    1606 06D2  FF 15 00000D54 R		 call [symfnc+1416]
main.ASM(513): warning A4001: Extra characters on line
    1607 06D8				l0039:
    1608 06D8  83 C4 0C			 add esp,12
main.ASM(515): warning A4001: Extra characters on line
    1609 06DB  BF 00000161		 mov edi,353
main.ASM(516): warning A4001: Extra characters on line
    1610 06E0  FF 25 00000D50 R		 jmp [symfnc+1412]
main.ASM(517): warning A4001: Extra characters on line
    1611 06E6  00000001			 DD 1
    1612				; (*entry intern expr 1)
    1613				 PUBLIC intern
    1614 06EA				intern:
    1615 06EA  BF 00000164		 mov edi,356
main.ASM(522): warning A4001: Extra characters on line
    1616 06EF  FF 25 00000D5C R		 jmp [symfnc+1424]
main.ASM(523): warning A4001: Extra characters on line
    1617 06F5				l0040:
    1618 06F5  00000007			 DD 7
    1619 06F9  4E 65 77 20 69 64	 DB 78,101,119,32,105,100,58,32,0,0
    1620       3A 20 00 00		
    1621 0703  00000001			 DD 1
    1622				; (*entry unchecked-string-intern expr 
					1)
    1623				 PUBLIC l0041
    1624 0707				l0041:
    1625 0707  89 4424 CC		 mov  DWORD PTR -52[esp],eax
main.ASM(531): warning A4001: Extra characters on line
    1626 070B  83 EC 18			 sub esp,24
main.ASM(532): warning A4001: Extra characters on line
    1627 070E  89 0424			 mov DWORD PTR [esp],eax
main.ASM(533): warning A4001: Extra characters on line
    1628 0711  BD F0000080		 mov ebp,30*08000000h+OFFSET 128
main.ASM(534): warning A4001: Extra characters on line
    1629 0716  8B D5			 mov edx,ebp
main.ASM(535): warning A4001: Extra characters on line
    1630 0718  8B CD			 mov ecx,ebp
main.ASM(536): warning A4001: Extra characters on line
    1631 071A  8B D8			 mov ebx,eax
main.ASM(537): warning A4001: Extra characters on line
    1632 071C  81 E3 07FFFFFF		 and ebx,134217727
main.ASM(538): warning A4001: Extra characters on line
    1633 0722  8B 1B			 mov ebx,DWORD PTR [ebx]
main.ASM(539): warning A4001: Extra characters on line
    1634 0724  C1 E3 05			 shl ebx,5
main.ASM(540): warning A4001: Extra characters on line
    1635 0727  C1 FB 05			 sar ebx,5
main.ASM(541): warning A4001: Extra characters on line
    1636 072A  25 07FFFFFF		 and eax,134217727
main.ASM(542): warning A4001: Extra characters on line
    1637 072F  89 4424 04		 mov  DWORD PTR 4[esp],eax
main.ASM(543): warning A4001: Extra characters on line
    1638 0733  89 5C24 08		 mov  DWORD PTR 8[esp],ebx
main.ASM(544): warning A4001: Extra characters on line
    1639 0737  89 4C24 0C		 mov  DWORD PTR 12[esp],ecx
main.ASM(545): warning A4001: Extra characters on line
    1640 073B  89 5424 10		 mov  DWORD PTR 16[esp],edx
main.ASM(546): warning A4001: Extra characters on line
Microsoft (R) Macro Assembler Version 5.10                  11/16/97 16:56:0
                                                             Page     1-32


    1641 073F  89 6C24 14		 mov  DWORD PTR 20[esp],ebp
main.ASM(547): warning A4001: Extra characters on line
    1642 0743  83 FB 00			 cmp ebx,0
main.ASM(548): warning A4001: Extra characters on line
    1643 0746  0F 85 00000764 R		 jne l0042
main.ASM(549): warning A4001: Extra characters on line
    1644 074C  83 C0 04			 add eax,4
main.ASM(550): warning A4001: Extra characters on line
    1645 074F  8A 0418			 mov al,0[eax][ebx*1]
main.ASM(551): warning A4001: Extra characters on line
    1646 0752  66| 98			 cbw 
main.ASM(552): warning A4001: Extra characters on line
    1647 0754  98			 cwde 
main.ASM(553): warning A4001: Extra characters on line
    1648 0755  25 07FFFFFF		 and eax,134217727
main.ASM(554): warning A4001: Extra characters on line
    1649 075A  0D F0000000		 or eax,-268435456
main.ASM(555): warning A4001: Extra characters on line
    1650 075F  E9 00000856 R		 jmp l0043
main.ASM(556): warning A4001: Extra characters on line
    1651 0764				l0042:
    1652 0764  8B 0424			 mov eax,DWORD PTR [esp]
main.ASM(558): warning A4001: Extra characters on line
    1653 0767  BF 0000015E		 mov edi,350
main.ASM(559): warning A4001: Extra characters on line
    1654 076C  FF 15 00000D44 R		 call [symfnc+1400]
main.ASM(560): warning A4001: Extra characters on line
    1655 0772  8B D8			 mov ebx,eax
main.ASM(561): warning A4001: Extra characters on line
    1656 0774  89 5C24 0C		 mov  DWORD PTR 12[esp],ebx
main.ASM(562): warning A4001: Extra characters on line
    1657 0778  A1 0000041C R		 mov eax,symval+1044
main.ASM(563): warning A4001: Extra characters on line
    1658 077D  D1 E3			 shl ebx,1
main.ASM(564): warning A4001: Extra characters on line
    1659 077F  66| 8B 0418		 mov ax,0[eax][ebx*1]
main.ASM(565): warning A4001: Extra characters on line
    1660 0783  98			 cwde 
main.ASM(566): warning A4001: Extra characters on line
    1661 0784  C1 E0 10			 shl eax,16
main.ASM(567): warning A4001: Extra characters on line
    1662 0787  C1 F8 10			 sar eax,16
main.ASM(568): warning A4001: Extra characters on line
    1663 078A  83 F8 00			 cmp eax,0
main.ASM(569): warning A4001: Extra characters on line
    1664 078D  0F 8E 000007B8 R		 jle l0044
main.ASM(570): warning A4001: Extra characters on line
    1665 0793  8B 5C24 0C		 mov ebx, DWORD PTR 12[esp]
main.ASM(571): warning A4001: Extra characters on line
    1666 0797  A1 0000041C R		 mov eax,symval+1044
main.ASM(572): warning A4001: Extra characters on line
    1667 079C  D1 E3			 shl ebx,1
main.ASM(573): warning A4001: Extra characters on line
    1668 079E  66| 8B 0418		 mov ax,0[eax][ebx*1]
main.ASM(574): warning A4001: Extra characters on line
    1669 07A2  98			 cwde 
main.ASM(575): warning A4001: Extra characters on line
    1670 07A3  C1 E0 10			 shl eax,16
main.ASM(576): warning A4001: Extra characters on line
    1671 07A6  C1 F8 10			 sar eax,16
main.ASM(577): warning A4001: Extra characters on line
    1672 07A9  25 07FFFFFF		 and eax,134217727
main.ASM(578): warning A4001: Extra characters on line
    1673 07AE  0D F0000000		 or eax,-268435456
main.ASM(579): warning A4001: Extra characters on line
    1674 07B3  E9 00000856 R		 jmp l0043
main.ASM(580): warning A4001: Extra characters on line
    1675 07B8				l0044:
    1676 07B8  BF F0000080		 mov edi,30*08000000h+OFFSET 128
main.ASM(582): warning A4001: Extra characters on line
    1677 07BD  3B 3D 00000584 R		 cmp edi,symval+1404
main.ASM(583): warning A4001: Extra characters on line
    1678 07C3  0F 84 000007F2 R		 je l0045
main.ASM(584): warning A4001: Extra characters on line
    1679 07C9  B8 06F5 R		 mov eax,4*08000000h+OFFSET l0040
main.ASM(585): warning A4001: Extra characters on line
    1680 07CE  BF 0000014B		 mov edi,331
main.ASM(586): warning A4001: Extra characters on line
    1681 07D3  FF 15 00000CF8 R		 call [symfnc+1324]
main.ASM(587): warning A4001: Extra characters on line
    1682 07D9  8B 0424			 mov eax,DWORD PTR [esp]
main.ASM(588): warning A4001: Extra characters on line
    1683 07DC  BF 0000014B		 mov edi,331
main.ASM(589): warning A4001: Extra characters on line
    1684 07E1  FF 15 00000CF8 R		 call [symfnc+1324]
main.ASM(590): warning A4001: Extra characters on line
    1685 07E7  BF 0000014C		 mov edi,332
main.ASM(591): warning A4001: Extra characters on line
    1686 07EC  FF 15 00000CFC R		 call [symfnc+1328]
main.ASM(592): warning A4001: Extra characters on line
    1687 07F2				l0045:
    1688 07F2  BF 00000165		 mov edi,357
main.ASM(594): warning A4001: Extra characters on line
    1689 07F7  FF 15 00000D60 R		 call [symfnc+1428]
main.ASM(595): warning A4001: Extra characters on line
    1690 07FD  89 4424 14		 mov  DWORD PTR 20[esp],eax
main.ASM(596): warning A4001: Extra characters on line
    1691 0801  8B C8			 mov ecx,eax
main.ASM(597): warning A4001: Extra characters on line
    1692 0803  8B 5C24 0C		 mov ebx, DWORD PTR 12[esp]
main.ASM(598): warning A4001: Extra characters on line
    1693 0807  A1 0000041C R		 mov eax,symval+1044
main.ASM(599): warning A4001: Extra characters on line
    1694 080C  D1 E3			 shl ebx,1
main.ASM(600): warning A4001: Extra characters on line
Microsoft (R) Macro Assembler Version 5.10                  11/16/97 16:56:0
                                                             Page     1-33


    1695 080E  66| 89 0C03		 mov 0[ebx][eax*1],cx
main.ASM(601): warning A4001: Extra characters on line
    1696 0812  8B 4424 08		 mov eax, DWORD PTR 8[esp]
main.ASM(602): warning A4001: Extra characters on line
    1697 0816  BF 00000166		 mov edi,358
main.ASM(603): warning A4001: Extra characters on line
    1698 081B  FF 15 00000D64 R		 call [symfnc+1432]
main.ASM(604): warning A4001: Extra characters on line
    1699 0821  89 4424 10		 mov  DWORD PTR 16[esp],eax
main.ASM(605): warning A4001: Extra characters on line
    1700 0825  8B 5C24 04		 mov ebx, DWORD PTR 4[esp]
main.ASM(606): warning A4001: Extra characters on line
    1701 0829  BF 00000167		 mov edi,359
main.ASM(607): warning A4001: Extra characters on line
    1702 082E  FF 15 00000D68 R		 call [symfnc+1436]
main.ASM(608): warning A4001: Extra characters on line
    1703 0834  8B 5C24 10		 mov ebx, DWORD PTR 16[esp]
main.ASM(609): warning A4001: Extra characters on line
    1704 0838  81 E3 07FFFFFF		 and ebx,134217727
main.ASM(610): warning A4001: Extra characters on line
    1705 083E  81 CB 20000000		 or ebx,536870912
main.ASM(611): warning A4001: Extra characters on line
    1706 0844  8B 4424 14		 mov eax, DWORD PTR 20[esp]
main.ASM(612): warning A4001: Extra characters on line
    1707 0848  83 C4 18			 add esp,24
main.ASM(613): warning A4001: Extra characters on line
    1708 084B  BF 00000168		 mov edi,360
main.ASM(614): warning A4001: Extra characters on line
    1709 0850  FF 25 00000D6C R		 jmp [symfnc+1440]
main.ASM(615): warning A4001: Extra characters on line
    1710 0856				l0043:
    1711 0856  83 C4 18			 add esp,24
main.ASM(617): warning A4001: Extra characters on line
    1712 0859  C3			 ret 
main.ASM(618): warning A4001: Extra characters on line
    1713 085A				l0046:
    1714 085A  00000012			 DD 18
    1715 085E  48 61 73 68 20 74	 DB 72,97,115,104,32,116,97,98,108,101,
					32
    1716       61 62 6C 65 20		
    1717 0869  6F 76 65 72 66 6C	 DB 111,118,101,114,102,108,111,119,0
    1718       6F 77 00			
    1719 0872  00000001			 DD 1
    1720				; (*entry hash-into-table expr 1)
    1721				 PUBLIC l0047
    1722 0876				l0047:
    1723 0876  89 4424 D4		 mov  DWORD PTR -44[esp],eax
main.ASM(627): warning A4001: Extra characters on line
    1724 087A  83 EC 10			 sub esp,16
main.ASM(628): warning A4001: Extra characters on line
    1725 087D  BF F0000080		 mov edi,30*08000000h+OFFSET 128
main.ASM(629): warning A4001: Extra characters on line
    1726 0882  89 7C24 0C		 mov  DWORD PTR 12[esp],edi
main.ASM(630): warning A4001: Extra characters on line
    1727 0886  89 7C24 08		 mov  DWORD PTR 8[esp],edi
main.ASM(631): warning A4001: Extra characters on line
    1728 088A  89 7C24 04		 mov  DWORD PTR 4[esp],edi
main.ASM(632): warning A4001: Extra characters on line
    1729 088E  89 0424			 mov DWORD PTR [esp],eax
main.ASM(633): warning A4001: Extra characters on line
    1730 0891  BF 00000169		 mov edi,361
main.ASM(634): warning A4001: Extra characters on line
    1731 0896  FF 15 00000D70 R		 call [symfnc+1444]
main.ASM(635): warning A4001: Extra characters on line
    1732 089C  89 4424 04		 mov  DWORD PTR 4[esp],eax
main.ASM(636): warning A4001: Extra characters on line
    1733 08A0  89 4424 08		 mov  DWORD PTR 8[esp],eax
main.ASM(637): warning A4001: Extra characters on line
    1734 08A4  C7 4424 0C FFFFFFFF	 mov  DWORD PTR 12[esp],-1
main.ASM(638): warning A4001: Extra characters on line
    1735 08AC				l0048:
    1736 08AC  8B 5C24 08		 mov ebx, DWORD PTR 8[esp]
main.ASM(640): warning A4001: Extra characters on line
    1737 08B0  A1 0000041C R		 mov eax,symval+1044
main.ASM(641): warning A4001: Extra characters on line
    1738 08B5  D1 E3			 shl ebx,1
main.ASM(642): warning A4001: Extra characters on line
    1739 08B7  66| 8B 0418		 mov ax,0[eax][ebx*1]
main.ASM(643): warning A4001: Extra characters on line
    1740 08BB  98			 cwde 
main.ASM(644): warning A4001: Extra characters on line
    1741 08BC  C1 E0 10			 shl eax,16
main.ASM(645): warning A4001: Extra characters on line
    1742 08BF  C1 F8 10			 sar eax,16
main.ASM(646): warning A4001: Extra characters on line
    1743 08C2  83 F8 00			 cmp eax,0
main.ASM(647): warning A4001: Extra characters on line
    1744 08C5  0F 85 000008E8 R		 jne l0049
main.ASM(648): warning A4001: Extra characters on line
    1745 08CB  83 7C24 0C FF		 cmp  DWORD PTR 12[esp],-1
main.ASM(649): warning A4001: Extra characters on line
    1746 08D0  0F 84 000008DF R		 je l0050
main.ASM(650): warning A4001: Extra characters on line
    1747 08D6  8B 4424 0C		 mov eax, DWORD PTR 12[esp]
main.ASM(651): warning A4001: Extra characters on line
Microsoft (R) Macro Assembler Version 5.10                  11/16/97 16:56:0
                                                             Page     1-34


    1748 08DA  EB 07 90 90 90		 jmp l0051
main.ASM(652): warning A4001: Extra characters on line
    1749 08DF				l0050:
    1750 08DF  8B 4424 08		 mov eax, DWORD PTR 8[esp]
main.ASM(654): warning A4001: Extra characters on line
    1751 08E3				l0051:
    1752 08E3  E9 000009A3 R		 jmp l0052
main.ASM(656): warning A4001: Extra characters on line
    1753 08E8				l0049:
    1754 08E8  8B 5C24 08		 mov ebx, DWORD PTR 8[esp]
main.ASM(658): warning A4001: Extra characters on line
    1755 08EC  A1 0000041C R		 mov eax,symval+1044
main.ASM(659): warning A4001: Extra characters on line
    1756 08F1  D1 E3			 shl ebx,1
main.ASM(660): warning A4001: Extra characters on line
    1757 08F3  66| 8B 0418		 mov ax,0[eax][ebx*1]
main.ASM(661): warning A4001: Extra characters on line
    1758 08F7  98			 cwde 
main.ASM(662): warning A4001: Extra characters on line
    1759 08F8  8B D8			 mov ebx,eax
main.ASM(663): warning A4001: Extra characters on line
    1760 08FA  C1 E3 10			 shl ebx,16
main.ASM(664): warning A4001: Extra characters on line
    1761 08FD  C1 FB 10			 sar ebx,16
main.ASM(665): warning A4001: Extra characters on line
    1762 0900  83 FB FF			 cmp ebx,-1
main.ASM(666): warning A4001: Extra characters on line
    1763 0903  0F 85 00000921 R		 jne l0053
main.ASM(667): warning A4001: Extra characters on line
    1764 0909  83 7C24 0C FF		 cmp  DWORD PTR 12[esp],-1
main.ASM(668): warning A4001: Extra characters on line
    1765 090E  0F 85 00000964 R		 jne l0054
main.ASM(669): warning A4001: Extra characters on line
    1766 0914  8B 7C24 08		 mov edi, DWORD PTR 8[esp]
main.ASM(670): warning A4001: Extra characters on line
    1767 0918  89 7C24 0C		 mov  DWORD PTR 12[esp],edi
main.ASM(671): warning A4001: Extra characters on line
    1768 091C  EB 46 90 90 90		 jmp l0054
main.ASM(672): warning A4001: Extra characters on line
    1769 0921				l0053:
    1770 0921  8B 5C24 08		 mov ebx, DWORD PTR 8[esp]
main.ASM(674): warning A4001: Extra characters on line
    1771 0925  A1 0000041C R		 mov eax,symval+1044
main.ASM(675): warning A4001: Extra characters on line
    1772 092A  D1 E3			 shl ebx,1
main.ASM(676): warning A4001: Extra characters on line
    1773 092C  66| 8B 0418		 mov ax,0[eax][ebx*1]
main.ASM(677): warning A4001: Extra characters on line
    1774 0930  98			 cwde 
main.ASM(678): warning A4001: Extra characters on line
    1775 0931  8B 1C24			 mov ebx,DWORD PTR [esp]
main.ASM(679): warning A4001: Extra characters on line
    1776 0934  C1 E0 10			 shl eax,16
main.ASM(680): warning A4001: Extra characters on line
    1777 0937  C1 F8 10			 sar eax,16
main.ASM(681): warning A4001: Extra characters on line
    1778 093A  C1 E0 02			 shl eax,2
main.ASM(682): warning A4001: Extra characters on line
    1779 093D  03 05 000004F0 R		 add eax,symval+1256
main.ASM(683): warning A4001: Extra characters on line
    1780 0943  8B 00			 mov eax,DWORD PTR [eax]
main.ASM(684): warning A4001: Extra characters on line
    1781 0945  BF 0000016A		 mov edi,362
main.ASM(685): warning A4001: Extra characters on line
    1782 094A  FF 15 00000D74 R		 call [symfnc+1448]
main.ASM(686): warning A4001: Extra characters on line
    1783 0950  3D F0000080		 cmp eax,30*08000000h+OFFSET 128
main.ASM(687): warning A4001: Extra characters on line
    1784 0955  0F 84 00000964 R		 je l0054
main.ASM(688): warning A4001: Extra characters on line
    1785 095B  8B 4424 08		 mov eax, DWORD PTR 8[esp]
main.ASM(689): warning A4001: Extra characters on line
    1786 095F  EB 42 90 90 90		 jmp l0052
main.ASM(690): warning A4001: Extra characters on line
    1787 0964				l0054:
    1788 0964  81 7C24 08 0000465D	 cmp  DWORD PTR 8[esp],18013
main.ASM(692): warning A4001: Extra characters on line
    1789 096C  0F 85 00000979 R		 jne l0055
main.ASM(693): warning A4001: Extra characters on line
    1790 0972  33 C0			 xor eax,eax
main.ASM(694): warning A4001: Extra characters on line
    1791 0974  EB 0A 90 90 90		 jmp l0056
main.ASM(695): warning A4001: Extra characters on line
    1792 0979				l0055:
    1793 0979  33 C0			 xor eax,eax
main.ASM(697): warning A4001: Extra characters on line
    1794 097B  40			 inc eax
main.ASM(698): warning A4001: Extra characters on line
    1795 097C  03 4424 08		 add eax, DWORD PTR 8[esp]
main.ASM(699): warning A4001: Extra characters on line
    1796 0980				l0056:
    1797 0980  89 4424 08		 mov  DWORD PTR 8[esp],eax
main.ASM(701): warning A4001: Extra characters on line
    1798 0984  3B 4424 04		 cmp eax, DWORD PTR 4[esp]
main.ASM(702): warning A4001: Extra characters on line
    1799 0988  0F 85 000008AC R		 jne l0048
main.ASM(703): warning A4001: Extra characters on line
    1800 098E  B8 085A R		 mov eax,4*08000000h+OFFSET l0046
main.ASM(704): warning A4001: Extra characters on line
    1801 0993  BF 00000156		 mov edi,342
main.ASM(705): warning A4001: Extra characters on line
Microsoft (R) Macro Assembler Version 5.10                  11/16/97 16:56:0
                                                             Page     1-35


    1802 0998  FF 15 00000D24 R		 call [symfnc+1368]
main.ASM(706): warning A4001: Extra characters on line
    1803 099E  E9 000008AC R		 jmp l0048
main.ASM(707): warning A4001: Extra characters on line
    1804 09A3				l0052:
    1805 09A3  83 C4 10			 add esp,16
main.ASM(709): warning A4001: Extra characters on line
    1806 09A6  C3			 ret 
main.ASM(710): warning A4001: Extra characters on line
    1807 09A7  00000002			 DD 2
    1808				; (*entry initialize-new-id expr 2)
    1809				 PUBLIC l0057
    1810 09AB				l0057:
    1811 09AB  89 4424 DC		 mov  DWORD PTR -36[esp],eax
main.ASM(715): warning A4001: Extra characters on line
    1812 09AF  83 EC 08			 sub esp,8
main.ASM(716): warning A4001: Extra characters on line
    1813 09B2  89 0424			 mov DWORD PTR [esp],eax
main.ASM(717): warning A4001: Extra characters on line
    1814 09B5  25 07FFFFFF		 and eax,134217727
main.ASM(718): warning A4001: Extra characters on line
    1815 09BA  0D F0000000		 or eax,-268435456
main.ASM(719): warning A4001: Extra characters on line
    1816 09BF  89 4424 04		 mov  DWORD PTR 4[esp],eax
main.ASM(720): warning A4001: Extra characters on line
    1817 09C3  8B 0C24			 mov ecx,DWORD PTR [esp]
main.ASM(721): warning A4001: Extra characters on line
    1818 09C6  C1 E1 02			 shl ecx,2
main.ASM(722): warning A4001: Extra characters on line
    1819 09C9  03 0D 000004F0 R		 add ecx,symval+1256
main.ASM(723): warning A4001: Extra characters on line
    1820 09CF  89 19			 mov DWORD PTR [ecx],ebx
main.ASM(724): warning A4001: Extra characters on line
    1821 09D1  8B 1424			 mov edx,DWORD PTR [esp]
main.ASM(725): warning A4001: Extra characters on line
    1822 09D4  C1 E2 02			 shl edx,2
main.ASM(726): warning A4001: Extra characters on line
    1823 09D7  03 15 000004E8 R		 add edx,symval+1248
main.ASM(727): warning A4001: Extra characters on line
    1824 09DD  BD F0000080		 mov ebp,30*08000000h+OFFSET 128
main.ASM(728): warning A4001: Extra characters on line
    1825 09E2  89 2A			 mov DWORD PTR [edx],ebp
main.ASM(729): warning A4001: Extra characters on line
    1826 09E4  8B 0424			 mov eax,DWORD PTR [esp]
main.ASM(730): warning A4001: Extra characters on line
    1827 09E7  C1 E0 02			 shl eax,2
main.ASM(731): warning A4001: Extra characters on line
    1828 09EA  03 05 000004D8 R		 add eax,symval+1232
main.ASM(732): warning A4001: Extra characters on line
    1829 09F0  8B 1C24			 mov ebx,DWORD PTR [esp]
main.ASM(733): warning A4001: Extra characters on line
    1830 09F3  81 E3 07FFFFFF		 and ebx,134217727
main.ASM(734): warning A4001: Extra characters on line
    1831 09F9  81 CB E8000000		 or ebx,-402653184
main.ASM(735): warning A4001: Extra characters on line
    1832 09FF  89 18			 mov DWORD PTR [eax],ebx
main.ASM(736): warning A4001: Extra characters on line
    1833 0A01  8B 0424			 mov eax,DWORD PTR [esp]
main.ASM(737): warning A4001: Extra characters on line
    1834 0A04  BF 0000016B		 mov edi,363
main.ASM(738): warning A4001: Extra characters on line
    1835 0A09  FF 15 00000D78 R		 call [symfnc+1452]
main.ASM(739): warning A4001: Extra characters on line
    1836 0A0F  8B 4424 04		 mov eax, DWORD PTR 4[esp]
main.ASM(740): warning A4001: Extra characters on line
    1837 0A13  83 C4 08			 add esp,8
main.ASM(741): warning A4001: Extra characters on line
    1838 0A16  C3			 ret 
main.ASM(742): warning A4001: Extra characters on line
    1839 0A17  00000001			 DD 1
    1840				; (*entry hash-function expr 1)
    1841				 PUBLIC l0060
    1842 0A1B				l0060:
    1843 0A1B  89 4424 D0		 mov  DWORD PTR -48[esp],eax
main.ASM(747): warning A4001: Extra characters on line
    1844 0A1F  83 EC 14			 sub esp,20
main.ASM(748): warning A4001: Extra characters on line
    1845 0A22  BF F0000080		 mov edi,30*08000000h+OFFSET 128
main.ASM(749): warning A4001: Extra characters on line
    1846 0A27  89 7C24 0C		 mov  DWORD PTR 12[esp],edi
main.ASM(750): warning A4001: Extra characters on line
    1847 0A2B  89 7C24 04		 mov  DWORD PTR 4[esp],edi
main.ASM(751): warning A4001: Extra characters on line
    1848 0A2F  25 07FFFFFF		 and eax,134217727
main.ASM(752): warning A4001: Extra characters on line
    1849 0A34  89 4424 08		 mov  DWORD PTR 8[esp],eax
main.ASM(753): warning A4001: Extra characters on line
    1850 0A38  8B 00			 mov eax,DWORD PTR [eax]
main.ASM(754): warning A4001: Extra characters on line
    1851 0A3A  C1 E0 05			 shl eax,5
main.ASM(755): warning A4001: Extra characters on line
    1852 0A3D  C1 F8 05			 sar eax,5
main.ASM(756): warning A4001: Extra characters on line
    1853 0A40  89 0424			 mov DWORD PTR [esp],eax
main.ASM(757): warning A4001: Extra characters on line
    1854 0A43  33 C0			 xor eax,eax
main.ASM(758): warning A4001: Extra characters on line
    1855 0A45  89 4424 10		 mov  DWORD PTR 16[esp],eax
main.ASM(759): warning A4001: Extra characters on line
Microsoft (R) Macro Assembler Version 5.10                  11/16/97 16:56:0
                                                             Page     1-36


    1856 0A49  83 3C24 18		 cmp DWORD PTR [esp],24
main.ASM(760): warning A4001: Extra characters on line
    1857 0A4D  0F 8E 00000A5A R		 jle l0061
main.ASM(761): warning A4001: Extra characters on line
    1858 0A53  C7 0424 00000018		 mov DWORD PTR [esp],24
main.ASM(762): warning A4001: Extra characters on line
    1859 0A5A				l0061:
    1860 0A5A  8B 1C24			 mov ebx,DWORD PTR [esp]
main.ASM(764): warning A4001: Extra characters on line
    1861 0A5D  33 C0			 xor eax,eax
main.ASM(765): warning A4001: Extra characters on line
    1862 0A5F  89 4424 0C		 mov  DWORD PTR 12[esp],eax
main.ASM(766): warning A4001: Extra characters on line
    1863 0A63  89 5C24 04		 mov  DWORD PTR 4[esp],ebx
main.ASM(767): warning A4001: Extra characters on line
    1864 0A67				l0062:
    1865 0A67  8B 7C24 0C		 mov edi, DWORD PTR 12[esp]
main.ASM(769): warning A4001: Extra characters on line
    1866 0A6B  3B 7C24 04		 cmp edi, DWORD PTR 4[esp]
main.ASM(770): warning A4001: Extra characters on line
    1867 0A6F  0F 8F 00000ABB R		 jg l0063
main.ASM(771): warning A4001: Extra characters on line
    1868 0A75  8B 5C24 0C		 mov ebx, DWORD PTR 12[esp]
main.ASM(772): warning A4001: Extra characters on line
    1869 0A79  B8 00000004		 mov eax,4
main.ASM(773): warning A4001: Extra characters on line
    1870 0A7E  03 4424 08		 add eax, DWORD PTR 8[esp]
main.ASM(774): warning A4001: Extra characters on line
    1871 0A82  8A 0418			 mov al,0[eax][ebx*1]
main.ASM(775): warning A4001: Extra characters on line
    1872 0A85  66| 98			 cbw 
main.ASM(776): warning A4001: Extra characters on line
    1873 0A87  98			 cwde 
main.ASM(777): warning A4001: Extra characters on line
    1874 0A88  BB 00000018		 mov ebx,24
main.ASM(778): warning A4001: Extra characters on line
    1875 0A8D  2B 5C24 0C		 sub ebx, DWORD PTR 12[esp]
main.ASM(779): warning A4001: Extra characters on line
    1876 0A91  83 FB 00			 cmp ebx,0
main.ASM(780): warning A4001: Extra characters on line
    1877 0A94  0F 8D 00000AA5 R		 jge l0058
main.ASM(781): warning A4001: Extra characters on line
    1878 0A9A  F7 DB			 neg ebx
main.ASM(782): warning A4001: Extra characters on line
    1879 0A9C  87 CB			 xchg ecx,ebx
main.ASM(783): warning A4001: Extra characters on line
    1880 0A9E  D3 E8			 shr eax,cl
main.ASM(784): warning A4001: Extra characters on line
    1881 0AA0  EB 07 90 90 90		 jmp l0059
main.ASM(785): warning A4001: Extra characters on line
    1882 0AA5				l0058:
    1883 0AA5  87 CB			 xchg ecx,ebx
main.ASM(787): warning A4001: Extra characters on line
    1884 0AA7  D3 E0			 shl eax,cl
main.ASM(788): warning A4001: Extra characters on line
    1885 0AA9				l0059:
    1886 0AA9  87 CB			 xchg ecx,ebx
main.ASM(790): warning A4001: Extra characters on line
    1887 0AAB  8B 7C24 10		 mov edi, DWORD PTR 16[esp]
main.ASM(791): warning A4001: Extra characters on line
    1888 0AAF  33 C7			 xor eax,edi
main.ASM(792): warning A4001: Extra characters on line
    1889 0AB1  89 4424 10		 mov  DWORD PTR 16[esp],eax
main.ASM(793): warning A4001: Extra characters on line
    1890 0AB5  FF 4424 0C		 inc  DWORD PTR 12[esp]
main.ASM(794): warning A4001: Extra characters on line
    1891 0AB9  EB AC			 jmp l0062
main.ASM(795): warning A4001: Extra characters on line
    1892 0ABB				l0063:
    1893 0ABB  BB 0000465D		 mov ebx,18013
main.ASM(797): warning A4001: Extra characters on line
    1894 0AC0  8B 4424 10		 mov eax, DWORD PTR 16[esp]
main.ASM(798): warning A4001: Extra characters on line
    1895 0AC4  83 C4 14			 add esp,20
main.ASM(799): warning A4001: Extra characters on line
    1896 0AC7  99			 cdq 
main.ASM(800): warning A4001: Extra characters on line
    1897 0AC8  F7 FB			 idiv ebx
main.ASM(801): warning A4001: Extra characters on line
    1898 0ACA  8B C2			 mov eax,edx
main.ASM(802): warning A4001: Extra characters on line
    1899 0ACC  C3			 ret 
main.ASM(803): warning A4001: Extra characters on line
    1900 0ACD  00000001			 DD 1
    1901				; (*entry faslin expr 1)
    1902				 PUBLIC faslin
    1903 0AD1				faslin:
    1904 0AD1  89 4424 B8		 mov  DWORD PTR -72[esp],eax
main.ASM(808): warning A4001: Extra characters on line
    1905 0AD5  83 EC 2C			 sub esp,44
main.ASM(809): warning A4001: Extra characters on line
    1906 0AD8  BF F0000080		 mov edi,30*08000000h+OFFSET 128
main.ASM(810): warning A4001: Extra characters on line
    1907 0ADD  89 7C24 20		 mov  DWORD PTR 32[esp],edi
main.ASM(811): warning A4001: Extra characters on line
    1908 0AE1  89 7C24 0C		 mov  DWORD PTR 12[esp],edi
main.ASM(812): warning A4001: Extra characters on line
    1909 0AE5  89 7C24 08		 mov  DWORD PTR 8[esp],edi
main.ASM(813): warning A4001: Extra characters on line
Microsoft (R) Macro Assembler Version 5.10                  11/16/97 16:56:0
                                                             Page     1-37


    1910 0AE9  89 0424			 mov DWORD PTR [esp],eax
main.ASM(814): warning A4001: Extra characters on line
    1911 0AEC  C7 4424 10 F0000080	 mov  DWORD PTR 16[esp],30*08000000h+OF
					FSET 128
main.ASM(815): warning A4001: Extra characters on line
    1912 0AF4  C7 4424 18 F0000080	 mov  DWORD PTR 24[esp],30*08000000h+OF
					FSET 128
main.ASM(816): warning A4001: Extra characters on line
    1913 0AFC  C7 4424 1C F0000080	 mov  DWORD PTR 28[esp],30*08000000h+OF
					FSET 128
main.ASM(817): warning A4001: Extra characters on line
    1914 0B04  C7 4424 28 F0000080	 mov  DWORD PTR 40[esp],30*08000000h+OF
					FSET 128
main.ASM(818): warning A4001: Extra characters on line
    1915 0B0C  C7 4424 04 F0000080	 mov  DWORD PTR 4[esp],30*08000000h+OFF
					SET 128
main.ASM(819): warning A4001: Extra characters on line
    1916 0B14  C7 4424 14 F0000080	 mov  DWORD PTR 20[esp],30*08000000h+OF
					FSET 128
main.ASM(820): warning A4001: Extra characters on line
    1917 0B1C  C7 4424 24 F0000080	 mov  DWORD PTR 36[esp],30*08000000h+OF
					FSET 128
main.ASM(821): warning A4001: Extra characters on line
    1918 0B24  BF 00000157		 mov edi,343
main.ASM(822): warning A4001: Extra characters on line
    1919 0B29  FF 15 00000D28 R		 call [symfnc+1372]
main.ASM(823): warning A4001: Extra characters on line
    1920 0B2F  89 4424 08		 mov  DWORD PTR 8[esp],eax
main.ASM(824): warning A4001: Extra characters on line
    1921 0B33  BF 00000159		 mov edi,345
main.ASM(825): warning A4001: Extra characters on line
    1922 0B38  FF 15 00000D30 R		 call [symfnc+1380]
main.ASM(826): warning A4001: Extra characters on line
    1923 0B3E  89 4424 0C		 mov  DWORD PTR 12[esp],eax
main.ASM(827): warning A4001: Extra characters on line
    1924 0B42  BB 0000FFFF		 mov ebx,65535
main.ASM(828): warning A4001: Extra characters on line
    1925 0B47  23 D8			 and ebx,eax
main.ASM(829): warning A4001: Extra characters on line
    1926 0B49  81 FB 0000018F		 cmp ebx,399
main.ASM(830): warning A4001: Extra characters on line
    1927 0B4F  0F 84 00000B77 R		 je l0064
main.ASM(831): warning A4001: Extra characters on line
    1928 0B55  8B 4424 08		 mov eax, DWORD PTR 8[esp]
main.ASM(832): warning A4001: Extra characters on line
    1929 0B59  BF 0000015D		 mov edi,349
main.ASM(833): warning A4001: Extra characters on line
    1930 0B5E  FF 15 00000D40 R		 call [symfnc+1396]
main.ASM(834): warning A4001: Extra characters on line
    1931 0B64  8B 0424			 mov eax,DWORD PTR [esp]
main.ASM(835): warning A4001: Extra characters on line
    1932 0B67  BF 0000016C		 mov edi,364
main.ASM(836): warning A4001: Extra characters on line
    1933 0B6C  FF 15 00000D7C R		 call [symfnc+1456]
main.ASM(837): warning A4001: Extra characters on line
    1934 0B72  E9 00000CDF R		 jmp l0065
main.ASM(838): warning A4001: Extra characters on line
    1935 0B77				l0064:
    1936 0B77  8B 4424 0C		 mov eax, DWORD PTR 12[esp]
main.ASM(840): warning A4001: Extra characters on line
    1937 0B7B  C1 E8 10			 shr eax,16
main.ASM(841): warning A4001: Extra characters on line
    1938 0B7E  89 4424 0C		 mov  DWORD PTR 12[esp],eax
main.ASM(842): warning A4001: Extra characters on line
    1939 0B82  8B 4424 08		 mov eax, DWORD PTR 8[esp]
main.ASM(843): warning A4001: Extra characters on line
    1940 0B86  BF 0000016D		 mov edi,365
main.ASM(844): warning A4001: Extra characters on line
    1941 0B8B  FF 15 00000D80 R		 call [symfnc+1460]
main.ASM(845): warning A4001: Extra characters on line
    1942 0B91  89 4424 10		 mov  DWORD PTR 16[esp],eax
main.ASM(846): warning A4001: Extra characters on line
    1943 0B95  8B 4424 08		 mov eax, DWORD PTR 8[esp]
main.ASM(847): warning A4001: Extra characters on line
    1944 0B99  BF 00000159		 mov edi,345
main.ASM(848): warning A4001: Extra characters on line
    1945 0B9E  FF 15 00000D30 R		 call [symfnc+1380]
main.ASM(849): warning A4001: Extra characters on line
    1946 0BA4  89 4424 18		 mov  DWORD PTR 24[esp],eax
main.ASM(850): warning A4001: Extra characters on line
    1947 0BA8  BF 0000016E		 mov edi,366
main.ASM(851): warning A4001: Extra characters on line
    1948 0BAD  FF 15 00000D84 R		 call [symfnc+1464]
main.ASM(852): warning A4001: Extra characters on line
    1949 0BB3  89 4424 1C		 mov  DWORD PTR 28[esp],eax
main.ASM(853): warning A4001: Extra characters on line
    1950 0BB7  33 C0			 xor eax,eax
main.ASM(854): warning A4001: Extra characters on line
    1951 0BB9  BF 0000016E		 mov edi,366
main.ASM(855): warning A4001: Extra characters on line
    1952 0BBE  FF 15 00000D84 R		 call [symfnc+1464]
main.ASM(856): warning A4001: Extra characters on line
    1953 0BC4  89 4424 24		 mov  DWORD PTR 36[esp],eax
main.ASM(857): warning A4001: Extra characters on line
    1954 0BC8  8B 4424 08		 mov eax, DWORD PTR 8[esp]
main.ASM(858): warning A4001: Extra characters on line
    1955 0BCC  BF 00000159		 mov edi,345
main.ASM(859): warning A4001: Extra characters on line
    1956 0BD1  FF 15 00000D30 R		 call [symfnc+1380]
main.ASM(860): warning A4001: Extra characters on line
Microsoft (R) Macro Assembler Version 5.10                  11/16/97 16:56:0
                                                             Page     1-38


    1957 0BD7  8B 5C24 1C		 mov ebx, DWORD PTR 28[esp]
main.ASM(861): warning A4001: Extra characters on line
    1958 0BDB  03 D8			 add ebx,eax
main.ASM(862): warning A4001: Extra characters on line
    1959 0BDD  89 5C24 28		 mov  DWORD PTR 40[esp],ebx
main.ASM(863): warning A4001: Extra characters on line
    1960 0BE1  8B 4C24 18		 mov ecx, DWORD PTR 24[esp]
main.ASM(864): warning A4001: Extra characters on line
    1961 0BE5  33 DB			 xor ebx,ebx
main.ASM(865): warning A4001: Extra characters on line
    1962 0BE7  03 5C24 1C		 add ebx, DWORD PTR 28[esp]
main.ASM(866): warning A4001: Extra characters on line
    1963 0BEB  8B 4424 08		 mov eax, DWORD PTR 8[esp]
main.ASM(867): warning A4001: Extra characters on line
    1964 0BEF  BF 0000015B		 mov edi,347
main.ASM(868): warning A4001: Extra characters on line
    1965 0BF4  FF 15 00000D38 R		 call [symfnc+1388]
main.ASM(869): warning A4001: Extra characters on line
    1966 0BFA  8B 4424 08		 mov eax, DWORD PTR 8[esp]
main.ASM(870): warning A4001: Extra characters on line
    1967 0BFE  BF 00000159		 mov edi,345
main.ASM(871): warning A4001: Extra characters on line
    1968 0C03  FF 15 00000D30 R		 call [symfnc+1380]
main.ASM(872): warning A4001: Extra characters on line
    1969 0C09  89 4424 04		 mov  DWORD PTR 4[esp],eax
main.ASM(873): warning A4001: Extra characters on line
    1970 0C0D  BF 0000016F		 mov edi,367
main.ASM(874): warning A4001: Extra characters on line
    1971 0C12  FF 15 00000D88 R		 call [symfnc+1468]
main.ASM(875): warning A4001: Extra characters on line
    1972 0C18  8B D8			 mov ebx,eax
main.ASM(876): warning A4001: Extra characters on line
    1973 0C1A  81 E3 07FFFFFF		 and ebx,134217727
main.ASM(877): warning A4001: Extra characters on line
    1974 0C20  81 CB 38000000		 or ebx,939524096
main.ASM(878): warning A4001: Extra characters on line
    1975 0C26  89 5C24 14		 mov  DWORD PTR 20[esp],ebx
main.ASM(879): warning A4001: Extra characters on line
    1976 0C2A  8B 4C24 04		 mov ecx, DWORD PTR 4[esp]
main.ASM(880): warning A4001: Extra characters on line
    1977 0C2E  81 E3 07FFFFFF		 and ebx,134217727
main.ASM(881): warning A4001: Extra characters on line
    1978 0C34  83 C3 04			 add ebx,4
main.ASM(882): warning A4001: Extra characters on line
    1979 0C37  8B 4424 08		 mov eax, DWORD PTR 8[esp]
main.ASM(883): warning A4001: Extra characters on line
    1980 0C3B  BF 0000015B		 mov edi,347
main.ASM(884): warning A4001: Extra characters on line
    1981 0C40  FF 15 00000D38 R		 call [symfnc+1388]
main.ASM(885): warning A4001: Extra characters on line
    1982 0C46  8B 4424 08		 mov eax, DWORD PTR 8[esp]
main.ASM(886): warning A4001: Extra characters on line
    1983 0C4A  BF 0000015D		 mov edi,349
main.ASM(887): warning A4001: Extra characters on line
    1984 0C4F  FF 15 00000D40 R		 call [symfnc+1396]
main.ASM(888): warning A4001: Extra characters on line
    1985 0C55  33 C0			 xor eax,eax
main.ASM(889): warning A4001: Extra characters on line
    1986 0C57  40			 inc eax
main.ASM(890): warning A4001: Extra characters on line
    1987 0C58  23 4424 0C		 and eax, DWORD PTR 12[esp]
main.ASM(891): warning A4001: Extra characters on line
    1988 0C5C  83 F8 01			 cmp eax,1
main.ASM(892): warning A4001: Extra characters on line
    1989 0C5F  0F 85 00000C85 R		 jne l0066
main.ASM(893): warning A4001: Extra characters on line
    1990 0C65  8B 5424 10		 mov edx, DWORD PTR 16[esp]
main.ASM(894): warning A4001: Extra characters on line
    1991 0C69  8B 4C24 14		 mov ecx, DWORD PTR 20[esp]
main.ASM(895): warning A4001: Extra characters on line
    1992 0C6D  8B 5C24 18		 mov ebx, DWORD PTR 24[esp]
main.ASM(896): warning A4001: Extra characters on line
    1993 0C71  8B 4424 1C		 mov eax, DWORD PTR 28[esp]
main.ASM(897): warning A4001: Extra characters on line
    1994 0C75  BF 00000170		 mov edi,368
main.ASM(898): warning A4001: Extra characters on line
    1995 0C7A  FF 15 00000D8C R		 call [symfnc+1472]
main.ASM(899): warning A4001: Extra characters on line
    1996 0C80  EB 1E 90 90 90		 jmp l0067
main.ASM(900): warning A4001: Extra characters on line
    1997 0C85				l0066:
    1998 0C85  8B 5424 10		 mov edx, DWORD PTR 16[esp]
main.ASM(902): warning A4001: Extra characters on line
    1999 0C89  8B 4C24 14		 mov ecx, DWORD PTR 20[esp]
main.ASM(903): warning A4001: Extra characters on line
    2000 0C8D  8B 5C24 18		 mov ebx, DWORD PTR 24[esp]
main.ASM(904): warning A4001: Extra characters on line
    2001 0C91  8B 4424 1C		 mov eax, DWORD PTR 28[esp]
main.ASM(905): warning A4001: Extra characters on line
    2002 0C95  BF 00000171		 mov edi,369
main.ASM(906): warning A4001: Extra characters on line
    2003 0C9A  FF 15 00000D90 R		 call [symfnc+1476]
main.ASM(907): warning A4001: Extra characters on line
    2004 0CA0				l0067:
    2005 0CA0  A1 000005D8 R		 mov eax,symval+1488
main.ASM(909): warning A4001: Extra characters on line
    2006 0CA5  89 4424 20		 mov  DWORD PTR 32[esp],eax
main.ASM(910): warning A4001: Extra characters on line
    2007 0CA9  8B 7C24 1C		 mov edi, DWORD PTR 28[esp]
main.ASM(911): warning A4001: Extra characters on line
    2008 0CAD  89 3D 000005D8 R		 mov ds:symval+1488,edi
main.ASM(912): warning A4001: Extra characters on line
    2009 0CB3  8B 4424 28		 mov eax, DWORD PTR 40[esp]
main.ASM(913): warning A4001: Extra characters on line
    2010 0CB7  BF 00000172		 mov edi,370
main.ASM(914): warning A4001: Extra characters on line
Microsoft (R) Macro Assembler Version 5.10                  11/16/97 16:56:0
                                                             Page     1-39


    2011 0CBC  FF 15 00000D94 R		 call [symfnc+1480]
main.ASM(915): warning A4001: Extra characters on line
    2012 0CC2  8B 7C24 20		 mov edi, DWORD PTR 32[esp]
main.ASM(916): warning A4001: Extra characters on line
    2013 0CC6  89 3D 000005D8 R		 mov ds:symval+1488,edi
main.ASM(917): warning A4001: Extra characters on line
    2014 0CCC  8B 5C24 24		 mov ebx, DWORD PTR 36[esp]
main.ASM(918): warning A4001: Extra characters on line
    2015 0CD0  8B 4424 28		 mov eax, DWORD PTR 40[esp]
main.ASM(919): warning A4001: Extra characters on line
    2016 0CD4  BF 00000173		 mov edi,371
main.ASM(920): warning A4001: Extra characters on line
    2017 0CD9  FF 15 00000D98 R		 call [symfnc+1484]
main.ASM(921): warning A4001: Extra characters on line
    2018 0CDF				l0065:
    2019 0CDF  B8 F0000080		 mov eax,30*08000000h+OFFSET 128
main.ASM(923): warning A4001: Extra characters on line
    2020 0CE4  83 C4 2C			 add esp,44
main.ASM(924): warning A4001: Extra characters on line
    2021 0CE7  C3			 ret 
main.ASM(925): warning A4001: Extra characters on line
    2022 0CE8  00000002			 DD 2
    2023				; (*entry delbps expr 2)
    2024				 PUBLIC delbps
    2025 0CEC				delbps:
    2026 0CEC  B8 F0000080		 mov eax,30*08000000h+OFFSET 128
main.ASM(930): warning A4001: Extra characters on line
    2027 0CF1  C3			 ret 
main.ASM(931): warning A4001: Extra characters on line
    2028 0CF2  00000004			 DD 4
    2029				; (*entry do-relocation expr 4)
    2030				 PUBLIC l0068
    2031 0CF6				l0068:
    2032 0CF6  89 4424 CC		 mov  DWORD PTR -52[esp],eax
main.ASM(936): warning A4001: Extra characters on line
    2033 0CFA  83 EC 18			 sub esp,24
main.ASM(937): warning A4001: Extra characters on line
    2034 0CFD  BF F0000080		 mov edi,30*08000000h+OFFSET 128
main.ASM(938): warning A4001: Extra characters on line
    2035 0D02  89 7C24 10		 mov  DWORD PTR 16[esp],edi
main.ASM(939): warning A4001: Extra characters on line
    2036 0D06  89 4424 0C		 mov  DWORD PTR 12[esp],eax
main.ASM(940): warning A4001: Extra characters on line
    2037 0D0A  89 4C24 04		 mov  DWORD PTR 4[esp],ecx
main.ASM(941): warning A4001: Extra characters on line
    2038 0D0E  89 5424 08		 mov  DWORD PTR 8[esp],edx
main.ASM(942): warning A4001: Extra characters on line
    2039 0D12  8B C3			 mov eax,ebx
main.ASM(943): warning A4001: Extra characters on line
    2040 0D14  C1 E0 02			 shl eax,2
main.ASM(944): warning A4001: Extra characters on line
    2041 0D17  33 DB			 xor ebx,ebx
main.ASM(945): warning A4001: Extra characters on line
    2042 0D19  4B			 dec ebx
main.ASM(946): warning A4001: Extra characters on line
    2043 0D1A  03 D8			 add ebx,eax
main.ASM(947): warning A4001: Extra characters on line
    2044 0D1C  33 C0			 xor eax,eax
main.ASM(948): warning A4001: Extra characters on line
    2045 0D1E  89 4424 14		 mov  DWORD PTR 20[esp],eax
main.ASM(949): warning A4001: Extra characters on line
    2046 0D22  89 1C24			 mov DWORD PTR [esp],ebx
main.ASM(950): warning A4001: Extra characters on line
    2047 0D25				l0069:
    2048 0D25  8B 7C24 14		 mov edi, DWORD PTR 20[esp]
main.ASM(952): warning A4001: Extra characters on line
    2049 0D29  3B 3C24			 cmp edi,DWORD PTR [esp]
main.ASM(953): warning A4001: Extra characters on line
    2050 0D2C  0F 8E 00000D3C R		 jle l0070
main.ASM(954): warning A4001: Extra characters on line
    2051 0D32  B8 F0000080		 mov eax,30*08000000h+OFFSET 128
main.ASM(955): warning A4001: Extra characters on line
    2052 0D37  E9 00000DEB R		 jmp l0071
main.ASM(956): warning A4001: Extra characters on line
    2053 0D3C				l0070:
    2054 0D3C  8B 5C24 14		 mov ebx, DWORD PTR 20[esp]
main.ASM(958): warning A4001: Extra characters on line
    2055 0D40  8B 4424 04		 mov eax, DWORD PTR 4[esp]
main.ASM(959): warning A4001: Extra characters on line
    2056 0D44  25 07FFFFFF		 and eax,134217727
main.ASM(960): warning A4001: Extra characters on line
    2057 0D49  83 C0 04			 add eax,4
main.ASM(961): warning A4001: Extra characters on line
    2058 0D4C  8B EB			 mov ebp,ebx
main.ASM(962): warning A4001: Extra characters on line
    2059 0D4E  C1 EB 02			 shr ebx,2
main.ASM(963): warning A4001: Extra characters on line
    2060 0D51  8A 0418			 mov al,0[eax][ebx*1]
main.ASM(964): warning A4001: Extra characters on line
    2061 0D54  8B DD			 mov ebx,ebp
main.ASM(965): warning A4001: Extra characters on line
    2062 0D56  83 E3 03			 and ebx,3
main.ASM(966): warning A4001: Extra characters on line
    2063 0D59  03 DB			 add ebx,ebx
main.ASM(967): warning A4001: Extra characters on line
    2064 0D5B  83 C3 FA			 add ebx,-6
main.ASM(968): warning A4001: Extra characters on line
Microsoft (R) Macro Assembler Version 5.10                  11/16/97 16:56:0
                                                             Page     1-40


    2065 0D5E  F7 DB			 neg ebx
main.ASM(969): warning A4001: Extra characters on line
    2066 0D60  87 CB			 xchg ecx,ebx
main.ASM(970): warning A4001: Extra characters on line
    2067 0D62  D3 E8			 shr eax,cl
main.ASM(971): warning A4001: Extra characters on line
    2068 0D64  83 E0 03			 and eax,3
main.ASM(972): warning A4001: Extra characters on line
    2069 0D67  8B 5C24 0C		 mov ebx, DWORD PTR 12[esp]
main.ASM(973): warning A4001: Extra characters on line
    2070 0D6B  03 5C24 14		 add ebx, DWORD PTR 20[esp]
main.ASM(974): warning A4001: Extra characters on line
    2071 0D6F  89 5C24 10		 mov  DWORD PTR 16[esp],ebx
main.ASM(975): warning A4001: Extra characters on line
    2072 0D73  83 F8 01			 cmp eax,1
main.ASM(976): warning A4001: Extra characters on line
    2073 0D76  0F 84 00000D93 R		 je l0072
main.ASM(977): warning A4001: Extra characters on line
    2074 0D7C  83 F8 02			 cmp eax,2
main.ASM(978): warning A4001: Extra characters on line
    2075 0D7F  0F 84 00000DCB R		 je l0073
main.ASM(979): warning A4001: Extra characters on line
    2076 0D85  83 F8 03			 cmp eax,3
main.ASM(980): warning A4001: Extra characters on line
    2077 0D88  0F 84 00000DAF R		 je l0074
main.ASM(981): warning A4001: Extra characters on line
    2078 0D8E  EB 52 90 90 90		 jmp l0075
main.ASM(982): warning A4001: Extra characters on line
    2079 0D93				l0072:
    2080 0D93  8B 4C24 08		 mov ecx, DWORD PTR 8[esp]
main.ASM(984): warning A4001: Extra characters on line
    2081 0D97  8B 5C24 0C		 mov ebx, DWORD PTR 12[esp]
main.ASM(985): warning A4001: Extra characters on line
    2082 0D9B  8B 4424 10		 mov eax, DWORD PTR 16[esp]
main.ASM(986): warning A4001: Extra characters on line
    2083 0D9F  BF 00000175		 mov edi,373
main.ASM(987): warning A4001: Extra characters on line
    2084 0DA4  FF 15 00000DA0 R		 call [symfnc+1492]
main.ASM(988): warning A4001: Extra characters on line
    2085 0DAA  EB 36 90 90 90		 jmp l0075
main.ASM(989): warning A4001: Extra characters on line
    2086 0DAF				l0074:
    2087 0DAF  8B 4C24 08		 mov ecx, DWORD PTR 8[esp]
main.ASM(991): warning A4001: Extra characters on line
    2088 0DB3  8B 5C24 0C		 mov ebx, DWORD PTR 12[esp]
main.ASM(992): warning A4001: Extra characters on line
    2089 0DB7  8B 4424 10		 mov eax, DWORD PTR 16[esp]
main.ASM(993): warning A4001: Extra characters on line
    2090 0DBB  BF 00000176		 mov edi,374
main.ASM(994): warning A4001: Extra characters on line
    2091 0DC0  FF 15 00000DA4 R		 call [symfnc+1496]
main.ASM(995): warning A4001: Extra characters on line
    2092 0DC6  EB 1A 90 90 90		 jmp l0075
main.ASM(996): warning A4001: Extra characters on line
    2093 0DCB				l0073:
    2094 0DCB  8B 4C24 08		 mov ecx, DWORD PTR 8[esp]
main.ASM(998): warning A4001: Extra characters on line
    2095 0DCF  8B 5C24 0C		 mov ebx, DWORD PTR 12[esp]
main.ASM(999): warning A4001: Extra characters on line
    2096 0DD3  8B 4424 10		 mov eax, DWORD PTR 16[esp]
main.ASM(1000): warning A4001: Extra characters on line
    2097 0DD7  BF 00000177		 mov edi,375
main.ASM(1001): warning A4001: Extra characters on line
    2098 0DDC  FF 15 00000DA8 R		 call [symfnc+1500]
main.ASM(1002): warning A4001: Extra characters on line
    2099 0DE2				l0075:
    2100 0DE2  FF 4424 14		 inc  DWORD PTR 20[esp]
main.ASM(1004): warning A4001: Extra characters on line
    2101 0DE6  E9 00000D25 R		 jmp l0069
main.ASM(1005): warning A4001: Extra characters on line
    2102 0DEB				l0071:
    2103 0DEB  83 C4 18			 add esp,24
main.ASM(1007): warning A4001: Extra characters on line
    2104 0DEE  C3			 ret 
main.ASM(1008): warning A4001: Extra characters on line
    2105 0DEF  00000004			 DD 4
    2106				; (*entry do-relocation-new expr 4)
    2107				 PUBLIC l0076
    2108 0DF3				l0076:
    2109 0DF3  89 4424 CC		 mov  DWORD PTR -52[esp],eax
main.ASM(1013): warning A4001: Extra characters on line
    2110 0DF7  83 EC 18			 sub esp,24
main.ASM(1014): warning A4001: Extra characters on line
    2111 0DFA  BF F0000080		 mov edi,30*08000000h+OFFSET 128
main.ASM(1015): warning A4001: Extra characters on line
    2112 0DFF  89 7C24 08		 mov  DWORD PTR 8[esp],edi
main.ASM(1016): warning A4001: Extra characters on line
    2113 0E03  89 4424 10		 mov  DWORD PTR 16[esp],eax
main.ASM(1017): warning A4001: Extra characters on line
    2114 0E07  89 0C24			 mov DWORD PTR [esp],ecx
main.ASM(1018): warning A4001: Extra characters on line
    2115 0E0A  89 5424 0C		 mov  DWORD PTR 12[esp],edx
main.ASM(1019): warning A4001: Extra characters on line
    2116 0E0E  B9 F0000080		 mov ecx,30*08000000h+OFFSET 128
main.ASM(1020): warning A4001: Extra characters on line
    2117 0E13  8B D8			 mov ebx,eax
main.ASM(1021): warning A4001: Extra characters on line
    2118 0E15  33 C0			 xor eax,eax
main.ASM(1022): warning A4001: Extra characters on line
Microsoft (R) Macro Assembler Version 5.10                  11/16/97 16:56:0
                                                             Page     1-41


    2119 0E17  89 4424 04		 mov  DWORD PTR 4[esp],eax
main.ASM(1023): warning A4001: Extra characters on line
    2120 0E1B  89 5C24 14		 mov  DWORD PTR 20[esp],ebx
main.ASM(1024): warning A4001: Extra characters on line
    2121 0E1F  8B 2C24			 mov ebp,DWORD PTR [esp]
main.ASM(1025): warning A4001: Extra characters on line
    2122 0E22  81 E5 07FFFFFF		 and ebp,134217727
main.ASM(1026): warning A4001: Extra characters on line
    2123 0E28  83 C5 04			 add ebp,4
main.ASM(1027): warning A4001: Extra characters on line
    2124 0E2B  89 2C24			 mov DWORD PTR [esp],ebp
main.ASM(1028): warning A4001: Extra characters on line
    2125 0E2E				l0077:
    2126 0E2E  8B 5C24 04		 mov ebx, DWORD PTR 4[esp]
main.ASM(1030): warning A4001: Extra characters on line
    2127 0E32  8B 0424			 mov eax,DWORD PTR [esp]
main.ASM(1031): warning A4001: Extra characters on line
    2128 0E35  8A 0418			 mov al,0[eax][ebx*1]
main.ASM(1032): warning A4001: Extra characters on line
    2129 0E38  66| 98			 cbw 
main.ASM(1033): warning A4001: Extra characters on line
    2130 0E3A  98			 cwde 
main.ASM(1034): warning A4001: Extra characters on line
    2131 0E3B  25 000000FF		 and eax,255
main.ASM(1035): warning A4001: Extra characters on line
    2132 0E40  89 4424 08		 mov  DWORD PTR 8[esp],eax
main.ASM(1036): warning A4001: Extra characters on line
    2133 0E44  83 F8 00			 cmp eax,0
main.ASM(1037): warning A4001: Extra characters on line
    2134 0E47  0F 85 00000E57 R		 jne l0078
main.ASM(1038): warning A4001: Extra characters on line
    2135 0E4D  B8 F0000080		 mov eax,30*08000000h+OFFSET 128
main.ASM(1039): warning A4001: Extra characters on line
    2136 0E52  E9 00000EEA R		 jmp l0079
main.ASM(1040): warning A4001: Extra characters on line
    2137 0E57				l0078:
    2138 0E57  FF 4424 04		 inc  DWORD PTR 4[esp]
main.ASM(1042): warning A4001: Extra characters on line
    2139 0E5B  B8 0000003F		 mov eax,63
main.ASM(1043): warning A4001: Extra characters on line
    2140 0E60  23 4424 08		 and eax, DWORD PTR 8[esp]
main.ASM(1044): warning A4001: Extra characters on line
    2141 0E64  03 4424 14		 add eax, DWORD PTR 20[esp]
main.ASM(1045): warning A4001: Extra characters on line
    2142 0E68  89 4424 14		 mov  DWORD PTR 20[esp],eax
main.ASM(1046): warning A4001: Extra characters on line
    2143 0E6C  8B 5C24 08		 mov ebx, DWORD PTR 8[esp]
main.ASM(1047): warning A4001: Extra characters on line
    2144 0E70  C1 EB 06			 shr ebx,6
main.ASM(1048): warning A4001: Extra characters on line
    2145 0E73  89 5C24 08		 mov  DWORD PTR 8[esp],ebx
main.ASM(1049): warning A4001: Extra characters on line
    2146 0E77  8B C3			 mov eax,ebx
main.ASM(1050): warning A4001: Extra characters on line
    2147 0E79  83 F8 01			 cmp eax,1
main.ASM(1051): warning A4001: Extra characters on line
    2148 0E7C  0F 84 00000E96 R		 je l0080
main.ASM(1052): warning A4001: Extra characters on line
    2149 0E82  83 F8 02			 cmp eax,2
main.ASM(1053): warning A4001: Extra characters on line
    2150 0E85  0F 84 00000ECE R		 je l0081
main.ASM(1054): warning A4001: Extra characters on line
    2151 0E8B  83 F8 03			 cmp eax,3
main.ASM(1055): warning A4001: Extra characters on line
    2152 0E8E  0F 84 00000EB2 R		 je l0082
main.ASM(1056): warning A4001: Extra characters on line
    2153 0E94  EB 98			 jmp l0077
main.ASM(1057): warning A4001: Extra characters on line
    2154 0E96				l0080:
    2155 0E96  8B 4C24 0C		 mov ecx, DWORD PTR 12[esp]
main.ASM(1059): warning A4001: Extra characters on line
    2156 0E9A  8B 5C24 10		 mov ebx, DWORD PTR 16[esp]
main.ASM(1060): warning A4001: Extra characters on line
    2157 0E9E  8B 4424 14		 mov eax, DWORD PTR 20[esp]
main.ASM(1061): warning A4001: Extra characters on line
    2158 0EA2  BF 00000175		 mov edi,373
main.ASM(1062): warning A4001: Extra characters on line
    2159 0EA7  FF 15 00000DA0 R		 call [symfnc+1492]
main.ASM(1063): warning A4001: Extra characters on line
    2160 0EAD  E9 00000E2E R		 jmp l0077
main.ASM(1064): warning A4001: Extra characters on line
    2161 0EB2				l0082:
    2162 0EB2  8B 4C24 0C		 mov ecx, DWORD PTR 12[esp]
main.ASM(1066): warning A4001: Extra characters on line
    2163 0EB6  8B 5C24 10		 mov ebx, DWORD PTR 16[esp]
main.ASM(1067): warning A4001: Extra characters on line
    2164 0EBA  8B 4424 14		 mov eax, DWORD PTR 20[esp]
main.ASM(1068): warning A4001: Extra characters on line
    2165 0EBE  BF 00000176		 mov edi,374
main.ASM(1069): warning A4001: Extra characters on line
    2166 0EC3  FF 15 00000DA4 R		 call [symfnc+1496]
main.ASM(1070): warning A4001: Extra characters on line
    2167 0EC9  E9 00000E2E R		 jmp l0077
main.ASM(1071): warning A4001: Extra characters on line
    2168 0ECE				l0081:
    2169 0ECE  8B 4C24 0C		 mov ecx, DWORD PTR 12[esp]
main.ASM(1073): warning A4001: Extra characters on line
    2170 0ED2  8B 5C24 10		 mov ebx, DWORD PTR 16[esp]
main.ASM(1074): warning A4001: Extra characters on line
    2171 0ED6  8B 4424 14		 mov eax, DWORD PTR 20[esp]
main.ASM(1075): warning A4001: Extra characters on line
    2172 0EDA  BF 00000177		 mov edi,375
main.ASM(1076): warning A4001: Extra characters on line
Microsoft (R) Macro Assembler Version 5.10                  11/16/97 16:56:0
                                                             Page     1-42


    2173 0EDF  FF 15 00000DA8 R		 call [symfnc+1500]
main.ASM(1077): warning A4001: Extra characters on line
    2174 0EE5  E9 00000E2E R		 jmp l0077
main.ASM(1078): warning A4001: Extra characters on line
    2175 0EEA				l0079:
    2176 0EEA  83 C4 18			 add esp,24
main.ASM(1080): warning A4001: Extra characters on line
    2177 0EED  C3			 ret 
main.ASM(1081): warning A4001: Extra characters on line
    2178 0EEE  00000003			 DD 3
    2179				; (*entry relocate-word expr 3)
    2180				 PUBLIC l0083
    2181 0EF2				l0083:
    2182 0EF2  89 4424 D8		 mov  DWORD PTR -40[esp],eax
main.ASM(1086): warning A4001: Extra characters on line
    2183 0EF6  83 EC 0C			 sub esp,12
main.ASM(1087): warning A4001: Extra characters on line
    2184 0EF9  89 4424 08		 mov  DWORD PTR 8[esp],eax
main.ASM(1088): warning A4001: Extra characters on line
    2185 0EFD  8B 00			 mov eax,DWORD PTR [eax]
main.ASM(1089): warning A4001: Extra characters on line
    2186 0EFF  89 0424			 mov DWORD PTR [esp],eax
main.ASM(1090): warning A4001: Extra characters on line
    2187 0F02  C1 E8 1E			 shr eax,30
main.ASM(1091): warning A4001: Extra characters on line
    2188 0F05  89 4424 04		 mov  DWORD PTR 4[esp],eax
main.ASM(1092): warning A4001: Extra characters on line
    2189 0F09  8B 0424			 mov eax,DWORD PTR [esp]
main.ASM(1093): warning A4001: Extra characters on line
    2190 0F0C  C1 E0 02			 shl eax,2
main.ASM(1094): warning A4001: Extra characters on line
    2191 0F0F  C1 E8 02			 shr eax,2
main.ASM(1095): warning A4001: Extra characters on line
    2192 0F12  8B D1			 mov edx,ecx
main.ASM(1096): warning A4001: Extra characters on line
    2193 0F14  8B CB			 mov ecx,ebx
main.ASM(1097): warning A4001: Extra characters on line
    2194 0F16  8B D8			 mov ebx,eax
main.ASM(1098): warning A4001: Extra characters on line
    2195 0F18  8B 4424 04		 mov eax, DWORD PTR 4[esp]
main.ASM(1099): warning A4001: Extra characters on line
    2196 0F1C  BF 00000178		 mov edi,376
main.ASM(1100): warning A4001: Extra characters on line
    2197 0F21  FF 15 00000DAC R		 call [symfnc+1504]
main.ASM(1101): warning A4001: Extra characters on line
    2198 0F27  8B 7424 08		 mov esi, DWORD PTR 8[esp]
main.ASM(1102): warning A4001: Extra characters on line
    2199 0F2B  89 06			 mov DWORD PTR [esi],eax
main.ASM(1103): warning A4001: Extra characters on line
    2200 0F2D  83 C4 0C			 add esp,12
main.ASM(1104): warning A4001: Extra characters on line
    2201 0F30  C3			 ret 
main.ASM(1105): warning A4001: Extra characters on line
    2202 0F31  00000003			 DD 3
    2203				; (*entry relocate-inf expr 3)
    2204				 PUBLIC l0084
    2205 0F35				l0084:
    2206 0F35  89 4424 D8		 mov  DWORD PTR -40[esp],eax
main.ASM(1110): warning A4001: Extra characters on line
    2207 0F39  83 EC 0C			 sub esp,12
main.ASM(1111): warning A4001: Extra characters on line
    2208 0F3C  89 4424 08		 mov  DWORD PTR 8[esp],eax
main.ASM(1112): warning A4001: Extra characters on line
    2209 0F40  8B 00			 mov eax,DWORD PTR [eax]
main.ASM(1113): warning A4001: Extra characters on line
    2210 0F42  89 0424			 mov DWORD PTR [esp],eax
main.ASM(1114): warning A4001: Extra characters on line
    2211 0F45  25 00C00000		 and eax,12582912
main.ASM(1115): warning A4001: Extra characters on line
    2212 0F4A  C1 E8 16			 shr eax,22
main.ASM(1116): warning A4001: Extra characters on line
    2213 0F4D  89 4424 04		 mov  DWORD PTR 4[esp],eax
main.ASM(1117): warning A4001: Extra characters on line
    2214 0F51  8B 0424			 mov eax,DWORD PTR [esp]
main.ASM(1118): warning A4001: Extra characters on line
    2215 0F54  25 003FFFFF		 and eax,4194303
main.ASM(1119): warning A4001: Extra characters on line
    2216 0F59  8B D1			 mov edx,ecx
main.ASM(1120): warning A4001: Extra characters on line
    2217 0F5B  8B CB			 mov ecx,ebx
main.ASM(1121): warning A4001: Extra characters on line
    2218 0F5D  8B D8			 mov ebx,eax
main.ASM(1122): warning A4001: Extra characters on line
    2219 0F5F  8B 4424 04		 mov eax, DWORD PTR 4[esp]
main.ASM(1123): warning A4001: Extra characters on line
    2220 0F63  BF 00000178		 mov edi,376
main.ASM(1124): warning A4001: Extra characters on line
    2221 0F68  FF 15 00000DAC R		 call [symfnc+1504]
main.ASM(1125): warning A4001: Extra characters on line
    2222 0F6E  8B 7424 08		 mov esi, DWORD PTR 8[esp]
main.ASM(1126): warning A4001: Extra characters on line
    2223 0F72  8B 3E			 mov edi,DWORD PTR [esi]
main.ASM(1127): warning A4001: Extra characters on line
    2224 0F74  25 07FFFFFF		 and eax,134217727
main.ASM(1128): warning A4001: Extra characters on line
    2225 0F79  81 E7 F8000000		 and edi,-134217728
main.ASM(1129): warning A4001: Extra characters on line
    2226 0F7F  0B F8			 or edi,eax
main.ASM(1130): warning A4001: Extra characters on line
Microsoft (R) Macro Assembler Version 5.10                  11/16/97 16:56:0
                                                             Page     1-43


    2227 0F81  89 3E			 mov DWORD PTR [esi],edi
main.ASM(1131): warning A4001: Extra characters on line
    2228 0F83  83 C4 0C			 add esp,12
main.ASM(1132): warning A4001: Extra characters on line
    2229 0F86  C3			 ret 
main.ASM(1133): warning A4001: Extra characters on line
    2230 0F87  00000004			 DD 4
    2231				; (*entry compute-relocation expr 4)
    2232				 PUBLIC l0085
    2233 0F8B				l0085:
    2234 0F8B  89 4424 E0		 mov  DWORD PTR -32[esp],eax
main.ASM(1138): warning A4001: Extra characters on line
    2235 0F8F  53			 push ebx
main.ASM(1139): warning A4001: Extra characters on line
    2236 0F90  83 F8 00			 cmp eax,0
main.ASM(1140): warning A4001: Extra characters on line
    2237 0F93  0F 85 00000FA2 R		 jne l0086
main.ASM(1141): warning A4001: Extra characters on line
    2238 0F99  8B C1			 mov eax,ecx
main.ASM(1142): warning A4001: Extra characters on line
    2239 0F9B  03 C3			 add eax,ebx
main.ASM(1143): warning A4001: Extra characters on line
    2240 0F9D  E9 0000108D R		 jmp l0087
main.ASM(1144): warning A4001: Extra characters on line
    2241 0FA2				l0086:
    2242 0FA2  83 F8 02			 cmp eax,2
main.ASM(1146): warning A4001: Extra characters on line
    2243 0FA5  0F 85 00001020 R		 jne l0088
main.ASM(1147): warning A4001: Extra characters on line
    2244 0FAB  81 FB 00001FD6		 cmp ebx,8150
main.ASM(1148): warning A4001: Extra characters on line
    2245 0FB1  0F 8C 00000FCC R		 jl l0089
main.ASM(1149): warning A4001: Extra characters on line
    2246 0FB7  B8 FFFFE024		 mov eax,-8156
main.ASM(1150): warning A4001: Extra characters on line
    2247 0FBC  03 C3			 add eax,ebx
main.ASM(1151): warning A4001: Extra characters on line
    2248 0FBE  C1 E0 02			 shl eax,2
main.ASM(1152): warning A4001: Extra characters on line
    2249 0FC1  03 05 0000040C R		 add eax,symval+1028
main.ASM(1153): warning A4001: Extra characters on line
    2250 0FC7  E9 0000108D R		 jmp l0087
main.ASM(1154): warning A4001: Extra characters on line
    2251 0FCC				l0089:
    2252 0FCC  81 FB 00000800		 cmp ebx,2048
main.ASM(1156): warning A4001: Extra characters on line
    2253 0FD2  0F 8C 00001010 R		 jl l0090
main.ASM(1157): warning A4001: Extra characters on line
    2254 0FD8  8B DA			 mov ebx,edx
main.ASM(1158): warning A4001: Extra characters on line
    2255 0FDA  8B 0424			 mov eax,DWORD PTR [esp]
main.ASM(1159): warning A4001: Extra characters on line
    2256 0FDD  BF 00000179		 mov edi,377
main.ASM(1160): warning A4001: Extra characters on line
    2257 0FE2  FF 15 00000DB0 R		 call [symfnc+1508]
main.ASM(1161): warning A4001: Extra characters on line
    2258 0FE8  3B 05 000004D4 R		 cmp eax,symval+1228
main.ASM(1162): warning A4001: Extra characters on line
    2259 0FEE  0F 8E 00001002 R		 jle l0091
main.ASM(1163): warning A4001: Extra characters on line
    2260 0FF4  C1 E0 02			 shl eax,2
main.ASM(1164): warning A4001: Extra characters on line
    2261 0FF7  03 05 000004D8 R		 add eax,symval+1232
main.ASM(1165): warning A4001: Extra characters on line
    2262 0FFD  E9 0000108D R		 jmp l0087
main.ASM(1166): warning A4001: Extra characters on line
    2263 1002				l0091:
    2264 1002  C1 E0 02			 shl eax,2
main.ASM(1168): warning A4001: Extra characters on line
    2265 1005  03 05 000004DC R		 add eax,symval+1236
main.ASM(1169): warning A4001: Extra characters on line
    2266 100B  E9 0000108D R		 jmp l0087
main.ASM(1170): warning A4001: Extra characters on line
    2267 1010				l0090:
    2268 1010  8B C3			 mov eax,ebx
main.ASM(1172): warning A4001: Extra characters on line
    2269 1012  C1 E0 02			 shl eax,2
main.ASM(1173): warning A4001: Extra characters on line
    2270 1015  03 05 000004DC R		 add eax,symval+1236
main.ASM(1174): warning A4001: Extra characters on line
    2271 101B  EB 70 90 90 90		 jmp l0087
main.ASM(1175): warning A4001: Extra characters on line
    2272 1020				l0088:
    2273 1020  83 F8 03			 cmp eax,3
main.ASM(1177): warning A4001: Extra characters on line
    2274 1023  0F 85 00001059 R		 jne l0092
main.ASM(1178): warning A4001: Extra characters on line
    2275 1029  81 FB 00000800		 cmp ebx,2048
main.ASM(1179): warning A4001: Extra characters on line
    2276 102F  0F 8C 00001048 R		 jl l0093
main.ASM(1180): warning A4001: Extra characters on line
    2277 1035  8B DA			 mov ebx,edx
main.ASM(1181): warning A4001: Extra characters on line
    2278 1037  8B 0424			 mov eax,DWORD PTR [esp]
main.ASM(1182): warning A4001: Extra characters on line
    2279 103A  BF 00000179		 mov edi,377
main.ASM(1183): warning A4001: Extra characters on line
    2280 103F  FF 15 00000DB0 R		 call [symfnc+1508]
main.ASM(1184): warning A4001: Extra characters on line
Microsoft (R) Macro Assembler Version 5.10                  11/16/97 16:56:0
                                                             Page     1-44


    2281 1045  89 0424			 mov DWORD PTR [esp],eax
main.ASM(1185): warning A4001: Extra characters on line
    2282 1048				l0093:
    2283 1048  8B 0424			 mov eax,DWORD PTR [esp]
main.ASM(1187): warning A4001: Extra characters on line
    2284 104B  C1 E0 02			 shl eax,2
main.ASM(1188): warning A4001: Extra characters on line
    2285 104E  03 05 000004E0 R		 add eax,symval+1240
main.ASM(1189): warning A4001: Extra characters on line
    2286 1054  EB 37 90 90 90		 jmp l0087
main.ASM(1190): warning A4001: Extra characters on line
    2287 1059				l0092:
    2288 1059  83 F8 01			 cmp eax,1
main.ASM(1192): warning A4001: Extra characters on line
    2289 105C  0F 85 00001088 R		 jne l0094
main.ASM(1193): warning A4001: Extra characters on line
    2290 1062  81 FB 00000800		 cmp ebx,2048
main.ASM(1194): warning A4001: Extra characters on line
    2291 1068  0F 8C 00001081 R		 jl l0095
main.ASM(1195): warning A4001: Extra characters on line
    2292 106E  8B DA			 mov ebx,edx
main.ASM(1196): warning A4001: Extra characters on line
    2293 1070  8B 0424			 mov eax,DWORD PTR [esp]
main.ASM(1197): warning A4001: Extra characters on line
    2294 1073  83 C4 04			 add esp,4
main.ASM(1198): warning A4001: Extra characters on line
    2295 1076  BF 00000179		 mov edi,377
main.ASM(1199): warning A4001: Extra characters on line
    2296 107B  FF 25 00000DB0 R		 jmp [symfnc+1508]
main.ASM(1200): warning A4001: Extra characters on line
    2297 1081				l0095:
    2298 1081  8B C3			 mov eax,ebx
main.ASM(1202): warning A4001: Extra characters on line
    2299 1083  EB 08 90 90 90		 jmp l0087
main.ASM(1203): warning A4001: Extra characters on line
    2300 1088				l0094:
    2301 1088  B8 F0000080		 mov eax,30*08000000h+OFFSET 128
main.ASM(1205): warning A4001: Extra characters on line
    2302 108D				l0087:
    2303 108D  83 C4 04			 add esp,4
main.ASM(1207): warning A4001: Extra characters on line
    2304 1090  C3			 ret 
main.ASM(1208): warning A4001: Extra characters on line
    2305 1091  00000003			 DD 3
    2306				; (*entry relocate-fast-call expr 3)
    2307				 PUBLIC l0096
    2308 1095				l0096:
    2309 1095  B8 F0000080		 mov eax,30*08000000h+OFFSET 128
main.ASM(1213): warning A4001: Extra characters on line
    2310 109A  C3			 ret 
main.ASM(1214): warning A4001: Extra characters on line
    2311 109B  00000002			 DD 2
    2312				; (*entry local-to-global-id expr 2)
    2313				 PUBLIC l0097
    2314 109F				l0097:
    2315 109F  05 FFFFF801		 add eax,-2047
main.ASM(1219): warning A4001: Extra characters on line
    2316 10A4  C1 E0 02			 shl eax,2
main.ASM(1220): warning A4001: Extra characters on line
    2317 10A7  8B CB			 mov ecx,ebx
main.ASM(1221): warning A4001: Extra characters on line
    2318 10A9  81 E1 07FFFFFF		 and ecx,134217727
main.ASM(1222): warning A4001: Extra characters on line
    2319 10AF  03 C1			 add eax,ecx
main.ASM(1223): warning A4001: Extra characters on line
    2320 10B1  8B 00			 mov eax,DWORD PTR [eax]
main.ASM(1224): warning A4001: Extra characters on line
    2321 10B3  C3			 ret 
main.ASM(1225): warning A4001: Extra characters on line
    2322 10B4  00000001			 DD 1
    2323				; (*entry read-id-table expr 1)
    2324				 PUBLIC l0098
    2325 10B8				l0098:
    2326 10B8  89 4424 CC		 mov  DWORD PTR -52[esp],eax
main.ASM(1230): warning A4001: Extra characters on line
    2327 10BC  83 EC 18			 sub esp,24
main.ASM(1231): warning A4001: Extra characters on line
    2328 10BF  BF F0000080		 mov edi,30*08000000h+OFFSET 128
main.ASM(1232): warning A4001: Extra characters on line
    2329 10C4  89 7C24 14		 mov  DWORD PTR 20[esp],edi
main.ASM(1233): warning A4001: Extra characters on line
    2330 10C8  89 7C24 10		 mov  DWORD PTR 16[esp],edi
main.ASM(1234): warning A4001: Extra characters on line
    2331 10CC  89 7C24 0C		 mov  DWORD PTR 12[esp],edi
main.ASM(1235): warning A4001: Extra characters on line
    2332 10D0  89 7C24 08		 mov  DWORD PTR 8[esp],edi
main.ASM(1236): warning A4001: Extra characters on line
    2333 10D4  89 7C24 04		 mov  DWORD PTR 4[esp],edi
main.ASM(1237): warning A4001: Extra characters on line
    2334 10D8  89 0424			 mov DWORD PTR [esp],eax
main.ASM(1238): warning A4001: Extra characters on line
Microsoft (R) Macro Assembler Version 5.10                  11/16/97 16:56:0
                                                             Page     1-45


    2335 10DB  BF 00000159		 mov edi,345
main.ASM(1239): warning A4001: Extra characters on line
    2336 10E0  FF 15 00000D30 R		 call [symfnc+1380]
main.ASM(1240): warning A4001: Extra characters on line
    2337 10E6  89 4424 04		 mov  DWORD PTR 4[esp],eax
main.ASM(1241): warning A4001: Extra characters on line
    2338 10EA  40			 inc eax
main.ASM(1242): warning A4001: Extra characters on line
    2339 10EB  BF 0000016F		 mov edi,367
main.ASM(1243): warning A4001: Extra characters on line
    2340 10F0  FF 15 00000D88 R		 call [symfnc+1468]
main.ASM(1244): warning A4001: Extra characters on line
    2341 10F6  25 07FFFFFF		 and eax,134217727
main.ASM(1245): warning A4001: Extra characters on line
    2342 10FB  0D 38000000		 or eax,939524096
main.ASM(1246): warning A4001: Extra characters on line
    2343 1100  89 4424 08		 mov  DWORD PTR 8[esp],eax
main.ASM(1247): warning A4001: Extra characters on line
    2344 1104  8B 5C24 04		 mov ebx, DWORD PTR 4[esp]
main.ASM(1248): warning A4001: Extra characters on line
    2345 1108  33 C0			 xor eax,eax
main.ASM(1249): warning A4001: Extra characters on line
    2346 110A  89 4424 0C		 mov  DWORD PTR 12[esp],eax
main.ASM(1250): warning A4001: Extra characters on line
    2347 110E  89 5C24 10		 mov  DWORD PTR 16[esp],ebx
main.ASM(1251): warning A4001: Extra characters on line
    2348 1112				l0099:
    2349 1112  8B 7C24 0C		 mov edi, DWORD PTR 12[esp]
main.ASM(1253): warning A4001: Extra characters on line
    2350 1116  3B 7C24 10		 cmp edi, DWORD PTR 16[esp]
main.ASM(1254): warning A4001: Extra characters on line
    2351 111A  0F 8F 000011AC R		 jg l0100
main.ASM(1255): warning A4001: Extra characters on line
    2352 1120  8B 0424			 mov eax,DWORD PTR [esp]
main.ASM(1256): warning A4001: Extra characters on line
    2353 1123  BF 00000159		 mov edi,345
main.ASM(1257): warning A4001: Extra characters on line
    2354 1128  FF 15 00000D30 R		 call [symfnc+1380]
main.ASM(1258): warning A4001: Extra characters on line
    2355 112E  8B 35 00000410 R		 mov esi,symval+1032
main.ASM(1259): warning A4001: Extra characters on line
    2356 1134  89 06			 mov DWORD PTR [esi],eax
main.ASM(1260): warning A4001: Extra characters on line
    2357 1136  B9 00000005		 mov ecx,5
main.ASM(1261): warning A4001: Extra characters on line
    2358 113B  03 C8			 add ecx,eax
main.ASM(1262): warning A4001: Extra characters on line
    2359 113D  8B D9			 mov ebx,ecx
main.ASM(1263): warning A4001: Extra characters on line
    2360 113F  C1 EB 1E			 shr ebx,30
main.ASM(1264): warning A4001: Extra characters on line
    2361 1142  03 CB			 add ecx,ebx
main.ASM(1265): warning A4001: Extra characters on line
    2362 1144  C1 F9 02			 sar ecx,2
main.ASM(1266): warning A4001: Extra characters on line
    2363 1147  BB 00000004		 mov ebx,4
main.ASM(1267): warning A4001: Extra characters on line
    2364 114C  03 1D 00000410 R		 add ebx,symval+1032
main.ASM(1268): warning A4001: Extra characters on line
    2365 1152  8B 0424			 mov eax,DWORD PTR [esp]
main.ASM(1269): warning A4001: Extra characters on line
    2366 1155  BF 0000015B		 mov edi,347
main.ASM(1270): warning A4001: Extra characters on line
    2367 115A  FF 15 00000D38 R		 call [symfnc+1388]
main.ASM(1271): warning A4001: Extra characters on line
    2368 1160  33 C0			 xor eax,eax
main.ASM(1272): warning A4001: Extra characters on line
    2369 1162  03 05 00000410 R		 add eax,symval+1032
main.ASM(1273): warning A4001: Extra characters on line
    2370 1168  25 07FFFFFF		 and eax,134217727
main.ASM(1274): warning A4001: Extra characters on line
    2371 116D  0D 20000000		 or eax,536870912
main.ASM(1275): warning A4001: Extra characters on line
    2372 1172  BF 00000163		 mov edi,355
main.ASM(1276): warning A4001: Extra characters on line
    2373 1177  FF 15 00000D58 R		 call [symfnc+1420]
main.ASM(1277): warning A4001: Extra characters on line
    2374 117D  89 4424 14		 mov  DWORD PTR 20[esp],eax
main.ASM(1278): warning A4001: Extra characters on line
    2375 1181  33 C0			 xor eax,eax
main.ASM(1279): warning A4001: Extra characters on line
    2376 1183  40			 inc eax
main.ASM(1280): warning A4001: Extra characters on line
    2377 1184  03 4424 0C		 add eax, DWORD PTR 12[esp]
main.ASM(1281): warning A4001: Extra characters on line
    2378 1188  C1 E0 02			 shl eax,2
main.ASM(1282): warning A4001: Extra characters on line
    2379 118B  8B 5C24 08		 mov ebx, DWORD PTR 8[esp]
main.ASM(1283): warning A4001: Extra characters on line
    2380 118F  81 E3 07FFFFFF		 and ebx,134217727
main.ASM(1284): warning A4001: Extra characters on line
    2381 1195  03 C3			 add eax,ebx
main.ASM(1285): warning A4001: Extra characters on line
    2382 1197  8B 4C24 14		 mov ecx, DWORD PTR 20[esp]
main.ASM(1286): warning A4001: Extra characters on line
    2383 119B  81 E1 07FFFFFF		 and ecx,134217727
main.ASM(1287): warning A4001: Extra characters on line
    2384 11A1  89 08			 mov DWORD PTR [eax],ecx
main.ASM(1288): warning A4001: Extra characters on line
    2385 11A3  FF 4424 0C		 inc  DWORD PTR 12[esp]
main.ASM(1289): warning A4001: Extra characters on line
    2386 11A7  E9 00001112 R		 jmp l0099
main.ASM(1290): warning A4001: Extra characters on line
    2387 11AC				l0100:
    2388 11AC  8B 4424 08		 mov eax, DWORD PTR 8[esp]
main.ASM(1292): warning A4001: Extra characters on line
Microsoft (R) Macro Assembler Version 5.10                  11/16/97 16:56:0
                                                             Page     1-46


    2389 11B0  83 C4 18			 add esp,24
main.ASM(1293): warning A4001: Extra characters on line
    2390 11B3  C3			 ret 
main.ASM(1294): warning A4001: Extra characters on line
    2391 11B4  00000003			 DD 3
    2392				; (*entry putentry expr 3)
    2393				 PUBLIC putentry
    2394 11B8				putentry:
    2395 11B8  03 0D 000005D8 R		 add ecx,symval+1488
main.ASM(1299): warning A4001: Extra characters on line
    2396 11BE  81 E1 07FFFFFF		 and ecx,134217727
main.ASM(1300): warning A4001: Extra characters on line
    2397 11C4  81 C9 A0000000		 or ecx,-1610612736
main.ASM(1301): warning A4001: Extra characters on line
    2398 11CA  BF 0000017B		 mov edi,379
main.ASM(1302): warning A4001: Extra characters on line
    2399 11CF  FF 25 00000DB8 R		 jmp [symfnc+1516]
main.ASM(1303): warning A4001: Extra characters on line
    2400 11D5				l0101:
    2401 11D5  00000016			 DD 22
    2402 11D9  46 69 6C 65 20 69	 DB 70,105,108,101,32,105,115,32,110,11
					1,116
    2403       73 20 6E 6F 74		
    2404 11E4  20 46 41 53 4C 20	 DB 32,70,65,83,76,32,102,111,114,109,9
					7,116
    2405       66 6F 72 6D 61 74	
    2406 11F0  00			 DB 0
    2407 11F1  00000001			 DD 1
    2408				; (*entry faslin-bad-file expr 1)
    2409				 PUBLIC l0102
    2410 11F5				l0102:
    2411 11F5  B8 11D5 R		 mov eax,4*08000000h+OFFSET l0101
main.ASM(1313): warning A4001: Extra characters on line
    2412 11FA  BF 0000014B		 mov edi,331
main.ASM(1314): warning A4001: Extra characters on line
    2413 11FF  FF 15 00000CF8 R		 call [symfnc+1324]
main.ASM(1315): warning A4001: Extra characters on line
    2414 1205  BF 0000014C		 mov edi,332
main.ASM(1316): warning A4001: Extra characters on line
    2415 120A  FF 25 00000CFC R		 jmp [symfnc+1328]
main.ASM(1317): warning A4001: Extra characters on line
    2416 1210				l0103:
    2417 1210  0000001E			 DD 30
    2418 1214  52 61 6E 20 6F 75	 DB 82,97,110,32,111,117,116,32,111,102
					,32
    2419       74 20 6F 66 20		
    2420 121F  62 69 6E 61 72 79	 DB 98,105,110,97,114,121,32,112,114,11
					1,103
    2421       20 70 72 6F 67		
    2422 122A  72 61 6D 20 73 70	 DB 114,97,109,32,115,112,97,99,101,0
    2423       61 63 65 00		
    2424 1234  00000001			 DD 1
    2425				; (*entry gtbps expr 1)
    2426				 PUBLIC gtbps
    2427 1238				gtbps:
    2428 1238  89 4424 E0		 mov  DWORD PTR -32[esp],eax
main.ASM(1327): warning A4001: Extra characters on line
    2429 123C  83 EC 04			 sub esp,4
main.ASM(1328): warning A4001: Extra characters on line
    2430 123F				l0104:
    2431 123F  89 0424			 mov DWORD PTR [esp],eax
main.ASM(1330): warning A4001: Extra characters on line
    2432 1242  3D F0000080		 cmp eax,30*08000000h+OFFSET 128
main.ASM(1331): warning A4001: Extra characters on line
    2433 1247  0F 85 00001258 R		 jne l0105
main.ASM(1332): warning A4001: Extra characters on line
    2434 124D  BF 0000017D		 mov edi,381
main.ASM(1333): warning A4001: Extra characters on line
    2435 1252  FF 15 00000DC0 R		 call [symfnc+1524]
main.ASM(1334): warning A4001: Extra characters on line
    2436 1258				l0105:
    2437 1258  83 3C24 0A		 cmp DWORD PTR [esp],10
main.ASM(1336): warning A4001: Extra characters on line
    2438 125C  0F 8E 0000128B R		 jle l0106
main.ASM(1337): warning A4001: Extra characters on line
Microsoft (R) Macro Assembler Version 5.10                  11/16/97 16:56:0
                                                             Page     1-47


    2439 1262  B8 0000000F		 mov eax,15
main.ASM(1338): warning A4001: Extra characters on line
    2440 1267  23 05 0000049C R		 and eax,symval+1172
main.ASM(1339): warning A4001: Extra characters on line
    2441 126D  83 F8 00			 cmp eax,0
main.ASM(1340): warning A4001: Extra characters on line
    2442 1270  0F 84 0000128B R		 je l0106
main.ASM(1341): warning A4001: Extra characters on line
    2443 1276  8B 1D 0000049C R		 mov ebx,symval+1172
main.ASM(1342): warning A4001: Extra characters on line
    2444 127C  C1 EB 04			 shr ebx,4
main.ASM(1343): warning A4001: Extra characters on line
    2445 127F  C1 E3 04			 shl ebx,4
main.ASM(1344): warning A4001: Extra characters on line
    2446 1282  83 C3 10			 add ebx,16
main.ASM(1345): warning A4001: Extra characters on line
    2447 1285  89 1D 0000049C R		 mov ds:symval+1172,ebx
main.ASM(1346): warning A4001: Extra characters on line
    2448 128B				l0106:
    2449 128B  A1 0000049C R		 mov eax,symval+1172
main.ASM(1348): warning A4001: Extra characters on line
    2450 1290  8B 1C24			 mov ebx,DWORD PTR [esp]
main.ASM(1349): warning A4001: Extra characters on line
    2451 1293  C1 E3 02			 shl ebx,2
main.ASM(1350): warning A4001: Extra characters on line
    2452 1296  03 1D 0000049C R		 add ebx,symval+1172
main.ASM(1351): warning A4001: Extra characters on line
    2453 129C  89 1D 0000049C R		 mov ds:symval+1172,ebx
main.ASM(1352): warning A4001: Extra characters on line
    2454 12A2  3B 1D 00000480 R		 cmp ebx,symval+1144
main.ASM(1353): warning A4001: Extra characters on line
    2455 12A8  0F 8E 00001302 R		 jle l0107
main.ASM(1354): warning A4001: Extra characters on line
    2456 12AE  A3 0000049C R		 mov ds:symval+1172,eax
main.ASM(1355): warning A4001: Extra characters on line
    2457 12B3  B8 F000017E		 mov eax,30*08000000h+OFFSET 382
main.ASM(1356): warning A4001: Extra characters on line
    2458 12B8  BF 0000017F		 mov edi,383
main.ASM(1357): warning A4001: Extra characters on line
    2459 12BD  FF 15 00000DC8 R		 call [symfnc+1532]
main.ASM(1358): warning A4001: Extra characters on line
    2460 12C3  3D F0000080		 cmp eax,30*08000000h+OFFSET 128
main.ASM(1359): warning A4001: Extra characters on line
    2461 12C8  0F 84 000012EF R		 je l0108
main.ASM(1360): warning A4001: Extra characters on line
    2462 12CE  8B 0424			 mov eax,DWORD PTR [esp]
main.ASM(1361): warning A4001: Extra characters on line
    2463 12D1  BF 0000017E		 mov edi,382
main.ASM(1362): warning A4001: Extra characters on line
    2464 12D6  FF 15 00000DC4 R		 call [symfnc+1528]
main.ASM(1363): warning A4001: Extra characters on line
    2465 12DC  3D F0000080		 cmp eax,30*08000000h+OFFSET 128
main.ASM(1364): warning A4001: Extra characters on line
    2466 12E1  0F 84 000012EF R		 je l0108
main.ASM(1365): warning A4001: Extra characters on line
    2467 12E7  8B 0424			 mov eax,DWORD PTR [esp]
main.ASM(1366): warning A4001: Extra characters on line
    2468 12EA  E9 0000123F R		 jmp l0104
main.ASM(1367): warning A4001: Extra characters on line
    2469 12EF				l0108:
    2470 12EF  B8 1210 R		 mov eax,4*08000000h+OFFSET l0103
main.ASM(1369): warning A4001: Extra characters on line
    2471 12F4  83 C4 04			 add esp,4
main.ASM(1370): warning A4001: Extra characters on line
    2472 12F7  BF 00000180		 mov edi,384
main.ASM(1371): warning A4001: Extra characters on line
    2473 12FC  FF 25 00000DCC R		 jmp [symfnc+1536]
main.ASM(1372): warning A4001: Extra characters on line
    2474 1302				l0107:
    2475 1302  83 C4 04			 add esp,4
main.ASM(1374): warning A4001: Extra characters on line
    2476 1305  C3			 ret 
main.ASM(1375): warning A4001: Extra characters on line
    2477 1306				l0109:
    2478 1306  00000015			 DD 21
    2479 130A  47 54 42 50 53 20	 DB 71,84,66,80,83,32,99,97,108,108,101
					,100
    2480       63 61 6C 6C 65 64	
    2481 1316  20 77 69 74 68 20	 DB 32,119,105,116,104,32,78,73,76,46,0
					,0
    2482       4E 49 4C 2E 00 00	
    2483 1322  00000000			 DD 0
    2484				; (*entry gtbps-nil-error expr 0)
    2485				 PUBLIC l0110
    2486 1326				l0110:
    2487 1326  B8 1306 R		 mov eax,4*08000000h+OFFSET l0109
main.ASM(1384): warning A4001: Extra characters on line
    2488 132B  BF 00000180		 mov edi,384
main.ASM(1385): warning A4001: Extra characters on line
    2489 1330  FF 25 00000DCC R		 jmp [symfnc+1536]
main.ASM(1386): warning A4001: Extra characters on line
    2490 1336  00000001			 DD 1
Microsoft (R) Macro Assembler Version 5.10                  11/16/97 16:56:0
                                                             Page     1-48


    2491				; (*entry gtheap expr 1)
    2492				 PUBLIC gtheap
    2493 133A				gtheap:
    2494 133A  3D F0000080		 cmp eax,30*08000000h+OFFSET 128
main.ASM(1391): warning A4001: Extra characters on line
    2495 133F  0F 85 00001350 R		 jne l0111
main.ASM(1392): warning A4001: Extra characters on line
    2496 1345  BF 00000181		 mov edi,385
main.ASM(1393): warning A4001: Extra characters on line
    2497 134A  FF 25 00000DD0 R		 jmp [symfnc+1540]
main.ASM(1394): warning A4001: Extra characters on line
    2498 1350				l0111:
    2499 1350  BF 00000182		 mov edi,386
main.ASM(1396): warning A4001: Extra characters on line
    2500 1355  FF 25 00000DD4 R		 jmp [symfnc+1544]
main.ASM(1397): warning A4001: Extra characters on line
    2501 135B  00000001			 DD 1
    2502				; (*entry real-gtheap expr 1)
    2503				 PUBLIC l0112
    2504 135F				l0112:
    2505 135F  8B C8			 mov ecx,eax
main.ASM(1402): warning A4001: Extra characters on line
    2506 1361  A1 00000470 R		 mov eax,symval+1128
main.ASM(1403): warning A4001: Extra characters on line
    2507 1366  8B D9			 mov ebx,ecx
main.ASM(1404): warning A4001: Extra characters on line
    2508 1368  C1 E3 02			 shl ebx,2
main.ASM(1405): warning A4001: Extra characters on line
    2509 136B  03 1D 00000470 R		 add ebx,symval+1128
main.ASM(1406): warning A4001: Extra characters on line
    2510 1371  89 1D 00000470 R		 mov ds:symval+1128,ebx
main.ASM(1407): warning A4001: Extra characters on line
    2511 1377  3B 1D 00000474 R		 cmp ebx,symval+1132
main.ASM(1408): warning A4001: Extra characters on line
    2512 137D  0F 8C 00001390 R		 jl l0113
main.ASM(1409): warning A4001: Extra characters on line
    2513 1383  8B D9			 mov ebx,ecx
main.ASM(1410): warning A4001: Extra characters on line
    2514 1385  BF 00000184		 mov edi,388
main.ASM(1411): warning A4001: Extra characters on line
    2515 138A  FF 25 00000DDC R		 jmp [symfnc+1552]
main.ASM(1412): warning A4001: Extra characters on line
    2516 1390				l0113:
    2517 1390  C3			 ret 
main.ASM(1414): warning A4001: Extra characters on line
    2518 1391				l0114:
    2519 1391  0000001B			 DD 27
    2520 1395  47 61 72 62 61 67	 DB 71,97,114,98,97,103,101,32,99,111,1
					08
    2521       65 20 63 6F 6C		
    2522 13A0  6C 65 63 74 69 6F	 DB 108,101,99,116,105,111,110,32,114,1
					01
    2523       6E 20 72 65		
    2524 13AA  71 75 69 72 65 64	 DB 113,117,105,114,101,100,46,0,0
    2525       2E 00 00			
    2526 13B3  00000001			 DD 1
    2527				; (*entry get-heap-trap expr 1)
    2528				 PUBLIC l0115
    2529 13B7				l0115:
    2530 13B7  B8 1391 R		 mov eax,4*08000000h+OFFSET l0114
main.ASM(1424): warning A4001: Extra characters on line
    2531 13BC  BF 00000156		 mov edi,342
main.ASM(1425): warning A4001: Extra characters on line
    2532 13C1  FF 25 00000D24 R		 jmp [symfnc+1368]
main.ASM(1426): warning A4001: Extra characters on line
    2533 13C7				l0116:
    2534 13C7  00000012			 DD 18
    2535 13CB  52 61 6E 20 6F 75	 DB 82,97,110,32,111,117,116,32,111,102
					,32
    2536       74 20 6F 66 20		
    2537 13D6  49 44 20 73 70 61	 DB 73,68,32,115,112,97,99,101,0
    2538       63 65 00			
    2539 13DF  00000000			 DD 0
    2540				; (*entry gtid expr 0)
    2541				 PUBLIC gtid
Microsoft (R) Macro Assembler Version 5.10                  11/16/97 16:56:0
                                                             Page     1-49


    2542 13E3				gtid:
    2543 13E3  83 3D 000004D0 R 00	 cmp symval+1224,0
main.ASM(1435): warning A4001: Extra characters on line
    2544 13EA  0F 85 00001418 R		 jne l0117
main.ASM(1436): warning A4001: Extra characters on line
    2545 13F0  BF 00000185		 mov edi,389
main.ASM(1437): warning A4001: Extra characters on line
    2546 13F5  FF 15 00000DE0 R		 call [symfnc+1556]
main.ASM(1438): warning A4001: Extra characters on line
    2547 13FB  83 3D 000004D0 R 00	 cmp symval+1224,0
main.ASM(1439): warning A4001: Extra characters on line
    2548 1402  0F 85 00001418 R		 jne l0117
main.ASM(1440): warning A4001: Extra characters on line
    2549 1408  B8 13C7 R		 mov eax,4*08000000h+OFFSET l0116
main.ASM(1441): warning A4001: Extra characters on line
    2550 140D  BF 00000156		 mov edi,342
main.ASM(1442): warning A4001: Extra characters on line
    2551 1412  FF 15 00000D24 R		 call [symfnc+1368]
main.ASM(1443): warning A4001: Extra characters on line
    2552 1418				l0117:
    2553 1418  A1 000004D0 R		 mov eax,symval+1224
main.ASM(1445): warning A4001: Extra characters on line
    2554 141D  8B D8			 mov ebx,eax
main.ASM(1446): warning A4001: Extra characters on line
    2555 141F  C1 E3 02			 shl ebx,2
main.ASM(1447): warning A4001: Extra characters on line
    2556 1422  03 1D 000004F0 R		 add ebx,symval+1256
main.ASM(1448): warning A4001: Extra characters on line
    2557 1428  8B 3B			 mov edi,DWORD PTR [ebx]
main.ASM(1449): warning A4001: Extra characters on line
    2558 142A  89 3D 000004D0 R		 mov ds:symval+1224,edi
main.ASM(1450): warning A4001: Extra characters on line
    2559 1430  C3			 ret 
main.ASM(1451): warning A4001: Extra characters on line
    2560 1431  00000001			 DD 1
    2561				; (*entry gtwrds expr 1)
    2562				 PUBLIC gtwrds
    2563 1435				gtwrds:
    2564 1435  89 4424 E0		 mov  DWORD PTR -32[esp],eax
main.ASM(1456): warning A4001: Extra characters on line
    2565 1439  50			 push eax
main.ASM(1457): warning A4001: Extra characters on line
    2566 143A  83 C0 02			 add eax,2
main.ASM(1458): warning A4001: Extra characters on line
    2567 143D  BF 00000183		 mov edi,387
main.ASM(1459): warning A4001: Extra characters on line
    2568 1442  FF 15 00000DD8 R		 call [symfnc+1548]
main.ASM(1460): warning A4001: Extra characters on line
    2569 1448  8B 1C24			 mov ebx,DWORD PTR [esp]
main.ASM(1461): warning A4001: Extra characters on line
    2570 144B  81 E3 07FFFFFF		 and ebx,134217727
main.ASM(1462): warning A4001: Extra characters on line
    2571 1451  81 CB C8000000		 or ebx,-939524096
main.ASM(1463): warning A4001: Extra characters on line
    2572 1457  89 18			 mov DWORD PTR [eax],ebx
main.ASM(1464): warning A4001: Extra characters on line
    2573 1459  83 C4 04			 add esp,4
main.ASM(1465): warning A4001: Extra characters on line
    2574 145C  C3			 ret 
main.ASM(1466): warning A4001: Extra characters on line
    2575 145D  00000001			 DD 1
    2576				; (*entry gtconststr expr 1)
    2577				 PUBLIC gtconststr
    2578 1461				gtconststr:
    2579 1461  89 4424 DC		 mov  DWORD PTR -36[esp],eax
main.ASM(1471): warning A4001: Extra characters on line
    2580 1465  83 EC 08			 sub esp,8
main.ASM(1472): warning A4001: Extra characters on line
    2581 1468  89 0424			 mov DWORD PTR [esp],eax
main.ASM(1473): warning A4001: Extra characters on line
    2582 146B  83 C0 05			 add eax,5
main.ASM(1474): warning A4001: Extra characters on line
    2583 146E  8B D8			 mov ebx,eax
main.ASM(1475): warning A4001: Extra characters on line
    2584 1470  C1 EB 1E			 shr ebx,30
main.ASM(1476): warning A4001: Extra characters on line
    2585 1473  03 C3			 add eax,ebx
main.ASM(1477): warning A4001: Extra characters on line
    2586 1475  C1 F8 02			 sar eax,2
main.ASM(1478): warning A4001: Extra characters on line
    2587 1478  89 4424 04		 mov  DWORD PTR 4[esp],eax
main.ASM(1479): warning A4001: Extra characters on line
    2588 147C  40			 inc eax
main.ASM(1480): warning A4001: Extra characters on line
    2589 147D  BF 0000016E		 mov edi,366
main.ASM(1481): warning A4001: Extra characters on line
    2590 1482  FF 15 00000D84 R		 call [symfnc+1464]
main.ASM(1482): warning A4001: Extra characters on line
    2591 1488  8B 3C24			 mov edi,DWORD PTR [esp]
main.ASM(1483): warning A4001: Extra characters on line
    2592 148B  89 38			 mov DWORD PTR [eax],edi
main.ASM(1484): warning A4001: Extra characters on line
    2593 148D  8B 5C24 04		 mov ebx, DWORD PTR 4[esp]
main.ASM(1485): warning A4001: Extra characters on line
    2594 1491  C1 E3 02			 shl ebx,2
main.ASM(1486): warning A4001: Extra characters on line
    2595 1494  03 D8			 add ebx,eax
main.ASM(1487): warning A4001: Extra characters on line
Microsoft (R) Macro Assembler Version 5.10                  11/16/97 16:56:0
                                                             Page     1-50


    2596 1496  C7 03 00000000		 mov DWORD PTR [ebx],0
main.ASM(1488): warning A4001: Extra characters on line
    2597 149C  83 C4 08			 add esp,8
main.ASM(1489): warning A4001: Extra characters on line
    2598 149F  C3			 ret 
main.ASM(1490): warning A4001: Extra characters on line
    2599 14A0				l0118:
    2600 14A0  0000001E			 DD 30
    2601 14A4  53 55 42 53 45 51	 DB 83,85,66,83,69,81,32,99,97,108,108,
					101
    2602       20 63 61 6C 6C 65	
    2603 14B0  64 20 77 69 74 68	 DB 100,32,119,105,116,104,32,97,32,110
					,111
    2604       20 61 20 6E 6F		
    2605 14BB  6E 2D 73 74 72 69	 DB 110,45,115,116,114,105,110,103,0
    2606       6E 67 00			
    2607 14C4  00000003			 DD 3
    2608				; (*entry subseq expr 3)
    2609				 PUBLIC subseq
    2610 14C8				subseq:
    2611 14C8  89 4424 C4		 mov  DWORD PTR -60[esp],eax
main.ASM(1500): warning A4001: Extra characters on line
    2612 14CC  83 EC 20			 sub esp,32
main.ASM(1501): warning A4001: Extra characters on line
    2613 14CF  BF F0000080		 mov edi,30*08000000h+OFFSET 128
main.ASM(1502): warning A4001: Extra characters on line
    2614 14D4  89 7C24 1C		 mov  DWORD PTR 28[esp],edi
main.ASM(1503): warning A4001: Extra characters on line
    2615 14D8  89 7C24 18		 mov  DWORD PTR 24[esp],edi
main.ASM(1504): warning A4001: Extra characters on line
    2616 14DC  89 7C24 14		 mov  DWORD PTR 20[esp],edi
main.ASM(1505): warning A4001: Extra characters on line
    2617 14E0  89 7C24 10		 mov  DWORD PTR 16[esp],edi
main.ASM(1506): warning A4001: Extra characters on line
    2618 14E4  89 7C24 0C		 mov  DWORD PTR 12[esp],edi
main.ASM(1507): warning A4001: Extra characters on line
    2619 14E8  89 0424			 mov DWORD PTR [esp],eax
main.ASM(1508): warning A4001: Extra characters on line
    2620 14EB  89 5C24 04		 mov  DWORD PTR 4[esp],ebx
main.ASM(1509): warning A4001: Extra characters on line
    2621 14EF  89 4C24 08		 mov  DWORD PTR 8[esp],ecx
main.ASM(1510): warning A4001: Extra characters on line
    2622 14F3  8B F8			 mov edi,eax
main.ASM(1511): warning A4001: Extra characters on line
    2623 14F5  C1 EF 1B			 shr edi,27
main.ASM(1512): warning A4001: Extra characters on line
    2624 14F8  83 FF 04			 cmp edi,4
main.ASM(1513): warning A4001: Extra characters on line
    2625 14FB  0F 84 00001511 R		 je l0119
main.ASM(1514): warning A4001: Extra characters on line
    2626 1501  B8 14A0 R		 mov eax,4*08000000h+OFFSET l0118
main.ASM(1515): warning A4001: Extra characters on line
    2627 1506  BF 00000156		 mov edi,342
main.ASM(1516): warning A4001: Extra characters on line
    2628 150B  FF 15 00000D24 R		 call [symfnc+1368]
main.ASM(1517): warning A4001: Extra characters on line
    2629 1511				l0119:
    2630 1511  33 C0			 xor eax,eax
main.ASM(1519): warning A4001: Extra characters on line
    2631 1513  48			 dec eax
main.ASM(1520): warning A4001: Extra characters on line
    2632 1514  03 4424 08		 add eax, DWORD PTR 8[esp]
main.ASM(1521): warning A4001: Extra characters on line
    2633 1518  2B 4424 04		 sub eax, DWORD PTR 4[esp]
main.ASM(1522): warning A4001: Extra characters on line
    2634 151C  89 4424 0C		 mov  DWORD PTR 12[esp],eax
main.ASM(1523): warning A4001: Extra characters on line
    2635 1520  8B 0424			 mov eax,DWORD PTR [esp]
main.ASM(1524): warning A4001: Extra characters on line
    2636 1523  25 07FFFFFF		 and eax,134217727
main.ASM(1525): warning A4001: Extra characters on line
    2637 1528  89 4424 10		 mov  DWORD PTR 16[esp],eax
main.ASM(1526): warning A4001: Extra characters on line
    2638 152C  8B 4424 0C		 mov eax, DWORD PTR 12[esp]
main.ASM(1527): warning A4001: Extra characters on line
    2639 1530  BF 00000186		 mov edi,390
main.ASM(1528): warning A4001: Extra characters on line
    2640 1535  FF 15 00000DE4 R		 call [symfnc+1560]
main.ASM(1529): warning A4001: Extra characters on line
    2641 153B  89 4424 14		 mov  DWORD PTR 20[esp],eax
main.ASM(1530): warning A4001: Extra characters on line
    2642 153F  8B 5C24 0C		 mov ebx, DWORD PTR 12[esp]
main.ASM(1531): warning A4001: Extra characters on line
    2643 1543  33 C0			 xor eax,eax
main.ASM(1532): warning A4001: Extra characters on line
    2644 1545  89 4424 18		 mov  DWORD PTR 24[esp],eax
main.ASM(1533): warning A4001: Extra characters on line
    2645 1549  89 5C24 1C		 mov  DWORD PTR 28[esp],ebx
main.ASM(1534): warning A4001: Extra characters on line
    2646 154D				l0120:
    2647 154D  8B 7C24 18		 mov edi, DWORD PTR 24[esp]
main.ASM(1536): warning A4001: Extra characters on line
Microsoft (R) Macro Assembler Version 5.10                  11/16/97 16:56:0
                                                             Page     1-51


    2648 1551  3B 7C24 1C		 cmp edi, DWORD PTR 28[esp]
main.ASM(1537): warning A4001: Extra characters on line
    2649 1555  0F 8F 0000159B R		 jg l0121
main.ASM(1538): warning A4001: Extra characters on line
    2650 155B  8B 5C24 04		 mov ebx, DWORD PTR 4[esp]
main.ASM(1539): warning A4001: Extra characters on line
    2651 155F  03 5C24 18		 add ebx, DWORD PTR 24[esp]
main.ASM(1540): warning A4001: Extra characters on line
    2652 1563  B8 00000004		 mov eax,4
main.ASM(1541): warning A4001: Extra characters on line
    2653 1568  03 4424 10		 add eax, DWORD PTR 16[esp]
main.ASM(1542): warning A4001: Extra characters on line
    2654 156C  8A 0418			 mov al,0[eax][ebx*1]
main.ASM(1543): warning A4001: Extra characters on line
    2655 156F  66| 98			 cbw 
main.ASM(1544): warning A4001: Extra characters on line
    2656 1571  98			 cwde 
main.ASM(1545): warning A4001: Extra characters on line
    2657 1572  8B C8			 mov ecx,eax
main.ASM(1546): warning A4001: Extra characters on line
    2658 1574  8B 5C24 18		 mov ebx, DWORD PTR 24[esp]
main.ASM(1547): warning A4001: Extra characters on line
    2659 1578  B8 00000004		 mov eax,4
main.ASM(1548): warning A4001: Extra characters on line
    2660 157D  03 4424 14		 add eax, DWORD PTR 20[esp]
main.ASM(1549): warning A4001: Extra characters on line
    2661 1581  8B 1418			 mov edx,0[eax][ebx*1]
main.ASM(1550): warning A4001: Extra characters on line
    2662 1584  C1 EA 08			 shr edx,8
main.ASM(1551): warning A4001: Extra characters on line
    2663 1587  C1 E2 08			 shl edx,8
main.ASM(1552): warning A4001: Extra characters on line
    2664 158A  81 E1 000000FF		 and ecx,255
main.ASM(1553): warning A4001: Extra characters on line
    2665 1590  0B CA			 or ecx,edx
main.ASM(1554): warning A4001: Extra characters on line
    2666 1592  89 0C03			 mov 0[ebx][eax*1],ecx
main.ASM(1555): warning A4001: Extra characters on line
    2667 1595  FF 4424 18		 inc  DWORD PTR 24[esp]
main.ASM(1556): warning A4001: Extra characters on line
    2668 1599  EB B2			 jmp l0120
main.ASM(1557): warning A4001: Extra characters on line
    2669 159B				l0121:
    2670 159B  8B 4424 14		 mov eax, DWORD PTR 20[esp]
main.ASM(1559): warning A4001: Extra characters on line
    2671 159F  25 07FFFFFF		 and eax,134217727
main.ASM(1560): warning A4001: Extra characters on line
    2672 15A4  0D 20000000		 or eax,536870912
main.ASM(1561): warning A4001: Extra characters on line
    2673 15A9  83 C4 20			 add esp,32
main.ASM(1562): warning A4001: Extra characters on line
    2674 15AC  C3			 ret 
main.ASM(1563): warning A4001: Extra characters on line
    2675 15AD  00000002			 DD 2
    2676				; (*entry search-string-for-character e
					xpr 2)
    2677				 PUBLIC l0122
    2678 15B1				l0122:
    2679 15B1  89 4424 D4		 mov  DWORD PTR -44[esp],eax
main.ASM(1568): warning A4001: Extra characters on line
    2680 15B5  83 EC 10			 sub esp,16
main.ASM(1569): warning A4001: Extra characters on line
    2681 15B8  89 0424			 mov DWORD PTR [esp],eax
main.ASM(1570): warning A4001: Extra characters on line
    2682 15BB  89 5C24 04		 mov  DWORD PTR 4[esp],ebx
main.ASM(1571): warning A4001: Extra characters on line
    2683 15BF  81 E3 07FFFFFF		 and ebx,134217727
main.ASM(1572): warning A4001: Extra characters on line
    2684 15C5  8B 1B			 mov ebx,DWORD PTR [ebx]
main.ASM(1573): warning A4001: Extra characters on line
    2685 15C7  C1 E3 05			 shl ebx,5
main.ASM(1574): warning A4001: Extra characters on line
    2686 15CA  C1 FB 05			 sar ebx,5
main.ASM(1575): warning A4001: Extra characters on line
    2687 15CD  33 C0			 xor eax,eax
main.ASM(1576): warning A4001: Extra characters on line
    2688 15CF  89 4424 08		 mov  DWORD PTR 8[esp],eax
main.ASM(1577): warning A4001: Extra characters on line
    2689 15D3  89 5C24 0C		 mov  DWORD PTR 12[esp],ebx
main.ASM(1578): warning A4001: Extra characters on line
    2690 15D7				l0123:
    2691 15D7  8B 7C24 08		 mov edi, DWORD PTR 8[esp]
main.ASM(1580): warning A4001: Extra characters on line
    2692 15DB  3B 7C24 0C		 cmp edi, DWORD PTR 12[esp]
main.ASM(1581): warning A4001: Extra characters on line
    2693 15DF  0F 8E 000015EF R		 jle l0124
main.ASM(1582): warning A4001: Extra characters on line
    2694 15E5  B8 F0000080		 mov eax,30*08000000h+OFFSET 128
main.ASM(1583): warning A4001: Extra characters on line
    2695 15EA  EB 31 90 90 90		 jmp l0125
main.ASM(1584): warning A4001: Extra characters on line
    2696 15EF				l0124:
    2697 15EF  8B 5C24 08		 mov ebx, DWORD PTR 8[esp]
main.ASM(1586): warning A4001: Extra characters on line
    2698 15F3  8B 4424 04		 mov eax, DWORD PTR 4[esp]
main.ASM(1587): warning A4001: Extra characters on line
    2699 15F7  25 07FFFFFF		 and eax,134217727
main.ASM(1588): warning A4001: Extra characters on line
    2700 15FC  83 C0 04			 add eax,4
main.ASM(1589): warning A4001: Extra characters on line
Microsoft (R) Macro Assembler Version 5.10                  11/16/97 16:56:0
                                                             Page     1-52


    2701 15FF  8A 0418			 mov al,0[eax][ebx*1]
main.ASM(1590): warning A4001: Extra characters on line
    2702 1602  66| 98			 cbw 
main.ASM(1591): warning A4001: Extra characters on line
    2703 1604  98			 cwde 
main.ASM(1592): warning A4001: Extra characters on line
    2704 1605  3B 0424			 cmp eax,DWORD PTR [esp]
main.ASM(1593): warning A4001: Extra characters on line
    2705 1608  0F 85 00001617 R		 jne l0126
main.ASM(1594): warning A4001: Extra characters on line
    2706 160E  8B 4424 08		 mov eax, DWORD PTR 8[esp]
main.ASM(1595): warning A4001: Extra characters on line
    2707 1612  EB 09 90 90 90		 jmp l0125
main.ASM(1596): warning A4001: Extra characters on line
    2708 1617				l0126:
    2709 1617  FF 4424 08		 inc  DWORD PTR 8[esp]
main.ASM(1598): warning A4001: Extra characters on line
    2710 161B  EB BA			 jmp l0123
main.ASM(1599): warning A4001: Extra characters on line
    2711 161D				l0125:
    2712 161D  83 C4 10			 add esp,16
main.ASM(1601): warning A4001: Extra characters on line
    2713 1620  C3			 ret 
main.ASM(1602): warning A4001: Extra characters on line
    2714 1621  00000002			 DD 2
    2715				; (*entry unchecked-string-equal expr 2
					)
    2716				 PUBLIC l0127
    2717 1625				l0127:
    2718 1625  89 4424 D0		 mov  DWORD PTR -48[esp],eax
main.ASM(1607): warning A4001: Extra characters on line
    2719 1629  83 EC 14			 sub esp,20
main.ASM(1608): warning A4001: Extra characters on line
    2720 162C  BF F0000080		 mov edi,30*08000000h+OFFSET 128
main.ASM(1609): warning A4001: Extra characters on line
    2721 1631  89 7C24 10		 mov  DWORD PTR 16[esp],edi
main.ASM(1610): warning A4001: Extra characters on line
    2722 1635  C7 4424 0C F0000080	 mov  DWORD PTR 12[esp],30*08000000h+OF
					FSET 128
main.ASM(1611): warning A4001: Extra characters on line
    2723 163D  25 07FFFFFF		 and eax,134217727
main.ASM(1612): warning A4001: Extra characters on line
    2724 1642  89 0424			 mov DWORD PTR [esp],eax
main.ASM(1613): warning A4001: Extra characters on line
    2725 1645  81 E3 07FFFFFF		 and ebx,134217727
main.ASM(1614): warning A4001: Extra characters on line
    2726 164B  89 5C24 04		 mov  DWORD PTR 4[esp],ebx
main.ASM(1615): warning A4001: Extra characters on line
    2727 164F  8B 08			 mov ecx,DWORD PTR [eax]
main.ASM(1616): warning A4001: Extra characters on line
    2728 1651  C1 E1 05			 shl ecx,5
main.ASM(1617): warning A4001: Extra characters on line
    2729 1654  C1 F9 05			 sar ecx,5
main.ASM(1618): warning A4001: Extra characters on line
    2730 1657  89 4C24 08		 mov  DWORD PTR 8[esp],ecx
main.ASM(1619): warning A4001: Extra characters on line
    2731 165B  8B 13			 mov edx,DWORD PTR [ebx]
main.ASM(1620): warning A4001: Extra characters on line
    2732 165D  C1 E2 05			 shl edx,5
main.ASM(1621): warning A4001: Extra characters on line
    2733 1660  C1 FA 05			 sar edx,5
main.ASM(1622): warning A4001: Extra characters on line
    2734 1663  3B CA			 cmp ecx,edx
main.ASM(1623): warning A4001: Extra characters on line
    2735 1665  0F 84 00001675 R		 je l0128
main.ASM(1624): warning A4001: Extra characters on line
    2736 166B  B8 F0000080		 mov eax,30*08000000h+OFFSET 128
main.ASM(1625): warning A4001: Extra characters on line
    2737 1670  EB 66 90 90 90		 jmp l0129
main.ASM(1626): warning A4001: Extra characters on line
    2738 1675				l0128:
    2739 1675  C7 4424 0C 00000000	 mov  DWORD PTR 12[esp],0
main.ASM(1628): warning A4001: Extra characters on line
    2740 167D				l0130:
    2741 167D  8B 7C24 0C		 mov edi, DWORD PTR 12[esp]
main.ASM(1630): warning A4001: Extra characters on line
    2742 1681  3B 7C24 08		 cmp edi, DWORD PTR 8[esp]
main.ASM(1631): warning A4001: Extra characters on line
    2743 1685  0F 8E 00001695 R		 jle l0131
main.ASM(1632): warning A4001: Extra characters on line
    2744 168B  B8 F0000074		 mov eax,30*08000000h+OFFSET 116
main.ASM(1633): warning A4001: Extra characters on line
    2745 1690  EB 46 90 90 90		 jmp l0129
main.ASM(1634): warning A4001: Extra characters on line
    2746 1695				l0131:
    2747 1695  8B 5C24 0C		 mov ebx, DWORD PTR 12[esp]
main.ASM(1636): warning A4001: Extra characters on line
    2748 1699  B8 00000004		 mov eax,4
main.ASM(1637): warning A4001: Extra characters on line
    2749 169E  03 0424			 add eax,DWORD PTR [esp]
main.ASM(1638): warning A4001: Extra characters on line
    2750 16A1  8A 0418			 mov al,0[eax][ebx*1]
main.ASM(1639): warning A4001: Extra characters on line
    2751 16A4  66| 98			 cbw 
main.ASM(1640): warning A4001: Extra characters on line
    2752 16A6  98			 cwde 
main.ASM(1641): warning A4001: Extra characters on line
Microsoft (R) Macro Assembler Version 5.10                  11/16/97 16:56:0
                                                             Page     1-53


    2753 16A7  89 4424 10		 mov  DWORD PTR 16[esp],eax
main.ASM(1642): warning A4001: Extra characters on line
    2754 16AB  8B 5C24 0C		 mov ebx, DWORD PTR 12[esp]
main.ASM(1643): warning A4001: Extra characters on line
    2755 16AF  B8 00000004		 mov eax,4
main.ASM(1644): warning A4001: Extra characters on line
    2756 16B4  03 4424 04		 add eax, DWORD PTR 4[esp]
main.ASM(1645): warning A4001: Extra characters on line
    2757 16B8  8A 0418			 mov al,0[eax][ebx*1]
main.ASM(1646): warning A4001: Extra characters on line
    2758 16BB  66| 98			 cbw 
main.ASM(1647): warning A4001: Extra characters on line
    2759 16BD  98			 cwde 
main.ASM(1648): warning A4001: Extra characters on line
    2760 16BE  3B 4424 10		 cmp eax, DWORD PTR 16[esp]
main.ASM(1649): warning A4001: Extra characters on line
    2761 16C2  0F 84 000016D2 R		 je l0132
main.ASM(1650): warning A4001: Extra characters on line
    2762 16C8  B8 F0000080		 mov eax,30*08000000h+OFFSET 128
main.ASM(1651): warning A4001: Extra characters on line
    2763 16CD  EB 09 90 90 90		 jmp l0129
main.ASM(1652): warning A4001: Extra characters on line
    2764 16D2				l0132:
    2765 16D2  FF 4424 0C		 inc  DWORD PTR 12[esp]
main.ASM(1654): warning A4001: Extra characters on line
    2766 16D6  EB A5			 jmp l0130
main.ASM(1655): warning A4001: Extra characters on line
    2767 16D8				l0129:
    2768 16D8  83 C4 14			 add esp,20
main.ASM(1657): warning A4001: Extra characters on line
    2769 16DB  C3			 ret 
main.ASM(1658): warning A4001: Extra characters on line
    2770 16DC  00000002			 DD 2
    2771				; (*entry copystringtofrom expr 2)
    2772				 PUBLIC copystringtofrom
    2773 16E0				copystringtofrom:
    2774 16E0  89 4424 D4		 mov  DWORD PTR -44[esp],eax
main.ASM(1663): warning A4001: Extra characters on line
    2775 16E4  83 EC 10			 sub esp,16
main.ASM(1664): warning A4001: Extra characters on line
    2776 16E7  89 4424 0C		 mov  DWORD PTR 12[esp],eax
main.ASM(1665): warning A4001: Extra characters on line
    2777 16EB  8B C8			 mov ecx,eax
main.ASM(1666): warning A4001: Extra characters on line
    2778 16ED  81 E1 07FFFFFF		 and ecx,134217727
main.ASM(1667): warning A4001: Extra characters on line
    2779 16F3  89 4C24 04		 mov  DWORD PTR 4[esp],ecx
main.ASM(1668): warning A4001: Extra characters on line
    2780 16F7  8B D3			 mov edx,ebx
main.ASM(1669): warning A4001: Extra characters on line
    2781 16F9  81 E2 07FFFFFF		 and edx,134217727
main.ASM(1670): warning A4001: Extra characters on line
    2782 16FF  89 5424 08		 mov  DWORD PTR 8[esp],edx
main.ASM(1671): warning A4001: Extra characters on line
    2783 1703  8B 2A			 mov ebp,DWORD PTR [edx]
main.ASM(1672): warning A4001: Extra characters on line
    2784 1705  C1 E5 05			 shl ebp,5
main.ASM(1673): warning A4001: Extra characters on line
    2785 1708  C1 FD 05			 sar ebp,5
main.ASM(1674): warning A4001: Extra characters on line
    2786 170B  89 2C24			 mov DWORD PTR [esp],ebp
main.ASM(1675): warning A4001: Extra characters on line
    2787 170E  8B 01			 mov eax,DWORD PTR [ecx]
main.ASM(1676): warning A4001: Extra characters on line
    2788 1710  C1 E0 05			 shl eax,5
main.ASM(1677): warning A4001: Extra characters on line
    2789 1713  C1 F8 05			 sar eax,5
main.ASM(1678): warning A4001: Extra characters on line
    2790 1716  3B C5			 cmp eax,ebp
main.ASM(1679): warning A4001: Extra characters on line
    2791 1718  0F 8D 00001721 R		 jge l0133
main.ASM(1680): warning A4001: Extra characters on line
    2792 171E  89 0424			 mov DWORD PTR [esp],eax
main.ASM(1681): warning A4001: Extra characters on line
    2793 1721				l0133:
    2794 1721  B8 00000005		 mov eax,5
main.ASM(1683): warning A4001: Extra characters on line
    2795 1726  03 0424			 add eax,DWORD PTR [esp]
main.ASM(1684): warning A4001: Extra characters on line
    2796 1729  8B D8			 mov ebx,eax
main.ASM(1685): warning A4001: Extra characters on line
    2797 172B  C1 EB 1E			 shr ebx,30
main.ASM(1686): warning A4001: Extra characters on line
    2798 172E  03 C3			 add eax,ebx
main.ASM(1687): warning A4001: Extra characters on line
    2799 1730  C1 F8 02			 sar eax,2
main.ASM(1688): warning A4001: Extra characters on line
    2800 1733  89 0424			 mov DWORD PTR [esp],eax
main.ASM(1689): warning A4001: Extra characters on line
    2801 1736  8B D8			 mov ebx,eax
main.ASM(1690): warning A4001: Extra characters on line
    2802 1738  33 C0			 xor eax,eax
main.ASM(1691): warning A4001: Extra characters on line
    2803 173A  8B D0			 mov edx,eax
main.ASM(1692): warning A4001: Extra characters on line
    2804 173C  8B CB			 mov ecx,ebx
main.ASM(1693): warning A4001: Extra characters on line
    2805 173E				l0134:
    2806 173E  3B D1			 cmp edx,ecx
main.ASM(1695): warning A4001: Extra characters on line
Microsoft (R) Macro Assembler Version 5.10                  11/16/97 16:56:0
                                                             Page     1-54


    2807 1740  0F 8F 00001765 R		 jg l0135
main.ASM(1696): warning A4001: Extra characters on line
    2808 1746  33 C0			 xor eax,eax
main.ASM(1697): warning A4001: Extra characters on line
    2809 1748  40			 inc eax
main.ASM(1698): warning A4001: Extra characters on line
    2810 1749  03 C2			 add eax,edx
main.ASM(1699): warning A4001: Extra characters on line
    2811 174B  C1 E0 02			 shl eax,2
main.ASM(1700): warning A4001: Extra characters on line
    2812 174E  03 4424 04		 add eax, DWORD PTR 4[esp]
main.ASM(1701): warning A4001: Extra characters on line
    2813 1752  33 DB			 xor ebx,ebx
main.ASM(1702): warning A4001: Extra characters on line
    2814 1754  43			 inc ebx
main.ASM(1703): warning A4001: Extra characters on line
    2815 1755  03 DA			 add ebx,edx
main.ASM(1704): warning A4001: Extra characters on line
    2816 1757  C1 E3 02			 shl ebx,2
main.ASM(1705): warning A4001: Extra characters on line
    2817 175A  03 5C24 08		 add ebx, DWORD PTR 8[esp]
main.ASM(1706): warning A4001: Extra characters on line
    2818 175E  8B 3B			 mov edi,DWORD PTR [ebx]
main.ASM(1707): warning A4001: Extra characters on line
    2819 1760  89 38			 mov DWORD PTR [eax],edi
main.ASM(1708): warning A4001: Extra characters on line
    2820 1762  42			 inc edx
main.ASM(1709): warning A4001: Extra characters on line
    2821 1763  EB D9			 jmp l0134
main.ASM(1710): warning A4001: Extra characters on line
    2822 1765				l0135:
    2823 1765  8B 4424 0C		 mov eax, DWORD PTR 12[esp]
main.ASM(1712): warning A4001: Extra characters on line
    2824 1769  83 C4 10			 add esp,16
main.ASM(1713): warning A4001: Extra characters on line
    2825 176C  C3			 ret 
main.ASM(1714): warning A4001: Extra characters on line
    2826 176D  00000002			 DD 2
    2827				; (*entry cons expr 2)
    2828				 PUBLIC cons
    2829 1771				cons:
    2830 1771  89 4424 E0		 mov  DWORD PTR -32[esp],eax
main.ASM(1719): warning A4001: Extra characters on line
    2831 1775  53			 push ebx
main.ASM(1720): warning A4001: Extra characters on line
    2832 1776  50			 push eax
main.ASM(1721): warning A4001: Extra characters on line
    2833 1777  B8 00000002		 mov eax,2
main.ASM(1722): warning A4001: Extra characters on line
    2834 177C  BF 00000183		 mov edi,387
main.ASM(1723): warning A4001: Extra characters on line
    2835 1781  FF 15 00000DD8 R		 call [symfnc+1548]
main.ASM(1724): warning A4001: Extra characters on line
    2836 1787  8B 3C24			 mov edi,DWORD PTR [esp]
main.ASM(1725): warning A4001: Extra characters on line
    2837 178A  89 38			 mov DWORD PTR [eax],edi
main.ASM(1726): warning A4001: Extra characters on line
    2838 178C  8B 7C24 04		 mov edi, DWORD PTR 4[esp]
main.ASM(1727): warning A4001: Extra characters on line
    2839 1790  89 78 04			 mov  DWORD PTR 4[eax],edi
main.ASM(1728): warning A4001: Extra characters on line
    2840 1793  25 07FFFFFF		 and eax,134217727
main.ASM(1729): warning A4001: Extra characters on line
    2841 1798  0D 48000000		 or eax,1207959552
main.ASM(1730): warning A4001: Extra characters on line
    2842 179D  83 C4 08			 add esp,8
main.ASM(1731): warning A4001: Extra characters on line
    2843 17A0  C3			 ret 
main.ASM(1732): warning A4001: Extra characters on line
    2844 17A1  00000001			 DD 1
    2845				; (*entry interrogate expr 1)
    2846				 PUBLIC interrogate
    2847 17A5				interrogate:
    2848 17A5  C1 E0 02			 shl eax,2
main.ASM(1737): warning A4001: Extra characters on line
    2849 17A8  03 05 000004D8 R		 add eax,symval+1232
main.ASM(1738): warning A4001: Extra characters on line
    2850 17AE  8B 00			 mov eax,DWORD PTR [eax]
main.ASM(1739): warning A4001: Extra characters on line
    2851 17B0  C3			 ret 
main.ASM(1740): warning A4001: Extra characters on line
    2852 17B1  00000002			 DD 2
    2853				; (*entry modify expr 2)
    2854				 PUBLIC modify
    2855 17B5				modify:
    2856 17B5  C1 E0 02			 shl eax,2
main.ASM(1745): warning A4001: Extra characters on line
    2857 17B8  03 05 000004D8 R		 add eax,symval+1232
main.ASM(1746): warning A4001: Extra characters on line
    2858 17BE  89 18			 mov DWORD PTR [eax],ebx
main.ASM(1747): warning A4001: Extra characters on line
    2859 17C0  8B C3			 mov eax,ebx
main.ASM(1748): warning A4001: Extra characters on line
    2860 17C2  C3			 ret 
main.ASM(1749): warning A4001: Extra characters on line
Microsoft (R) Macro Assembler Version 5.10                  11/16/97 16:56:0
                                                             Page     1-55


    2861 17C3  00000003			 DD 3
    2862				; (*entry put expr 3)
    2863				 PUBLIC put
    2864 17C7				put:
    2865 17C7  BF 0000018A		 mov edi,394
main.ASM(1754): warning A4001: Extra characters on line
    2866 17CC  FF 25 00000DF4 R		 jmp [symfnc+1576]
main.ASM(1755): warning A4001: Extra characters on line
    2867 17D2  00000003			 DD 3
    2868				; (*entry unchecked-put expr 3)
    2869				 PUBLIC l0136
    2870 17D6				l0136:
    2871 17D6  89 4424 D4		 mov  DWORD PTR -44[esp],eax
main.ASM(1760): warning A4001: Extra characters on line
    2872 17DA  83 EC 10			 sub esp,16
main.ASM(1761): warning A4001: Extra characters on line
    2873 17DD  BF F0000080		 mov edi,30*08000000h+OFFSET 128
main.ASM(1762): warning A4001: Extra characters on line
    2874 17E2  89 7C24 0C		 mov  DWORD PTR 12[esp],edi
main.ASM(1763): warning A4001: Extra characters on line
    2875 17E6  89 0424			 mov DWORD PTR [esp],eax
main.ASM(1764): warning A4001: Extra characters on line
    2876 17E9  89 5C24 04		 mov  DWORD PTR 4[esp],ebx
main.ASM(1765): warning A4001: Extra characters on line
    2877 17ED  89 4C24 08		 mov  DWORD PTR 8[esp],ecx
main.ASM(1766): warning A4001: Extra characters on line
    2878 17F1  BF 0000018C		 mov edi,396
main.ASM(1767): warning A4001: Extra characters on line
    2879 17F6  FF 15 00000DFC R		 call [symfnc+1584]
main.ASM(1768): warning A4001: Extra characters on line
    2880 17FC  89 4424 0C		 mov  DWORD PTR 12[esp],eax
main.ASM(1769): warning A4001: Extra characters on line
    2881 1800  8B D8			 mov ebx,eax
main.ASM(1770): warning A4001: Extra characters on line
    2882 1802  8B 4424 04		 mov eax, DWORD PTR 4[esp]
main.ASM(1771): warning A4001: Extra characters on line
    2883 1806  BF 0000018D		 mov edi,397
main.ASM(1772): warning A4001: Extra characters on line
    2884 180B  FF 15 00000E00 R		 call [symfnc+1588]
main.ASM(1773): warning A4001: Extra characters on line
    2885 1811  3D F0000080		 cmp eax,30*08000000h+OFFSET 128
main.ASM(1774): warning A4001: Extra characters on line
    2886 1816  0F 84 0000182B R		 je l0137
main.ASM(1775): warning A4001: Extra characters on line
    2887 181C  8B 7C24 08		 mov edi, DWORD PTR 8[esp]
main.ASM(1776): warning A4001: Extra characters on line
    2888 1820  89 B8 B8000004		 mov  DWORD PTR -1207959548[eax],edi
main.ASM(1777): warning A4001: Extra characters on line
    2889 1826  EB 35 90 90 90		 jmp l0138
main.ASM(1778): warning A4001: Extra characters on line
    2890 182B				l0137:
    2891 182B  8B 5C24 08		 mov ebx, DWORD PTR 8[esp]
main.ASM(1780): warning A4001: Extra characters on line
    2892 182F  8B 4424 04		 mov eax, DWORD PTR 4[esp]
main.ASM(1781): warning A4001: Extra characters on line
    2893 1833  BF 00000187		 mov edi,391
main.ASM(1782): warning A4001: Extra characters on line
    2894 1838  FF 15 00000DE8 R		 call [symfnc+1564]
main.ASM(1783): warning A4001: Extra characters on line
    2895 183E  8B 5C24 0C		 mov ebx, DWORD PTR 12[esp]
main.ASM(1784): warning A4001: Extra characters on line
    2896 1842  BF 00000187		 mov edi,391
main.ASM(1785): warning A4001: Extra characters on line
    2897 1847  FF 15 00000DE8 R		 call [symfnc+1564]
main.ASM(1786): warning A4001: Extra characters on line
    2898 184D  8B D8			 mov ebx,eax
main.ASM(1787): warning A4001: Extra characters on line
    2899 184F  8B 0424			 mov eax,DWORD PTR [esp]
main.ASM(1788): warning A4001: Extra characters on line
    2900 1852  BF 0000018E		 mov edi,398
main.ASM(1789): warning A4001: Extra characters on line
    2901 1857  FF 15 00000E04 R		 call [symfnc+1592]
main.ASM(1790): warning A4001: Extra characters on line
    2902 185D				l0138:
    2903 185D  8B 4424 08		 mov eax, DWORD PTR 8[esp]
main.ASM(1792): warning A4001: Extra characters on line
    2904 1861  83 C4 10			 add esp,16
main.ASM(1793): warning A4001: Extra characters on line
    2905 1864  C3			 ret 
main.ASM(1794): warning A4001: Extra characters on line
    2906 1865  00000002			 DD 2
    2907				; (*entry atsoc expr 2)
    2908				 PUBLIC atsoc
    2909 1869				atsoc:
    2910 1869				l0139:
    2911 1869  8B FB			 mov edi,ebx
main.ASM(1800): warning A4001: Extra characters on line
    2912 186B  C1 EF 1B			 shr edi,27
main.ASM(1801): warning A4001: Extra characters on line
    2913 186E  83 FF 09			 cmp edi,9
main.ASM(1802): warning A4001: Extra characters on line
    2914 1871  0F 84 0000187D R		 je l0140
main.ASM(1803): warning A4001: Extra characters on line
Microsoft (R) Macro Assembler Version 5.10                  11/16/97 16:56:0
                                                             Page     1-56


    2915 1877  B8 F0000080		 mov eax,30*08000000h+OFFSET 128
main.ASM(1804): warning A4001: Extra characters on line
    2916 187C  C3			 ret 
main.ASM(1805): warning A4001: Extra characters on line
    2917 187D				l0140:
    2918 187D  8B BB B8000000		 mov edi, DWORD PTR -1207959552[ebx]
main.ASM(1807): warning A4001: Extra characters on line
    2919 1883  C1 EF 1B			 shr edi,27
main.ASM(1808): warning A4001: Extra characters on line
    2920 1886  83 FF 09			 cmp edi,9
main.ASM(1809): warning A4001: Extra characters on line
    2921 1889  0F 85 000018A8 R		 jne l0141
main.ASM(1810): warning A4001: Extra characters on line
    2922 188F  8B B3 B8000000		 mov esi, DWORD PTR -1207959552[ebx]
main.ASM(1811): warning A4001: Extra characters on line
    2923 1895  3B 86 B8000000		 cmp eax, DWORD PTR -1207959552[esi]
main.ASM(1812): warning A4001: Extra characters on line
    2924 189B  0F 85 000018A8 R		 jne l0141
main.ASM(1813): warning A4001: Extra characters on line
    2925 18A1  8B 83 B8000000		 mov eax, DWORD PTR -1207959552[ebx]
main.ASM(1814): warning A4001: Extra characters on line
    2926 18A7  C3			 ret 
main.ASM(1815): warning A4001: Extra characters on line
    2927 18A8				l0141:
    2928 18A8  8B 9B B8000004		 mov ebx, DWORD PTR -1207959548[ebx]
main.ASM(1817): warning A4001: Extra characters on line
    2929 18AE  EB B9			 jmp l0139
main.ASM(1818): warning A4001: Extra characters on line
    2930 18B0  00000002			 DD 2
    2931				; (*entry unchecked-setprop expr 2)
    2932				 PUBLIC l0142
    2933 18B4				l0142:
    2934 18B4  25 07FFFFFF		 and eax,134217727
main.ASM(1823): warning A4001: Extra characters on line
    2935 18B9  C1 E0 02			 shl eax,2
main.ASM(1824): warning A4001: Extra characters on line
    2936 18BC  03 05 000004E8 R		 add eax,symval+1248
main.ASM(1825): warning A4001: Extra characters on line
    2937 18C2  89 18			 mov DWORD PTR [eax],ebx
main.ASM(1826): warning A4001: Extra characters on line
    2938 18C4  8B C3			 mov eax,ebx
main.ASM(1827): warning A4001: Extra characters on line
    2939 18C6  C3			 ret 
main.ASM(1828): warning A4001: Extra characters on line
    2940 18C7  00000001			 DD 1
    2941				; (*entry unchecked-prop expr 1)
    2942				 PUBLIC l0143
    2943 18CB				l0143:
    2944 18CB  25 07FFFFFF		 and eax,134217727
main.ASM(1833): warning A4001: Extra characters on line
    2945 18D0  C1 E0 02			 shl eax,2
main.ASM(1834): warning A4001: Extra characters on line
    2946 18D3  03 05 000004E8 R		 add eax,symval+1248
main.ASM(1835): warning A4001: Extra characters on line
    2947 18D9  8B 00			 mov eax,DWORD PTR [eax]
main.ASM(1836): warning A4001: Extra characters on line
    2948 18DB  C3			 ret 
main.ASM(1837): warning A4001: Extra characters on line
    2949 18DC  00000003			 DD 3
    2950				; (*entry putd expr 3)
    2951				 PUBLIC putd
    2952 18E0				putd:
    2953 18E0  BF 0000018F		 mov edi,399
main.ASM(1842): warning A4001: Extra characters on line
    2954 18E5  FF 25 00000E08 R		 jmp [symfnc+1596]
main.ASM(1843): warning A4001: Extra characters on line
    2955 18EB				l0144:
    2956 18EB  0000001A			 DD 26
    2957 18EF  42 61 64 20 70 61	 DB 66,97,100,32,112,97,114,97,109,101,
					116
    2958       72 61 6D 65 74		
    2959 18FA  65 72 73 20 74 6F	 DB 101,114,115,32,116,111,32,67,79,68,
					69
    2960       20 43 4F 44 45		
    2961 1905  2D 50 55 54 44 00	 DB 45,80,85,84,68,0
    2962 190B  00000003			 DD 3
    2963				; (*entry code-putd expr 3)
    2964				 PUBLIC l0145
    2965 190F				l0145:
    2966 190F  89 4424 D8		 mov  DWORD PTR -40[esp],eax
main.ASM(1853): warning A4001: Extra characters on line
Microsoft (R) Macro Assembler Version 5.10                  11/16/97 16:56:0
                                                             Page     1-57


    2967 1913  83 EC 0C			 sub esp,12
main.ASM(1854): warning A4001: Extra characters on line
    2968 1916  89 0424			 mov DWORD PTR [esp],eax
main.ASM(1855): warning A4001: Extra characters on line
    2969 1919  89 5C24 04		 mov  DWORD PTR 4[esp],ebx
main.ASM(1856): warning A4001: Extra characters on line
    2970 191D  89 4C24 08		 mov  DWORD PTR 8[esp],ecx
main.ASM(1857): warning A4001: Extra characters on line
    2971 1921  8B F8			 mov edi,eax
main.ASM(1858): warning A4001: Extra characters on line
    2972 1923  C1 EF 1B			 shr edi,27
main.ASM(1859): warning A4001: Extra characters on line
    2973 1926  83 FF 1E			 cmp edi,30
main.ASM(1860): warning A4001: Extra characters on line
    2974 1929  0F 85 0000194B R		 jne l0146
main.ASM(1861): warning A4001: Extra characters on line
    2975 192F  8B FB			 mov edi,ebx
main.ASM(1862): warning A4001: Extra characters on line
    2976 1931  C1 EF 1B			 shr edi,27
main.ASM(1863): warning A4001: Extra characters on line
    2977 1934  83 FF 1E			 cmp edi,30
main.ASM(1864): warning A4001: Extra characters on line
    2978 1937  0F 85 0000194B R		 jne l0146
main.ASM(1865): warning A4001: Extra characters on line
    2979 193D  8B F9			 mov edi,ecx
main.ASM(1866): warning A4001: Extra characters on line
    2980 193F  C1 EF 1B			 shr edi,27
main.ASM(1867): warning A4001: Extra characters on line
    2981 1942  83 FF 14			 cmp edi,20
main.ASM(1868): warning A4001: Extra characters on line
    2982 1945  0F 84 0000195B R		 je l0147
main.ASM(1869): warning A4001: Extra characters on line
    2983 194B				l0146:
    2984 194B  B8 18EB R		 mov eax,4*08000000h+OFFSET l0144
main.ASM(1871): warning A4001: Extra characters on line
    2985 1950  BF 00000156		 mov edi,342
main.ASM(1872): warning A4001: Extra characters on line
    2986 1955  FF 15 00000D24 R		 call [symfnc+1368]
main.ASM(1873): warning A4001: Extra characters on line
    2987 195B				l0147:
    2988 195B  8B 5C24 08		 mov ebx, DWORD PTR 8[esp]
main.ASM(1875): warning A4001: Extra characters on line
    2989 195F  81 E3 07FFFFFF		 and ebx,134217727
main.ASM(1876): warning A4001: Extra characters on line
    2990 1965  8B 0424			 mov eax,DWORD PTR [esp]
main.ASM(1877): warning A4001: Extra characters on line
    2991 1968  25 07FFFFFF		 and eax,134217727
main.ASM(1878): warning A4001: Extra characters on line
    2992 196D  BF 00000190		 mov edi,400
main.ASM(1879): warning A4001: Extra characters on line
    2993 1972  FF 15 00000E0C R		 call [symfnc+1600]
main.ASM(1880): warning A4001: Extra characters on line
    2994 1978  8B 7C24 04		 mov edi, DWORD PTR 4[esp]
main.ASM(1881): warning A4001: Extra characters on line
    2995 197C  81 FF F0000191		 cmp edi,30*08000000h+OFFSET 401
main.ASM(1882): warning A4001: Extra characters on line
    2996 1982  0F 84 000019A2 R		 je l0148
main.ASM(1883): warning A4001: Extra characters on line
    2997 1988  8B 4C24 04		 mov ecx, DWORD PTR 4[esp]
main.ASM(1884): warning A4001: Extra characters on line
    2998 198C  BB F0000192		 mov ebx,30*08000000h+OFFSET 402
main.ASM(1885): warning A4001: Extra characters on line
    2999 1991  8B 0424			 mov eax,DWORD PTR [esp]
main.ASM(1886): warning A4001: Extra characters on line
    3000 1994  83 C4 0C			 add esp,12
main.ASM(1887): warning A4001: Extra characters on line
    3001 1997  BF 0000018B		 mov edi,395
main.ASM(1888): warning A4001: Extra characters on line
    3002 199C  FF 25 00000DF8 R		 jmp [symfnc+1580]
main.ASM(1889): warning A4001: Extra characters on line
    3003 19A2				l0148:
    3004 19A2  B8 F0000080		 mov eax,30*08000000h+OFFSET 128
main.ASM(1891): warning A4001: Extra characters on line
    3005 19A7  83 C4 0C			 add esp,12
main.ASM(1892): warning A4001: Extra characters on line
    3006 19AA  C3			 ret 
main.ASM(1893): warning A4001: Extra characters on line
    3007 19AB  00000001			 DD 1
    3008				; (*entry fluid expr 1)
    3009				 PUBLIC fluid
    3010 19AF				fluid:
    3011 19AF  89 4424 D8		 mov  DWORD PTR -40[esp],eax
main.ASM(1898): warning A4001: Extra characters on line
    3012 19B3  83 EC 0C			 sub esp,12
main.ASM(1899): warning A4001: Extra characters on line
    3013 19B6  BF F0000080		 mov edi,30*08000000h+OFFSET 128
main.ASM(1900): warning A4001: Extra characters on line
    3014 19BB  89 7C24 08		 mov  DWORD PTR 8[esp],edi
main.ASM(1901): warning A4001: Extra characters on line
    3015 19BF  89 0424			 mov DWORD PTR [esp],eax
main.ASM(1902): warning A4001: Extra characters on line
    3016 19C2  B8 F0000080		 mov eax,30*08000000h+OFFSET 128
main.ASM(1903): warning A4001: Extra characters on line
    3017 19C7  8B 3C24			 mov edi,DWORD PTR [esp]
main.ASM(1904): warning A4001: Extra characters on line
    3018 19CA  89 7C24 04		 mov  DWORD PTR 4[esp],edi
main.ASM(1905): warning A4001: Extra characters on line
    3019 19CE  8B 7C24 04		 mov edi, DWORD PTR 4[esp]
main.ASM(1906): warning A4001: Extra characters on line
    3020 19D2  C1 EF 1B			 shr edi,27
main.ASM(1907): warning A4001: Extra characters on line
Microsoft (R) Macro Assembler Version 5.10                  11/16/97 16:56:0
                                                             Page     1-58


    3021 19D5  83 FF 09			 cmp edi,9
main.ASM(1908): warning A4001: Extra characters on line
    3022 19D8  0F 85 000019ED R		 jne l0149
main.ASM(1909): warning A4001: Extra characters on line
    3023 19DE  8B 4424 04		 mov eax, DWORD PTR 4[esp]
main.ASM(1910): warning A4001: Extra characters on line
    3024 19E2  8B 80 B8000000		 mov eax, DWORD PTR -1207959552[eax]
main.ASM(1911): warning A4001: Extra characters on line
    3025 19E8  EB 08 90 90 90		 jmp l0150
main.ASM(1912): warning A4001: Extra characters on line
    3026 19ED				l0149:
    3027 19ED  B8 F0000080		 mov eax,30*08000000h+OFFSET 128
main.ASM(1914): warning A4001: Extra characters on line
    3028 19F2				l0150:
    3029 19F2  89 4424 08		 mov  DWORD PTR 8[esp],eax
main.ASM(1916): warning A4001: Extra characters on line
    3030 19F6				l0151:
    3031 19F6  8B 7C24 04		 mov edi, DWORD PTR 4[esp]
main.ASM(1918): warning A4001: Extra characters on line
    3032 19FA  C1 EF 1B			 shr edi,27
main.ASM(1919): warning A4001: Extra characters on line
    3033 19FD  83 FF 09			 cmp edi,9
main.ASM(1920): warning A4001: Extra characters on line
    3034 1A00  0F 84 00001A10 R		 je l0152
main.ASM(1921): warning A4001: Extra characters on line
    3035 1A06  B8 F0000080		 mov eax,30*08000000h+OFFSET 128
main.ASM(1922): warning A4001: Extra characters on line
    3036 1A0B  EB 44 90 90 90		 jmp l0153
main.ASM(1923): warning A4001: Extra characters on line
    3037 1A10				l0152:
    3038 1A10  8B 4424 08		 mov eax, DWORD PTR 8[esp]
main.ASM(1925): warning A4001: Extra characters on line
    3039 1A14  BF 00000193		 mov edi,403
main.ASM(1926): warning A4001: Extra characters on line
    3040 1A19  FF 15 00000E18 R		 call [symfnc+1612]
main.ASM(1927): warning A4001: Extra characters on line
    3041 1A1F  8B 4424 04		 mov eax, DWORD PTR 4[esp]
main.ASM(1928): warning A4001: Extra characters on line
    3042 1A23  8B 80 B8000004		 mov eax, DWORD PTR -1207959548[eax]
main.ASM(1929): warning A4001: Extra characters on line
    3043 1A29  89 4424 04		 mov  DWORD PTR 4[esp],eax
main.ASM(1930): warning A4001: Extra characters on line
    3044 1A2D  8B F8			 mov edi,eax
main.ASM(1931): warning A4001: Extra characters on line
    3045 1A2F  C1 EF 1B			 shr edi,27
main.ASM(1932): warning A4001: Extra characters on line
    3046 1A32  83 FF 09			 cmp edi,9
main.ASM(1933): warning A4001: Extra characters on line
    3047 1A35  0F 85 00001A46 R		 jne l0154
main.ASM(1934): warning A4001: Extra characters on line
    3048 1A3B  8B 80 B8000000		 mov eax, DWORD PTR -1207959552[eax]
main.ASM(1935): warning A4001: Extra characters on line
    3049 1A41  EB 08 90 90 90		 jmp l0155
main.ASM(1936): warning A4001: Extra characters on line
    3050 1A46				l0154:
    3051 1A46  B8 F0000080		 mov eax,30*08000000h+OFFSET 128
main.ASM(1938): warning A4001: Extra characters on line
    3052 1A4B				l0155:
    3053 1A4B  89 4424 08		 mov  DWORD PTR 8[esp],eax
main.ASM(1940): warning A4001: Extra characters on line
    3054 1A4F  EB A5			 jmp l0151
main.ASM(1941): warning A4001: Extra characters on line
    3055 1A51				l0153:
    3056 1A51  83 C4 0C			 add esp,12
main.ASM(1943): warning A4001: Extra characters on line
    3057 1A54  C3			 ret 
main.ASM(1944): warning A4001: Extra characters on line
    3058 1A55  00000001			 DD 1
    3059				; (*entry fluid1 expr 1)
    3060				 PUBLIC l0156
    3061 1A59				l0156:
    3062 1A59  B9 F0000194		 mov ecx,30*08000000h+OFFSET 404
main.ASM(1949): warning A4001: Extra characters on line
    3063 1A5E  BB F0000195		 mov ebx,30*08000000h+OFFSET 405
main.ASM(1950): warning A4001: Extra characters on line
    3064 1A63  BF 0000018B		 mov edi,395
main.ASM(1951): warning A4001: Extra characters on line
    3065 1A68  FF 25 00000DF8 R		 jmp [symfnc+1580]
main.ASM(1952): warning A4001: Extra characters on line
    3066 1A6E  00000001			 DD 1
    3067				; (*entry stderror expr 1)
    3068				 PUBLIC stderror
    3069 1A72				stderror:
    3070 1A72  BF 00000156		 mov edi,342
main.ASM(1957): warning A4001: Extra characters on line
    3071 1A77  FF 25 00000D24 R		 jmp [symfnc+1368]
main.ASM(1958): warning A4001: Extra characters on line
    3072 1A7D  00000002			 DD 2
    3073				; (*entry *define-constant expr 2)
    3074				 PUBLIC l0157
Microsoft (R) Macro Assembler Version 5.10                  11/16/97 16:56:0
                                                             Page     1-59


    3075 1A81				l0157:
    3076 1A81  8B C8			 mov ecx,eax
main.ASM(1963): warning A4001: Extra characters on line
    3077 1A83  81 E1 07FFFFFF		 and ecx,134217727
main.ASM(1964): warning A4001: Extra characters on line
    3078 1A89  C1 E1 02			 shl ecx,2
main.ASM(1965): warning A4001: Extra characters on line
    3079 1A8C  03 0D 000004D8 R		 add ecx,symval+1232
main.ASM(1966): warning A4001: Extra characters on line
    3080 1A92  89 19			 mov DWORD PTR [ecx],ebx
main.ASM(1967): warning A4001: Extra characters on line
    3081 1A94  B9 F0000074		 mov ecx,30*08000000h+OFFSET 116
main.ASM(1968): warning A4001: Extra characters on line
    3082 1A99  BB F0000196		 mov ebx,30*08000000h+OFFSET 406
main.ASM(1969): warning A4001: Extra characters on line
    3083 1A9E  BF 0000018B		 mov edi,395
main.ASM(1970): warning A4001: Extra characters on line
    3084 1AA3  FF 25 00000DF8 R		 jmp [symfnc+1580]
main.ASM(1971): warning A4001: Extra characters on line
    3085				EXTRN _whatsup:NEAR
    3086 1AA9  00000001			 DD 1
    3087				; (*entry whatsup expr 1)
    3088				 PUBLIC l0158
    3089 1AAD				l0158:
    3090 1AAD  83 3D 000004CC R 00	 cmp symval+1220,0
main.ASM(1977): warning A4001: Extra characters on line
    3091 1AB4  0F 8D 00001AC5 R		 jge l0159
main.ASM(1978): warning A4001: Extra characters on line
    3092 1ABA  BF 00000198		 mov edi,408
main.ASM(1979): warning A4001: Extra characters on line
    3093 1ABF  FF 25 00000E2C R		 jmp [symfnc+1632]
main.ASM(1980): warning A4001: Extra characters on line
    3094 1AC5				l0159:
    3095 1AC5  50			 push eax
main.ASM(1982): warning A4001: Extra characters on line
    3096 1AC6  E8 00000000 E		 call _whatsup
main.ASM(1983): warning A4001: Extra characters on line
    3097 1ACB  83 C4 04			 add esp,4
main.ASM(1984): warning A4001: Extra characters on line
    3098 1ACE  C3			 ret 
main.ASM(1985): warning A4001: Extra characters on line
    3099				EXTRN _getpid:NEAR
    3100 1ACF  00000000			 DD 0
    3101				; (*entry getpid expr 0)
    3102				 PUBLIC l0160
    3103 1AD3				l0160:
    3104 1AD3  E8 00000000 E		 call _getpid
main.ASM(1991): warning A4001: Extra characters on line
    3105 1AD8  83 C4 00			 add esp,0
main.ASM(1992): warning A4001: Extra characters on line
    3106 1ADB  C3			 ret 
main.ASM(1993): warning A4001: Extra characters on line
    3107				EXTRN _echoon:NEAR
    3108 1ADC  00000000			 DD 0
    3109				; (*entry echoon expr 0)
    3110				 PUBLIC l0161
    3111 1AE0				l0161:
    3112 1AE0  E8 00000000 E		 call _echoon
main.ASM(1999): warning A4001: Extra characters on line
    3113 1AE5  83 C4 00			 add esp,0
main.ASM(2000): warning A4001: Extra characters on line
    3114 1AE8  C3			 ret 
main.ASM(2001): warning A4001: Extra characters on line
    3115				EXTRN _echooff:NEAR
    3116 1AE9  00000000			 DD 0
    3117				; (*entry echooff expr 0)
    3118				 PUBLIC l0162
    3119 1AED				l0162:
    3120 1AED  E8 00000000 E		 call _echooff
main.ASM(2007): warning A4001: Extra characters on line
    3121 1AF2  83 C4 00			 add esp,0
main.ASM(2008): warning A4001: Extra characters on line
    3122 1AF5  C3			 ret 
main.ASM(2009): warning A4001: Extra characters on line
    3123				EXTRN _external_charsininputbuffer:NEAR
    3124 1AF6  00000001			 DD 1
    3125				; (*entry external_charsininputbuffer e
					xpr 1)
    3126				 PUBLIC l0163
    3127 1AFA				l0163:
Microsoft (R) Macro Assembler Version 5.10                  11/16/97 16:56:0
                                                             Page     1-60


    3128 1AFA  50			 push eax
main.ASM(2015): warning A4001: Extra characters on line
    3129 1AFB  E8 00000000 E		 call _external_charsininputbuffer
main.ASM(2016): warning A4001: Extra characters on line
    3130 1B00  83 C4 04			 add esp,4
main.ASM(2017): warning A4001: Extra characters on line
    3131 1B03  C3			 ret 
main.ASM(2018): warning A4001: Extra characters on line
    3132				EXTRN _flushstdoutputbuffer:NEAR
    3133 1B04  00000000			 DD 0
    3134				; (*entry flushstdoutputbuffer expr 0)
    3135				 PUBLIC l0164
    3136 1B08				l0164:
    3137 1B08  E8 00000000 E		 call _flushstdoutputbuffer
main.ASM(2024): warning A4001: Extra characters on line
    3138 1B0D  83 C4 00			 add esp,0
main.ASM(2025): warning A4001: Extra characters on line
    3139 1B10  C3			 ret 
main.ASM(2026): warning A4001: Extra characters on line
    3140				EXTRN _external_user_homedir_string:NEA
					R
    3141 1B11  00000000			 DD 0
    3142				; (*entry external_user_homedir_string 
					expr 0)
    3143				 PUBLIC l0165
    3144 1B15				l0165:
    3145 1B15  E8 00000000 E		 call _external_user_homedir_string
main.ASM(2032): warning A4001: Extra characters on line
    3146 1B1A  83 C4 00			 add esp,0
main.ASM(2033): warning A4001: Extra characters on line
    3147 1B1D  C3			 ret 
main.ASM(2034): warning A4001: Extra characters on line
    3148				EXTRN _alterheapsize:NEAR
    3149 1B1E  00000001			 DD 1
    3150				; (*entry alterheapsize expr 1)
    3151				 PUBLIC l0166
    3152 1B22				l0166:
    3153 1B22  50			 push eax
main.ASM(2040): warning A4001: Extra characters on line
    3154 1B23  E8 00000000 E		 call _alterheapsize
main.ASM(2041): warning A4001: Extra characters on line
    3155 1B28  83 C4 04			 add esp,4
main.ASM(2042): warning A4001: Extra characters on line
    3156 1B2B  C3			 ret 
main.ASM(2043): warning A4001: Extra characters on line
    3157				EXTRN _allocatemorebps:NEAR
    3158 1B2C  00000001			 DD 1
    3159				; (*entry allocatemorebps expr 1)
    3160				 PUBLIC l0167
    3161 1B30				l0167:
    3162 1B30  50			 push eax
main.ASM(2049): warning A4001: Extra characters on line
    3163 1B31  E8 00000000 E		 call _allocatemorebps
main.ASM(2050): warning A4001: Extra characters on line
    3164 1B36  83 C4 04			 add esp,4
main.ASM(2051): warning A4001: Extra characters on line
    3165 1B39  C3			 ret 
main.ASM(2052): warning A4001: Extra characters on line
    3166				EXTRN _get_file_status:NEAR
    3167 1B3A  00000003			 DD 3
    3168				; (*entry get_file_status expr 3)
    3169				 PUBLIC l0168
    3170 1B3E				l0168:
    3171 1B3E  51			 push ecx
main.ASM(2058): warning A4001: Extra characters on line
    3172 1B3F  53			 push ebx
main.ASM(2059): warning A4001: Extra characters on line
    3173 1B40  50			 push eax
main.ASM(2060): warning A4001: Extra characters on line
    3174 1B41  E8 00000000 E		 call _get_file_status
main.ASM(2061): warning A4001: Extra characters on line
    3175 1B46  83 C4 0C			 add esp,12
main.ASM(2062): warning A4001: Extra characters on line
    3176 1B49  C3			 ret 
main.ASM(2063): warning A4001: Extra characters on line
    3177				EXTRN _os_startup_hook:NEAR
    3178 1B4A  00000002			 DD 2
    3179				; (*entry os_startup_hook expr 2)
Microsoft (R) Macro Assembler Version 5.10                  11/16/97 16:56:0
                                                             Page     1-61


    3180				 PUBLIC l0169
    3181 1B4E				l0169:
    3182 1B4E  53			 push ebx
main.ASM(2069): warning A4001: Extra characters on line
    3183 1B4F  50			 push eax
main.ASM(2070): warning A4001: Extra characters on line
    3184 1B50  E8 00000000 E		 call _os_startup_hook
main.ASM(2071): warning A4001: Extra characters on line
    3185 1B55  83 C4 08			 add esp,8
main.ASM(2072): warning A4001: Extra characters on line
    3186 1B58  C3			 ret 
main.ASM(2073): warning A4001: Extra characters on line
    3187				EXTRN _os_cleanup_hook:NEAR
    3188 1B59  00000000			 DD 0
    3189				; (*entry os_cleanup_hook expr 0)
    3190				 PUBLIC l0170
    3191 1B5D				l0170:
    3192 1B5D  E8 00000000 E		 call _os_cleanup_hook
main.ASM(2079): warning A4001: Extra characters on line
    3193 1B62  83 C4 00			 add esp,0
main.ASM(2080): warning A4001: Extra characters on line
    3194 1B65  C3			 ret 
main.ASM(2081): warning A4001: Extra characters on line
    3195				EXTRN _external_alarm:NEAR
    3196 1B66  00000001			 DD 1
    3197				; (*entry external_alarm expr 1)
    3198				 PUBLIC l0171
    3199 1B6A				l0171:
    3200 1B6A  50			 push eax
main.ASM(2087): warning A4001: Extra characters on line
    3201 1B6B  E8 00000000 E		 call _external_alarm
main.ASM(2088): warning A4001: Extra characters on line
    3202 1B70  83 C4 04			 add esp,4
main.ASM(2089): warning A4001: Extra characters on line
    3203 1B73  C3			 ret 
main.ASM(2090): warning A4001: Extra characters on line
    3204				EXTRN _external_ualarm:NEAR
    3205 1B74  00000002			 DD 2
    3206				; (*entry external_ualarm expr 2)
    3207				 PUBLIC l0172
    3208 1B78				l0172:
    3209 1B78  53			 push ebx
main.ASM(2096): warning A4001: Extra characters on line
    3210 1B79  50			 push eax
main.ASM(2097): warning A4001: Extra characters on line
    3211 1B7A  E8 00000000 E		 call _external_ualarm
main.ASM(2098): warning A4001: Extra characters on line
    3212 1B7F  83 C4 08			 add esp,8
main.ASM(2099): warning A4001: Extra characters on line
    3213 1B82  C3			 ret 
main.ASM(2100): warning A4001: Extra characters on line
    3214				EXTRN _external_time:NEAR
    3215 1B83  00000001			 DD 1
    3216				; (*entry external_time expr 1)
    3217				 PUBLIC l0173
    3218 1B87				l0173:
    3219 1B87  50			 push eax
main.ASM(2106): warning A4001: Extra characters on line
    3220 1B88  E8 00000000 E		 call _external_time
main.ASM(2107): warning A4001: Extra characters on line
    3221 1B8D  83 C4 04			 add esp,4
main.ASM(2108): warning A4001: Extra characters on line
    3222 1B90  C3			 ret 
main.ASM(2109): warning A4001: Extra characters on line
    3223				EXTRN _external_timc:NEAR
    3224 1B91  00000001			 DD 1
    3225				; (*entry external_timc expr 1)
    3226				 PUBLIC l0174
    3227 1B95				l0174:
    3228 1B95  50			 push eax
main.ASM(2115): warning A4001: Extra characters on line
    3229 1B96  E8 00000000 E		 call _external_timc
main.ASM(2116): warning A4001: Extra characters on line
    3230 1B9B  83 C4 04			 add esp,4
main.ASM(2117): warning A4001: Extra characters on line
    3231 1B9E  C3			 ret 
main.ASM(2118): warning A4001: Extra characters on line
    3232				EXTRN _external_stat:NEAR
    3233 1B9F  00000002			 DD 2
Microsoft (R) Macro Assembler Version 5.10                  11/16/97 16:56:0
                                                             Page     1-62


    3234				; (*entry external_stat expr 2)
    3235				 PUBLIC l0175
    3236 1BA3				l0175:
    3237 1BA3  53			 push ebx
main.ASM(2124): warning A4001: Extra characters on line
    3238 1BA4  50			 push eax
main.ASM(2125): warning A4001: Extra characters on line
    3239 1BA5  E8 00000000 E		 call _external_stat
main.ASM(2126): warning A4001: Extra characters on line
    3240 1BAA  83 C4 08			 add esp,8
main.ASM(2127): warning A4001: Extra characters on line
    3241 1BAD  C3			 ret 
main.ASM(2128): warning A4001: Extra characters on line
    3242				EXTRN _external_link:NEAR
    3243 1BAE  00000002			 DD 2
    3244				; (*entry external_link expr 2)
    3245				 PUBLIC l0176
    3246 1BB2				l0176:
    3247 1BB2  53			 push ebx
main.ASM(2134): warning A4001: Extra characters on line
    3248 1BB3  50			 push eax
main.ASM(2135): warning A4001: Extra characters on line
    3249 1BB4  E8 00000000 E		 call _external_link
main.ASM(2136): warning A4001: Extra characters on line
    3250 1BB9  83 C4 08			 add esp,8
main.ASM(2137): warning A4001: Extra characters on line
    3251 1BBC  C3			 ret 
main.ASM(2138): warning A4001: Extra characters on line
    3252				EXTRN _external_unlink:NEAR
    3253 1BBD  00000001			 DD 1
    3254				; (*entry external_unlink expr 1)
    3255				 PUBLIC l0177
    3256 1BC1				l0177:
    3257 1BC1  50			 push eax
main.ASM(2144): warning A4001: Extra characters on line
    3258 1BC2  E8 00000000 E		 call _external_unlink
main.ASM(2145): warning A4001: Extra characters on line
    3259 1BC7  83 C4 04			 add esp,4
main.ASM(2146): warning A4001: Extra characters on line
    3260 1BCA  C3			 ret 
main.ASM(2147): warning A4001: Extra characters on line
    3261				EXTRN _external_setenv:NEAR
    3262 1BCB  00000002			 DD 2
    3263				; (*entry external_setenv expr 2)
    3264				 PUBLIC l0178
    3265 1BCF				l0178:
    3266 1BCF  53			 push ebx
main.ASM(2153): warning A4001: Extra characters on line
    3267 1BD0  50			 push eax
main.ASM(2154): warning A4001: Extra characters on line
    3268 1BD1  E8 00000000 E		 call _external_setenv
main.ASM(2155): warning A4001: Extra characters on line
    3269 1BD6  83 C4 08			 add esp,8
main.ASM(2156): warning A4001: Extra characters on line
    3270 1BD9  C3			 ret 
main.ASM(2157): warning A4001: Extra characters on line
    3271				EXTRN _external_getenv:NEAR
    3272 1BDA  00000001			 DD 1
    3273				; (*entry external_getenv expr 1)
    3274				 PUBLIC l0179
    3275 1BDE				l0179:
    3276 1BDE  50			 push eax
main.ASM(2163): warning A4001: Extra characters on line
    3277 1BDF  E8 00000000 E		 call _external_getenv
main.ASM(2164): warning A4001: Extra characters on line
    3278 1BE4  83 C4 04			 add esp,4
main.ASM(2165): warning A4001: Extra characters on line
    3279 1BE7  C3			 ret 
main.ASM(2166): warning A4001: Extra characters on line
    3280				EXTRN _uxfloat:NEAR
    3281 1BE8  00000002			 DD 2
    3282				; (*entry uxfloat expr 2)
    3283				 PUBLIC l0180
    3284 1BEC				l0180:
    3285 1BEC  53			 push ebx
main.ASM(2172): warning A4001: Extra characters on line
    3286 1BED  50			 push eax
main.ASM(2173): warning A4001: Extra characters on line
    3287 1BEE  E8 00000000 E		 call _uxfloat
main.ASM(2174): warning A4001: Extra characters on line
Microsoft (R) Macro Assembler Version 5.10                  11/16/97 16:56:0
                                                             Page     1-63


    3288 1BF3  83 C4 08			 add esp,8
main.ASM(2175): warning A4001: Extra characters on line
    3289 1BF6  C3			 ret 
main.ASM(2176): warning A4001: Extra characters on line
    3290				EXTRN _uxfix:NEAR
    3291 1BF7  00000001			 DD 1
    3292				; (*entry uxfix expr 1)
    3293				 PUBLIC l0181
    3294 1BFB				l0181:
    3295 1BFB  50			 push eax
main.ASM(2182): warning A4001: Extra characters on line
    3296 1BFC  E8 00000000 E		 call _uxfix
main.ASM(2183): warning A4001: Extra characters on line
    3297 1C01  83 C4 04			 add esp,4
main.ASM(2184): warning A4001: Extra characters on line
    3298 1C04  C3			 ret 
main.ASM(2185): warning A4001: Extra characters on line
    3299				EXTRN _uxassign:NEAR
    3300 1C05  00000002			 DD 2
    3301				; (*entry uxassign expr 2)
    3302				 PUBLIC l0182
    3303 1C09				l0182:
    3304 1C09  53			 push ebx
main.ASM(2191): warning A4001: Extra characters on line
    3305 1C0A  50			 push eax
main.ASM(2192): warning A4001: Extra characters on line
    3306 1C0B  E8 00000000 E		 call _uxassign
main.ASM(2193): warning A4001: Extra characters on line
    3307 1C10  83 C4 08			 add esp,8
main.ASM(2194): warning A4001: Extra characters on line
    3308 1C13  C3			 ret 
main.ASM(2195): warning A4001: Extra characters on line
    3309				EXTRN _uxplus2:NEAR
    3310 1C14  00000003			 DD 3
    3311				; (*entry uxplus2 expr 3)
    3312				 PUBLIC l0183
    3313 1C18				l0183:
    3314 1C18  51			 push ecx
main.ASM(2201): warning A4001: Extra characters on line
    3315 1C19  53			 push ebx
main.ASM(2202): warning A4001: Extra characters on line
    3316 1C1A  50			 push eax
main.ASM(2203): warning A4001: Extra characters on line
    3317 1C1B  E8 00000000 E		 call _uxplus2
main.ASM(2204): warning A4001: Extra characters on line
    3318 1C20  83 C4 0C			 add esp,12
main.ASM(2205): warning A4001: Extra characters on line
    3319 1C23  C3			 ret 
main.ASM(2206): warning A4001: Extra characters on line
    3320				EXTRN _uxdifference:NEAR
    3321 1C24  00000003			 DD 3
    3322				; (*entry uxdifference expr 3)
    3323				 PUBLIC l0184
    3324 1C28				l0184:
    3325 1C28  51			 push ecx
main.ASM(2212): warning A4001: Extra characters on line
    3326 1C29  53			 push ebx
main.ASM(2213): warning A4001: Extra characters on line
    3327 1C2A  50			 push eax
main.ASM(2214): warning A4001: Extra characters on line
    3328 1C2B  E8 00000000 E		 call _uxdifference
main.ASM(2215): warning A4001: Extra characters on line
    3329 1C30  83 C4 0C			 add esp,12
main.ASM(2216): warning A4001: Extra characters on line
    3330 1C33  C3			 ret 
main.ASM(2217): warning A4001: Extra characters on line
    3331				EXTRN _uxtimes2:NEAR
    3332 1C34  00000003			 DD 3
    3333				; (*entry uxtimes2 expr 3)
    3334				 PUBLIC l0185
    3335 1C38				l0185:
    3336 1C38  51			 push ecx
main.ASM(2223): warning A4001: Extra characters on line
    3337 1C39  53			 push ebx
main.ASM(2224): warning A4001: Extra characters on line
    3338 1C3A  50			 push eax
main.ASM(2225): warning A4001: Extra characters on line
    3339 1C3B  E8 00000000 E		 call _uxtimes2
main.ASM(2226): warning A4001: Extra characters on line
    3340 1C40  83 C4 0C			 add esp,12
main.ASM(2227): warning A4001: Extra characters on line
    3341 1C43  C3			 ret 
main.ASM(2228): warning A4001: Extra characters on line
Microsoft (R) Macro Assembler Version 5.10                  11/16/97 16:56:0
                                                             Page     1-64


    3342				EXTRN _uxquotient:NEAR
    3343 1C44  00000003			 DD 3
    3344				; (*entry uxquotient expr 3)
    3345				 PUBLIC l0186
    3346 1C48				l0186:
    3347 1C48  51			 push ecx
main.ASM(2234): warning A4001: Extra characters on line
    3348 1C49  53			 push ebx
main.ASM(2235): warning A4001: Extra characters on line
    3349 1C4A  50			 push eax
main.ASM(2236): warning A4001: Extra characters on line
    3350 1C4B  E8 00000000 E		 call _uxquotient
main.ASM(2237): warning A4001: Extra characters on line
    3351 1C50  83 C4 0C			 add esp,12
main.ASM(2238): warning A4001: Extra characters on line
    3352 1C53  C3			 ret 
main.ASM(2239): warning A4001: Extra characters on line
    3353				EXTRN _uxgreaterp:NEAR
    3354 1C54  00000004			 DD 4
    3355				; (*entry uxgreaterp expr 4)
    3356				 PUBLIC l0187
    3357 1C58				l0187:
    3358 1C58  52			 push edx
main.ASM(2245): warning A4001: Extra characters on line
    3359 1C59  51			 push ecx
main.ASM(2246): warning A4001: Extra characters on line
    3360 1C5A  53			 push ebx
main.ASM(2247): warning A4001: Extra characters on line
    3361 1C5B  50			 push eax
main.ASM(2248): warning A4001: Extra characters on line
    3362 1C5C  E8 00000000 E		 call _uxgreaterp
main.ASM(2249): warning A4001: Extra characters on line
    3363 1C61  83 C4 10			 add esp,16
main.ASM(2250): warning A4001: Extra characters on line
    3364 1C64  C3			 ret 
main.ASM(2251): warning A4001: Extra characters on line
    3365				EXTRN _uxlessp:NEAR
    3366 1C65  00000004			 DD 4
    3367				; (*entry uxlessp expr 4)
    3368				 PUBLIC l0188
    3369 1C69				l0188:
    3370 1C69  52			 push edx
main.ASM(2257): warning A4001: Extra characters on line
    3371 1C6A  51			 push ecx
main.ASM(2258): warning A4001: Extra characters on line
    3372 1C6B  53			 push ebx
main.ASM(2259): warning A4001: Extra characters on line
    3373 1C6C  50			 push eax
main.ASM(2260): warning A4001: Extra characters on line
    3374 1C6D  E8 00000000 E		 call _uxlessp
main.ASM(2261): warning A4001: Extra characters on line
    3375 1C72  83 C4 10			 add esp,16
main.ASM(2262): warning A4001: Extra characters on line
    3376 1C75  C3			 ret 
main.ASM(2263): warning A4001: Extra characters on line
    3377				EXTRN _uxwritefloat:NEAR
    3378 1C76  00000003			 DD 3
    3379				; (*entry uxwritefloat expr 3)
    3380				 PUBLIC l0189
    3381 1C7A				l0189:
    3382 1C7A  51			 push ecx
main.ASM(2269): warning A4001: Extra characters on line
    3383 1C7B  53			 push ebx
main.ASM(2270): warning A4001: Extra characters on line
    3384 1C7C  50			 push eax
main.ASM(2271): warning A4001: Extra characters on line
    3385 1C7D  E8 00000000 E		 call _uxwritefloat
main.ASM(2272): warning A4001: Extra characters on line
    3386 1C82  83 C4 0C			 add esp,12
main.ASM(2273): warning A4001: Extra characters on line
    3387 1C85  C3			 ret 
main.ASM(2274): warning A4001: Extra characters on line
    3388				EXTRN _uxdoubletofloat:NEAR
    3389 1C86  00000002			 DD 2
    3390				; (*entry uxdoubletofloat expr 2)
    3391				 PUBLIC l0190
    3392 1C8A				l0190:
    3393 1C8A  53			 push ebx
main.ASM(2280): warning A4001: Extra characters on line
    3394 1C8B  50			 push eax
main.ASM(2281): warning A4001: Extra characters on line
    3395 1C8C  E8 00000000 E		 call _uxdoubletofloat
main.ASM(2282): warning A4001: Extra characters on line
Microsoft (R) Macro Assembler Version 5.10                  11/16/97 16:56:0
                                                             Page     1-65


    3396 1C91  83 C4 08			 add esp,8
main.ASM(2283): warning A4001: Extra characters on line
    3397 1C94  C3			 ret 
main.ASM(2284): warning A4001: Extra characters on line
    3398				EXTRN _uxfloattodouble:NEAR
    3399 1C95  00000002			 DD 2
    3400				; (*entry uxfloattodouble expr 2)
    3401				 PUBLIC l0191
    3402 1C99				l0191:
    3403 1C99  53			 push ebx
main.ASM(2290): warning A4001: Extra characters on line
    3404 1C9A  50			 push eax
main.ASM(2291): warning A4001: Extra characters on line
    3405 1C9B  E8 00000000 E		 call _uxfloattodouble
main.ASM(2292): warning A4001: Extra characters on line
    3406 1CA0  83 C4 08			 add esp,8
main.ASM(2293): warning A4001: Extra characters on line
    3407 1CA3  C3			 ret 
main.ASM(2294): warning A4001: Extra characters on line
    3408				EXTRN _uxsin:NEAR
    3409 1CA4  00000002			 DD 2
    3410				; (*entry uxsin expr 2)
    3411				 PUBLIC l0192
    3412 1CA8				l0192:
    3413 1CA8  53			 push ebx
main.ASM(2300): warning A4001: Extra characters on line
    3414 1CA9  50			 push eax
main.ASM(2301): warning A4001: Extra characters on line
    3415 1CAA  E8 00000000 E		 call _uxsin
main.ASM(2302): warning A4001: Extra characters on line
    3416 1CAF  83 C4 08			 add esp,8
main.ASM(2303): warning A4001: Extra characters on line
    3417 1CB2  C3			 ret 
main.ASM(2304): warning A4001: Extra characters on line
    3418				EXTRN _uxcos:NEAR
    3419 1CB3  00000002			 DD 2
    3420				; (*entry uxcos expr 2)
    3421				 PUBLIC l0193
    3422 1CB7				l0193:
    3423 1CB7  53			 push ebx
main.ASM(2310): warning A4001: Extra characters on line
    3424 1CB8  50			 push eax
main.ASM(2311): warning A4001: Extra characters on line
    3425 1CB9  E8 00000000 E		 call _uxcos
main.ASM(2312): warning A4001: Extra characters on line
    3426 1CBE  83 C4 08			 add esp,8
main.ASM(2313): warning A4001: Extra characters on line
    3427 1CC1  C3			 ret 
main.ASM(2314): warning A4001: Extra characters on line
    3428				EXTRN _uxtan:NEAR
    3429 1CC2  00000002			 DD 2
    3430				; (*entry uxtan expr 2)
    3431				 PUBLIC l0194
    3432 1CC6				l0194:
    3433 1CC6  53			 push ebx
main.ASM(2320): warning A4001: Extra characters on line
    3434 1CC7  50			 push eax
main.ASM(2321): warning A4001: Extra characters on line
    3435 1CC8  E8 00000000 E		 call _uxtan
main.ASM(2322): warning A4001: Extra characters on line
    3436 1CCD  83 C4 08			 add esp,8
main.ASM(2323): warning A4001: Extra characters on line
    3437 1CD0  C3			 ret 
main.ASM(2324): warning A4001: Extra characters on line
    3438				EXTRN _uxasin:NEAR
    3439 1CD1  00000002			 DD 2
    3440				; (*entry uxasin expr 2)
    3441				 PUBLIC l0195
    3442 1CD5				l0195:
    3443 1CD5  53			 push ebx
main.ASM(2330): warning A4001: Extra characters on line
    3444 1CD6  50			 push eax
main.ASM(2331): warning A4001: Extra characters on line
    3445 1CD7  E8 00000000 E		 call _uxasin
main.ASM(2332): warning A4001: Extra characters on line
    3446 1CDC  83 C4 08			 add esp,8
main.ASM(2333): warning A4001: Extra characters on line
    3447 1CDF  C3			 ret 
main.ASM(2334): warning A4001: Extra characters on line
    3448				EXTRN _uxacos:NEAR
    3449 1CE0  00000002			 DD 2
Microsoft (R) Macro Assembler Version 5.10                  11/16/97 16:56:0
                                                             Page     1-66


    3450				; (*entry uxacos expr 2)
    3451				 PUBLIC l0196
    3452 1CE4				l0196:
    3453 1CE4  53			 push ebx
main.ASM(2340): warning A4001: Extra characters on line
    3454 1CE5  50			 push eax
main.ASM(2341): warning A4001: Extra characters on line
    3455 1CE6  E8 00000000 E		 call _uxacos
main.ASM(2342): warning A4001: Extra characters on line
    3456 1CEB  83 C4 08			 add esp,8
main.ASM(2343): warning A4001: Extra characters on line
    3457 1CEE  C3			 ret 
main.ASM(2344): warning A4001: Extra characters on line
    3458				EXTRN _uxatan:NEAR
    3459 1CEF  00000002			 DD 2
    3460				; (*entry uxatan expr 2)
    3461				 PUBLIC l0197
    3462 1CF3				l0197:
    3463 1CF3  53			 push ebx
main.ASM(2350): warning A4001: Extra characters on line
    3464 1CF4  50			 push eax
main.ASM(2351): warning A4001: Extra characters on line
    3465 1CF5  E8 00000000 E		 call _uxatan
main.ASM(2352): warning A4001: Extra characters on line
    3466 1CFA  83 C4 08			 add esp,8
main.ASM(2353): warning A4001: Extra characters on line
    3467 1CFD  C3			 ret 
main.ASM(2354): warning A4001: Extra characters on line
    3468				EXTRN _uxsqrt:NEAR
    3469 1CFE  00000002			 DD 2
    3470				; (*entry uxsqrt expr 2)
    3471				 PUBLIC l0198
    3472 1D02				l0198:
    3473 1D02  53			 push ebx
main.ASM(2360): warning A4001: Extra characters on line
    3474 1D03  50			 push eax
main.ASM(2361): warning A4001: Extra characters on line
    3475 1D04  E8 00000000 E		 call _uxsqrt
main.ASM(2362): warning A4001: Extra characters on line
    3476 1D09  83 C4 08			 add esp,8
main.ASM(2363): warning A4001: Extra characters on line
    3477 1D0C  C3			 ret 
main.ASM(2364): warning A4001: Extra characters on line
    3478				EXTRN _uxexp:NEAR
    3479 1D0D  00000002			 DD 2
    3480				; (*entry uxexp expr 2)
    3481				 PUBLIC l0199
    3482 1D11				l0199:
    3483 1D11  53			 push ebx
main.ASM(2370): warning A4001: Extra characters on line
    3484 1D12  50			 push eax
main.ASM(2371): warning A4001: Extra characters on line
    3485 1D13  E8 00000000 E		 call _uxexp
main.ASM(2372): warning A4001: Extra characters on line
    3486 1D18  83 C4 08			 add esp,8
main.ASM(2373): warning A4001: Extra characters on line
    3487 1D1B  C3			 ret 
main.ASM(2374): warning A4001: Extra characters on line
    3488				EXTRN _uxlog:NEAR
    3489 1D1C  00000002			 DD 2
    3490				; (*entry uxlog expr 2)
    3491				 PUBLIC l0200
    3492 1D20				l0200:
    3493 1D20  53			 push ebx
main.ASM(2380): warning A4001: Extra characters on line
    3494 1D21  50			 push eax
main.ASM(2381): warning A4001: Extra characters on line
    3495 1D22  E8 00000000 E		 call _uxlog
main.ASM(2382): warning A4001: Extra characters on line
    3496 1D27  83 C4 08			 add esp,8
main.ASM(2383): warning A4001: Extra characters on line
    3497 1D2A  C3			 ret 
main.ASM(2384): warning A4001: Extra characters on line
    3498				EXTRN _uxatan2:NEAR
    3499 1D2B  00000003			 DD 3
    3500				; (*entry uxatan2 expr 3)
    3501				 PUBLIC l0201
    3502 1D2F				l0201:
    3503 1D2F  51			 push ecx
main.ASM(2390): warning A4001: Extra characters on line
Microsoft (R) Macro Assembler Version 5.10                  11/16/97 16:56:0
                                                             Page     1-67


    3504 1D30  53			 push ebx
main.ASM(2391): warning A4001: Extra characters on line
    3505 1D31  50			 push eax
main.ASM(2392): warning A4001: Extra characters on line
    3506 1D32  E8 00000000 E		 call _uxatan2
main.ASM(2393): warning A4001: Extra characters on line
    3507 1D37  83 C4 0C			 add esp,12
main.ASM(2394): warning A4001: Extra characters on line
    3508 1D3A  C3			 ret 
main.ASM(2395): warning A4001: Extra characters on line
    3509				EXTRN _external_pwd:NEAR
    3510 1D3B  00000000			 DD 0
    3511				; (*entry external_pwd expr 0)
    3512				 PUBLIC l0202
    3513 1D3F				l0202:
    3514 1D3F  E8 00000000 E		 call _external_pwd
main.ASM(2401): warning A4001: Extra characters on line
    3515 1D44  83 C4 00			 add esp,0
main.ASM(2402): warning A4001: Extra characters on line
    3516 1D47  C3			 ret 
main.ASM(2403): warning A4001: Extra characters on line
    3517				EXTRN _sun3_sigset:NEAR
    3518 1D48  00000002			 DD 2
    3519				; (*entry sun3_sigset expr 2)
    3520				 PUBLIC l0203
    3521 1D4C				l0203:
    3522 1D4C  53			 push ebx
main.ASM(2409): warning A4001: Extra characters on line
    3523 1D4D  50			 push eax
main.ASM(2410): warning A4001: Extra characters on line
    3524 1D4E  E8 00000000 E		 call _sun3_sigset
main.ASM(2411): warning A4001: Extra characters on line
    3525 1D53  83 C4 08			 add esp,8
main.ASM(2412): warning A4001: Extra characters on line
    3526 1D56  C3			 ret 
main.ASM(2413): warning A4001: Extra characters on line
    3527				EXTRN _sigrelse:NEAR
    3528 1D57  00000002			 DD 2
    3529				; (*entry sigrelse expr 2)
    3530				 PUBLIC l0204
    3531 1D5B				l0204:
    3532 1D5B  53			 push ebx
main.ASM(2419): warning A4001: Extra characters on line
    3533 1D5C  50			 push eax
main.ASM(2420): warning A4001: Extra characters on line
    3534 1D5D  E8 00000000 E		 call _sigrelse
main.ASM(2421): warning A4001: Extra characters on line
    3535 1D62  83 C4 08			 add esp,8
main.ASM(2422): warning A4001: Extra characters on line
    3536 1D65  C3			 ret 
main.ASM(2423): warning A4001: Extra characters on line
    3537				EXTRN _unexec:NEAR
    3538 1D66  00000004			 DD 4
    3539				; (*entry unexec expr 4)
    3540				 PUBLIC l0205
    3541 1D6A				l0205:
    3542 1D6A  52			 push edx
main.ASM(2429): warning A4001: Extra characters on line
    3543 1D6B  51			 push ecx
main.ASM(2430): warning A4001: Extra characters on line
    3544 1D6C  53			 push ebx
main.ASM(2431): warning A4001: Extra characters on line
    3545 1D6D  50			 push eax
main.ASM(2432): warning A4001: Extra characters on line
    3546 1D6E  E8 00000000 E		 call _unexec
main.ASM(2433): warning A4001: Extra characters on line
    3547 1D73  83 C4 10			 add esp,16
main.ASM(2434): warning A4001: Extra characters on line
    3548 1D76  C3			 ret 
main.ASM(2435): warning A4001: Extra characters on line
    3549				EXTRN _unixputc:NEAR
    3550 1D77  00000001			 DD 1
    3551				; (*entry unixputc expr 1)
    3552				 PUBLIC l0206
    3553 1D7B				l0206:
    3554 1D7B  50			 push eax
main.ASM(2441): warning A4001: Extra characters on line
    3555 1D7C  E8 00000000 E		 call _unixputc
main.ASM(2442): warning A4001: Extra characters on line
    3556 1D81  83 C4 04			 add esp,4
main.ASM(2443): warning A4001: Extra characters on line
    3557 1D84  C3			 ret 
main.ASM(2444): warning A4001: Extra characters on line
Microsoft (R) Macro Assembler Version 5.10                  11/16/97 16:56:0
                                                             Page     1-68


    3558				EXTRN _unixputs:NEAR
    3559 1D85  00000001			 DD 1
    3560				; (*entry unixputs expr 1)
    3561				 PUBLIC l0207
    3562 1D89				l0207:
    3563 1D89  50			 push eax
main.ASM(2450): warning A4001: Extra characters on line
    3564 1D8A  E8 00000000 E		 call _unixputs
main.ASM(2451): warning A4001: Extra characters on line
    3565 1D8F  83 C4 04			 add esp,4
main.ASM(2452): warning A4001: Extra characters on line
    3566 1D92  C3			 ret 
main.ASM(2453): warning A4001: Extra characters on line
    3567				EXTRN _unixputn:NEAR
    3568 1D93  00000001			 DD 1
    3569				; (*entry unixputn expr 1)
    3570				 PUBLIC l0208
    3571 1D97				l0208:
    3572 1D97  50			 push eax
main.ASM(2459): warning A4001: Extra characters on line
    3573 1D98  E8 00000000 E		 call _unixputn
main.ASM(2460): warning A4001: Extra characters on line
    3574 1D9D  83 C4 04			 add esp,4
main.ASM(2461): warning A4001: Extra characters on line
    3575 1DA0  C3			 ret 
main.ASM(2462): warning A4001: Extra characters on line
    3576				EXTRN _unixcleario:NEAR
    3577 1DA1  00000000			 DD 0
    3578				; (*entry unixcleario expr 0)
    3579				 PUBLIC l0209
    3580 1DA5				l0209:
    3581 1DA5  E8 00000000 E		 call _unixcleario
main.ASM(2468): warning A4001: Extra characters on line
    3582 1DAA  83 C4 00			 add esp,0
main.ASM(2469): warning A4001: Extra characters on line
    3583 1DAD  C3			 ret 
main.ASM(2470): warning A4001: Extra characters on line
    3584				EXTRN _expand_file_name:NEAR
    3585 1DAE  00000001			 DD 1
    3586				; (*entry expand_file_name expr 1)
    3587				 PUBLIC l0210
    3588 1DB2				l0210:
    3589 1DB2  50			 push eax
main.ASM(2476): warning A4001: Extra characters on line
    3590 1DB3  E8 00000000 E		 call _expand_file_name
main.ASM(2477): warning A4001: Extra characters on line
    3591 1DB8  83 C4 04			 add esp,4
main.ASM(2478): warning A4001: Extra characters on line
    3592 1DBB  C3			 ret 
main.ASM(2479): warning A4001: Extra characters on line
    3593				EXTRN _unixopen:NEAR
    3594 1DBC  00000002			 DD 2
    3595				; (*entry unixopen expr 2)
    3596				 PUBLIC l0211
    3597 1DC0				l0211:
    3598 1DC0  53			 push ebx
main.ASM(2485): warning A4001: Extra characters on line
    3599 1DC1  50			 push eax
main.ASM(2486): warning A4001: Extra characters on line
    3600 1DC2  E8 00000000 E		 call _unixopen
main.ASM(2487): warning A4001: Extra characters on line
    3601 1DC7  83 C4 08			 add esp,8
main.ASM(2488): warning A4001: Extra characters on line
    3602 1DCA  C3			 ret 
main.ASM(2489): warning A4001: Extra characters on line
    3603				EXTRN _unixcd:NEAR
    3604 1DCB  00000001			 DD 1
    3605				; (*entry unixcd expr 1)
    3606				 PUBLIC l0212
    3607 1DCF				l0212:
    3608 1DCF  50			 push eax
main.ASM(2495): warning A4001: Extra characters on line
    3609 1DD0  E8 00000000 E		 call _unixcd
main.ASM(2496): warning A4001: Extra characters on line
    3610 1DD5  83 C4 04			 add esp,4
main.ASM(2497): warning A4001: Extra characters on line
    3611 1DD8  C3			 ret 
main.ASM(2498): warning A4001: Extra characters on line
Microsoft (R) Macro Assembler Version 5.10                  11/16/97 16:56:0
                                                             Page     1-69


    3612				EXTRN _unixfread:NEAR
    3613 1DD9  00000004			 DD 4
    3614				; (*entry unixfread expr 4)
    3615				 PUBLIC l0213
    3616 1DDD				l0213:
    3617 1DDD  83 3D 000004CC R 00	 cmp symval+1220,0
main.ASM(2504): warning A4001: Extra characters on line
    3618 1DE4  0F 8D 00001DF5 R		 jge l0214
main.ASM(2505): warning A4001: Extra characters on line
    3619 1DEA  BF 00000198		 mov edi,408
main.ASM(2506): warning A4001: Extra characters on line
    3620 1DEF  FF 25 00000E2C R		 jmp [symfnc+1632]
main.ASM(2507): warning A4001: Extra characters on line
    3621 1DF5				l0214:
    3622 1DF5  52			 push edx
main.ASM(2509): warning A4001: Extra characters on line
    3623 1DF6  51			 push ecx
main.ASM(2510): warning A4001: Extra characters on line
    3624 1DF7  53			 push ebx
main.ASM(2511): warning A4001: Extra characters on line
    3625 1DF8  50			 push eax
main.ASM(2512): warning A4001: Extra characters on line
    3626 1DF9  E8 00000000 E		 call _unixfread
main.ASM(2513): warning A4001: Extra characters on line
    3627 1DFE  83 C4 10			 add esp,16
main.ASM(2514): warning A4001: Extra characters on line
    3628 1E01  C3			 ret 
main.ASM(2515): warning A4001: Extra characters on line
    3629				EXTRN _unixfputc:NEAR
    3630 1E02  00000002			 DD 2
    3631				; (*entry unixfputc expr 2)
    3632				 PUBLIC l0215
    3633 1E06				l0215:
    3634 1E06  83 3D 000004CC R 00	 cmp symval+1220,0
main.ASM(2521): warning A4001: Extra characters on line
    3635 1E0D  0F 8D 00001E1E R		 jge l0216
main.ASM(2522): warning A4001: Extra characters on line
    3636 1E13  BF 00000198		 mov edi,408
main.ASM(2523): warning A4001: Extra characters on line
    3637 1E18  FF 25 00000E2C R		 jmp [symfnc+1632]
main.ASM(2524): warning A4001: Extra characters on line
    3638 1E1E				l0216:
    3639 1E1E  53			 push ebx
main.ASM(2526): warning A4001: Extra characters on line
    3640 1E1F  50			 push eax
main.ASM(2527): warning A4001: Extra characters on line
    3641 1E20  E8 00000000 E		 call _unixfputc
main.ASM(2528): warning A4001: Extra characters on line
    3642 1E25  83 C4 08			 add esp,8
main.ASM(2529): warning A4001: Extra characters on line
    3643 1E28  C3			 ret 
main.ASM(2530): warning A4001: Extra characters on line
    3644				EXTRN _unixfgetc:NEAR
    3645 1E29  00000001			 DD 1
    3646				; (*entry unixfgetc expr 1)
    3647				 PUBLIC l0217
    3648 1E2D				l0217:
    3649 1E2D  83 3D 000004CC R 00	 cmp symval+1220,0
main.ASM(2536): warning A4001: Extra characters on line
    3650 1E34  0F 8D 00001E45 R		 jge l0218
main.ASM(2537): warning A4001: Extra characters on line
    3651 1E3A  BF 00000198		 mov edi,408
main.ASM(2538): warning A4001: Extra characters on line
    3652 1E3F  FF 25 00000E2C R		 jmp [symfnc+1632]
main.ASM(2539): warning A4001: Extra characters on line
    3653 1E45				l0218:
    3654 1E45  50			 push eax
main.ASM(2541): warning A4001: Extra characters on line
    3655 1E46  E8 00000000 E		 call _unixfgetc
main.ASM(2542): warning A4001: Extra characters on line
    3656 1E4B  83 C4 04			 add esp,4
main.ASM(2543): warning A4001: Extra characters on line
    3657 1E4E  C3			 ret 
main.ASM(2544): warning A4001: Extra characters on line
    3658				EXTRN _unixfgets:NEAR
    3659 1E4F  00000003			 DD 3
    3660				; (*entry unixfgets expr 3)
    3661				 PUBLIC l0219
    3662 1E53				l0219:
    3663 1E53  83 3D 000004CC R 00	 cmp symval+1220,0
main.ASM(2550): warning A4001: Extra characters on line
    3664 1E5A  0F 8D 00001E6B R		 jge l0220
main.ASM(2551): warning A4001: Extra characters on line
    3665 1E60  BF 00000198		 mov edi,408
main.ASM(2552): warning A4001: Extra characters on line
Microsoft (R) Macro Assembler Version 5.10                  11/16/97 16:56:0
                                                             Page     1-70


    3666 1E65  FF 25 00000E2C R		 jmp [symfnc+1632]
main.ASM(2553): warning A4001: Extra characters on line
    3667 1E6B				l0220:
    3668 1E6B  51			 push ecx
main.ASM(2555): warning A4001: Extra characters on line
    3669 1E6C  53			 push ebx
main.ASM(2556): warning A4001: Extra characters on line
    3670 1E6D  50			 push eax
main.ASM(2557): warning A4001: Extra characters on line
    3671 1E6E  E8 00000000 E		 call _unixfgets
main.ASM(2558): warning A4001: Extra characters on line
    3672 1E73  83 C4 0C			 add esp,12
main.ASM(2559): warning A4001: Extra characters on line
    3673 1E76  C3			 ret 
main.ASM(2560): warning A4001: Extra characters on line
    3674				EXTRN _unixfwrite:NEAR
    3675 1E77  00000004			 DD 4
    3676				; (*entry unixfwrite expr 4)
    3677				 PUBLIC l0221
    3678 1E7B				l0221:
    3679 1E7B  83 3D 000004CC R 00	 cmp symval+1220,0
main.ASM(2566): warning A4001: Extra characters on line
    3680 1E82  0F 8D 00001E93 R		 jge l0222
main.ASM(2567): warning A4001: Extra characters on line
    3681 1E88  BF 00000198		 mov edi,408
main.ASM(2568): warning A4001: Extra characters on line
    3682 1E8D  FF 25 00000E2C R		 jmp [symfnc+1632]
main.ASM(2569): warning A4001: Extra characters on line
    3683 1E93				l0222:
    3684 1E93  52			 push edx
main.ASM(2571): warning A4001: Extra characters on line
    3685 1E94  51			 push ecx
main.ASM(2572): warning A4001: Extra characters on line
    3686 1E95  53			 push ebx
main.ASM(2573): warning A4001: Extra characters on line
    3687 1E96  50			 push eax
main.ASM(2574): warning A4001: Extra characters on line
    3688 1E97  E8 00000000 E		 call _unixfwrite
main.ASM(2575): warning A4001: Extra characters on line
    3689 1E9C  83 C4 10			 add esp,16
main.ASM(2576): warning A4001: Extra characters on line
    3690 1E9F  C3			 ret 
main.ASM(2577): warning A4001: Extra characters on line
    3691				EXTRN _unixfflush:NEAR
    3692 1EA0  00000001			 DD 1
    3693				; (*entry unixfflush expr 1)
    3694				 PUBLIC l0223
    3695 1EA4				l0223:
    3696 1EA4  83 3D 000004CC R 00	 cmp symval+1220,0
main.ASM(2583): warning A4001: Extra characters on line
    3697 1EAB  0F 8D 00001EBC R		 jge l0224
main.ASM(2584): warning A4001: Extra characters on line
    3698 1EB1  BF 00000198		 mov edi,408
main.ASM(2585): warning A4001: Extra characters on line
    3699 1EB6  FF 25 00000E2C R		 jmp [symfnc+1632]
main.ASM(2586): warning A4001: Extra characters on line
    3700 1EBC				l0224:
    3701 1EBC  50			 push eax
main.ASM(2588): warning A4001: Extra characters on line
    3702 1EBD  E8 00000000 E		 call _unixfflush
main.ASM(2589): warning A4001: Extra characters on line
    3703 1EC2  83 C4 04			 add esp,4
main.ASM(2590): warning A4001: Extra characters on line
    3704 1EC5  C3			 ret 
main.ASM(2591): warning A4001: Extra characters on line
    3705				EXTRN _ctime:NEAR
    3706 1EC6  00000001			 DD 1
    3707				; (*entry ctime expr 1)
    3708				 PUBLIC l0225
    3709 1ECA				l0225:
    3710 1ECA  50			 push eax
main.ASM(2597): warning A4001: Extra characters on line
    3711 1ECB  E8 00000000 E		 call _ctime
main.ASM(2598): warning A4001: Extra characters on line
    3712 1ED0  83 C4 04			 add esp,4
main.ASM(2599): warning A4001: Extra characters on line
    3713 1ED3  C3			 ret 
main.ASM(2600): warning A4001: Extra characters on line
    3714				EXTRN _external_system:NEAR
    3715 1ED4  00000001			 DD 1
    3716				; (*entry external_system expr 1)
    3717				 PUBLIC l0226
    3718 1ED8				l0226:
    3719 1ED8  50			 push eax
main.ASM(2606): warning A4001: Extra characters on line
Microsoft (R) Macro Assembler Version 5.10                  11/16/97 16:56:0
                                                             Page     1-71


    3720 1ED9  E8 00000000 E		 call _external_system
main.ASM(2607): warning A4001: Extra characters on line
    3721 1EDE  83 C4 04			 add esp,4
main.ASM(2608): warning A4001: Extra characters on line
    3722 1EE1  C3			 ret 
main.ASM(2609): warning A4001: Extra characters on line
    3723				EXTRN _external_exit:NEAR
    3724 1EE2  00000001			 DD 1
    3725				; (*entry external_exit expr 1)
    3726				 PUBLIC l0227
    3727 1EE6				l0227:
    3728 1EE6  50			 push eax
main.ASM(2615): warning A4001: Extra characters on line
    3729 1EE7  E8 00000000 E		 call _external_exit
main.ASM(2616): warning A4001: Extra characters on line
    3730 1EEC  83 C4 04			 add esp,4
main.ASM(2617): warning A4001: Extra characters on line
    3731 1EEF  C3			 ret 
main.ASM(2618): warning A4001: Extra characters on line
    3732				EXTRN _fopen:NEAR
    3733 1EF0  00000002			 DD 2
    3734				; (*entry fopen expr 2)
    3735				 PUBLIC l0228
    3736 1EF4				l0228:
    3737 1EF4  53			 push ebx
main.ASM(2624): warning A4001: Extra characters on line
    3738 1EF5  50			 push eax
main.ASM(2625): warning A4001: Extra characters on line
    3739 1EF6  E8 00000000 E		 call _fopen
main.ASM(2626): warning A4001: Extra characters on line
    3740 1EFB  83 C4 08			 add esp,8
main.ASM(2627): warning A4001: Extra characters on line
    3741 1EFE  C3			 ret 
main.ASM(2628): warning A4001: Extra characters on line
    3742				EXTRN _fclose:NEAR
    3743 1EFF  00000001			 DD 1
    3744				; (*entry fclose expr 1)
    3745				 PUBLIC l0229
    3746 1F03				l0229:
    3747 1F03  50			 push eax
main.ASM(2634): warning A4001: Extra characters on line
    3748 1F04  E8 00000000 E		 call _fclose
main.ASM(2635): warning A4001: Extra characters on line
    3749 1F09  83 C4 04			 add esp,4
main.ASM(2636): warning A4001: Extra characters on line
    3750 1F0C  C3			 ret 
main.ASM(2637): warning A4001: Extra characters on line
    3751				EXTRN _fseek:NEAR
    3752 1F0D  00000003			 DD 3
    3753				; (*entry fseek expr 3)
    3754				 PUBLIC l0230
    3755 1F11				l0230:
    3756 1F11  51			 push ecx
main.ASM(2643): warning A4001: Extra characters on line
    3757 1F12  53			 push ebx
main.ASM(2644): warning A4001: Extra characters on line
    3758 1F13  50			 push eax
main.ASM(2645): warning A4001: Extra characters on line
    3759 1F14  E8 00000000 E		 call _fseek
main.ASM(2646): warning A4001: Extra characters on line
    3760 1F19  83 C4 0C			 add esp,12
main.ASM(2647): warning A4001: Extra characters on line
    3761 1F1C  C3			 ret 
main.ASM(2648): warning A4001: Extra characters on line
    3762				EXTRN _clearerr:NEAR
    3763 1F1D  00000001			 DD 1
    3764				; (*entry clearerr expr 1)
    3765				 PUBLIC l0231
    3766 1F21				l0231:
    3767 1F21  50			 push eax
main.ASM(2654): warning A4001: Extra characters on line
    3768 1F22  E8 00000000 E		 call _clearerr
main.ASM(2655): warning A4001: Extra characters on line
    3769 1F27  83 C4 04			 add esp,4
main.ASM(2656): warning A4001: Extra characters on line
    3770 1F2A  C3			 ret 
main.ASM(2657): warning A4001: Extra characters on line
    3771				EXTRN __getw:NEAR
    3772 1F2B  00000001			 DD 1
    3773				; (*entry getw expr 1)
Microsoft (R) Macro Assembler Version 5.10                  11/16/97 16:56:0
                                                             Page     1-72


    3774				 PUBLIC l0232
    3775 1F2F				l0232:
    3776 1F2F  50			 push eax
main.ASM(2663): warning A4001: Extra characters on line
    3777 1F30  E8 00000000 E		 call __getw
main.ASM(2664): warning A4001: Extra characters on line
    3778 1F35  83 C4 04			 add esp,4
main.ASM(2665): warning A4001: Extra characters on line
    3779 1F38  C3			 ret 
main.ASM(2666): warning A4001: Extra characters on line
    3780				EXTRN __putw:NEAR
    3781 1F39  00000002			 DD 2
    3782				; (*entry putw expr 2)
    3783				 PUBLIC l0233
    3784 1F3D				l0233:
    3785 1F3D  53			 push ebx
main.ASM(2672): warning A4001: Extra characters on line
    3786 1F3E  50			 push eax
main.ASM(2673): warning A4001: Extra characters on line
    3787 1F3F  E8 00000000 E		 call __putw
main.ASM(2674): warning A4001: Extra characters on line
    3788 1F44  83 C4 08			 add esp,8
main.ASM(2675): warning A4001: Extra characters on line
    3789 1F47  C3			 ret 
main.ASM(2676): warning A4001: Extra characters on line
    3790				EXTRN _signal:NEAR
    3791 1F48  00000002			 DD 2
    3792				; (*entry signal expr 2)
    3793				 PUBLIC l0234
    3794 1F4C				l0234:
    3795 1F4C  53			 push ebx
main.ASM(2682): warning A4001: Extra characters on line
    3796 1F4D  50			 push eax
main.ASM(2683): warning A4001: Extra characters on line
    3797 1F4E  E8 00000000 E		 call _signal
main.ASM(2684): warning A4001: Extra characters on line
    3798 1F53  83 C4 08			 add esp,8
main.ASM(2685): warning A4001: Extra characters on line
    3799 1F56  C3			 ret 
main.ASM(2686): warning A4001: Extra characters on line
    3800				EXTRN _sleep:NEAR
    3801 1F57  00000001			 DD 1
    3802				; (*entry sleep expr 1)
    3803				 PUBLIC l0235
    3804 1F5B				l0235:
    3805 1F5B  50			 push eax
main.ASM(2692): warning A4001: Extra characters on line
    3806 1F5C  E8 00000000 E		 call _sleep
main.ASM(2693): warning A4001: Extra characters on line
    3807 1F61  83 C4 04			 add esp,4
main.ASM(2694): warning A4001: Extra characters on line
    3808 1F64  C3			 ret 
main.ASM(2695): warning A4001: Extra characters on line
    3809				EXTRN _ieee_handler:NEAR
    3810 1F65  00000003			 DD 3
    3811				; (*entry ieee_handler expr 3)
    3812				 PUBLIC l0236
    3813 1F69				l0236:
    3814 1F69  51			 push ecx
main.ASM(2701): warning A4001: Extra characters on line
    3815 1F6A  53			 push ebx
main.ASM(2702): warning A4001: Extra characters on line
    3816 1F6B  50			 push eax
main.ASM(2703): warning A4001: Extra characters on line
    3817 1F6C  E8 00000000 E		 call _ieee_handler
main.ASM(2704): warning A4001: Extra characters on line
    3818 1F71  83 C4 0C			 add esp,12
main.ASM(2705): warning A4001: Extra characters on line
    3819 1F74  C3			 ret 
main.ASM(2706): warning A4001: Extra characters on line
    3820				EXTRN _ieee_flags:NEAR
    3821 1F75  00000004			 DD 4
    3822				; (*entry ieee_flags expr 4)
    3823				 PUBLIC l0237
    3824 1F79				l0237:
    3825 1F79  52			 push edx
main.ASM(2712): warning A4001: Extra characters on line
    3826 1F7A  51			 push ecx
main.ASM(2713): warning A4001: Extra characters on line
    3827 1F7B  53			 push ebx
main.ASM(2714): warning A4001: Extra characters on line
Microsoft (R) Macro Assembler Version 5.10                  11/16/97 16:56:0
                                                             Page     1-73


    3828 1F7C  50			 push eax
main.ASM(2715): warning A4001: Extra characters on line
    3829 1F7D  E8 00000000 E		 call _ieee_flags
main.ASM(2716): warning A4001: Extra characters on line
    3830 1F82  83 C4 10			 add esp,16
main.ASM(2717): warning A4001: Extra characters on line
    3831 1F85  C3			 ret 
main.ASM(2718): warning A4001: Extra characters on line
    3832				EXTRN _setlinebuf:NEAR
    3833 1F86  00000001			 DD 1
    3834				; (*entry setlinebuf expr 1)
    3835				 PUBLIC l0238
    3836 1F8A				l0238:
    3837 1F8A  50			 push eax
main.ASM(2724): warning A4001: Extra characters on line
    3838 1F8B  E8 00000000 E		 call _setlinebuf
main.ASM(2725): warning A4001: Extra characters on line
    3839 1F90  83 C4 04			 add esp,4
main.ASM(2726): warning A4001: Extra characters on line
    3840 1F93  C3			 ret 
main.ASM(2727): warning A4001: Extra characters on line
    3841				EXTRN _profil:NEAR
    3842 1F94  00000004			 DD 4
    3843				; (*entry profil expr 4)
    3844				 PUBLIC l0239
    3845 1F98				l0239:
    3846 1F98  52			 push edx
main.ASM(2733): warning A4001: Extra characters on line
    3847 1F99  51			 push ecx
main.ASM(2734): warning A4001: Extra characters on line
    3848 1F9A  53			 push ebx
main.ASM(2735): warning A4001: Extra characters on line
    3849 1F9B  50			 push eax
main.ASM(2736): warning A4001: Extra characters on line
    3850 1F9C  E8 00000000 E		 call _profil
main.ASM(2737): warning A4001: Extra characters on line
    3851 1FA1  83 C4 10			 add esp,16
main.ASM(2738): warning A4001: Extra characters on line
    3852 1FA4  C3			 ret 
main.ASM(2739): warning A4001: Extra characters on line
    3853				EXTRN _datetag:NEAR
    3854 1FA5  00000000			 DD 0
    3855				; (*entry datetag expr 0)
    3856				 PUBLIC l0240
    3857 1FA9				l0240:
    3858 1FA9  E8 00000000 E		 call _datetag
main.ASM(2745): warning A4001: Extra characters on line
    3859 1FAE  83 C4 00			 add esp,0
main.ASM(2746): warning A4001: Extra characters on line
    3860 1FB1  C3			 ret 
main.ASM(2747): warning A4001: Extra characters on line
    3861				EXTRN _psll_call:NEAR
    3862 1FB2  00000004			 DD 4
    3863				; (*entry psll_call expr 4)
    3864				 PUBLIC l0241
    3865 1FB6				l0241:
    3866 1FB6  52			 push edx
main.ASM(2753): warning A4001: Extra characters on line
    3867 1FB7  51			 push ecx
main.ASM(2754): warning A4001: Extra characters on line
    3868 1FB8  53			 push ebx
main.ASM(2755): warning A4001: Extra characters on line
    3869 1FB9  50			 push eax
main.ASM(2756): warning A4001: Extra characters on line
    3870 1FBA  E8 00000000 E		 call _psll_call
main.ASM(2757): warning A4001: Extra characters on line
    3871 1FBF  83 C4 10			 add esp,16
main.ASM(2758): warning A4001: Extra characters on line
    3872 1FC2  C3			 ret 
main.ASM(2759): warning A4001: Extra characters on line
    3873 1FC3  00000004			 DD 4
    3874				; (*entry unix-profile expr 4)
    3875				 PUBLIC l0242
    3876 1FC7				l0242:
    3877 1FC7  BF 000001DB		 mov edi,475
main.ASM(2764): warning A4001: Extra characters on line
    3878 1FCC  FF 25 00000F38 R		 jmp [symfnc+1900]
main.ASM(2765): warning A4001: Extra characters on line
    3879 1FD2  00000004			 DD 4
    3880				; (*entry fread expr 4)
    3881				 PUBLIC fread
Microsoft (R) Macro Assembler Version 5.10                  11/16/97 16:56:0
                                                             Page     1-74


    3882 1FD6				fread:
    3883 1FD6  BF 000001CA		 mov edi,458
main.ASM(2770): warning A4001: Extra characters on line
    3884 1FDB  FF 25 00000EF4 R		 jmp [symfnc+1832]
main.ASM(2771): warning A4001: Extra characters on line
    3885 1FE1  00000002			 DD 2
    3886				; (*entry fputc expr 2)
    3887				 PUBLIC fputc
    3888 1FE5				fputc:
    3889 1FE5  BF 000001CB		 mov edi,459
main.ASM(2776): warning A4001: Extra characters on line
    3890 1FEA  FF 25 00000EF8 R		 jmp [symfnc+1836]
main.ASM(2777): warning A4001: Extra characters on line
    3891 1FF0  00000001			 DD 1
    3892				; (*entry fgetc expr 1)
    3893				 PUBLIC fgetc
    3894 1FF4				fgetc:
    3895 1FF4  BF 000001CC		 mov edi,460
main.ASM(2782): warning A4001: Extra characters on line
    3896 1FF9  FF 25 00000EFC R		 jmp [symfnc+1840]
main.ASM(2783): warning A4001: Extra characters on line
    3897 1FFF  00000003			 DD 3
    3898				; (*entry fgets expr 3)
    3899				 PUBLIC fgets
    3900 2003				fgets:
    3901 2003  BF 000001CD		 mov edi,461
main.ASM(2788): warning A4001: Extra characters on line
    3902 2008  FF 25 00000F00 R		 jmp [symfnc+1844]
main.ASM(2789): warning A4001: Extra characters on line
    3903 200E  00000004			 DD 4
    3904				; (*entry fwrite expr 4)
    3905				 PUBLIC fwrite
    3906 2012				fwrite:
    3907 2012  BF 000001CE		 mov edi,462
main.ASM(2794): warning A4001: Extra characters on line
    3908 2017  FF 25 00000F04 R		 jmp [symfnc+1848]
main.ASM(2795): warning A4001: Extra characters on line
    3909 201D  00000001			 DD 1
    3910				; (*entry fflush expr 1)
    3911				 PUBLIC fflush
    3912 2021				fflush:
    3913 2021  BF 000001CF		 mov edi,463
main.ASM(2800): warning A4001: Extra characters on line
    3914 2026  FF 25 00000F08 R		 jmp [symfnc+1852]
main.ASM(2801): warning A4001: Extra characters on line
    3915 202C  00000001			 DD 1
    3916				; (*entry plantunbound expr 1)
    3917				 PUBLIC plantunbound
    3918 2030				plantunbound:
    3919 2030  89 4424 E0		 mov  DWORD PTR -32[esp],eax
main.ASM(2806): warning A4001: Extra characters on line
    3920 2034  50			 push eax
main.ASM(2807): warning A4001: Extra characters on line
    3921 2035  3B 05 000004D4 R		 cmp eax,symval+1228
main.ASM(2808): warning A4001: Extra characters on line
    3922 203B  0F 8E 00002055 R		 jle l0243
main.ASM(2809): warning A4001: Extra characters on line
    3923 2041  8B 1D 000004E0 R		 mov ebx,symval+1240
main.ASM(2810): warning A4001: Extra characters on line
    3924 2047  83 C4 04			 add esp,4
main.ASM(2811): warning A4001: Extra characters on line
    3925 204A  BF 000001E4		 mov edi,484
main.ASM(2812): warning A4001: Extra characters on line
    3926 204F  FF 25 00000F5C R		 jmp [symfnc+1936]
main.ASM(2813): warning A4001: Extra characters on line
    3927 2055				l0243:
    3928 2055  8B 1D 000004E0 R		 mov ebx,symval+1240
main.ASM(2815): warning A4001: Extra characters on line
    3929 205B  BF 000001E4		 mov edi,484
main.ASM(2816): warning A4001: Extra characters on line
    3930 2060  FF 15 00000F5C R		 call [symfnc+1936]
main.ASM(2817): warning A4001: Extra characters on line
    3931 2066  8B 1D 000004E4 R		 mov ebx,symval+1244
main.ASM(2818): warning A4001: Extra characters on line
    3932 206C  8B 0424			 mov eax,DWORD PTR [esp]
main.ASM(2819): warning A4001: Extra characters on line
    3933 206F  83 C4 04			 add esp,4
main.ASM(2820): warning A4001: Extra characters on line
    3934 2072  BF 000001E4		 mov edi,484
main.ASM(2821): warning A4001: Extra characters on line
    3935 2077  FF 25 00000F5C R		 jmp [symfnc+1936]
main.ASM(2822): warning A4001: Extra characters on line
Microsoft (R) Macro Assembler Version 5.10                  11/16/97 16:56:0
                                                             Page     1-75


    3936 207D  00000002			 DD 2
    3937				; (*entry plantunbound-1 expr 2)
    3938				 PUBLIC l0244
    3939 2081				l0244:
    3940 2081  03 C0			 add eax,eax
main.ASM(2827): warning A4001: Extra characters on line
    3941 2083  8B F0			 mov esi,eax
main.ASM(2828): warning A4001: Extra characters on line
    3942 2085  03 F6			 add esi,esi
main.ASM(2829): warning A4001: Extra characters on line
    3943 2087  03 F3			 add esi,ebx
main.ASM(2830): warning A4001: Extra characters on line
    3944 2089  BF 2097 R		 mov edi,OFFSET l0245
main.ASM(2831): warning A4001: Extra characters on line
    3945 208E  8B 3F			 mov edi, DWORD PTR 0[edi]
main.ASM(2832): warning A4001: Extra characters on line
    3946 2090  89 3E			 mov  DWORD PTR 0[esi],edi
main.ASM(2833): warning A4001: Extra characters on line
    3947 2092  C3			 ret 
main.ASM(2834): warning A4001: Extra characters on line
    3948 2093  00000000			 DD 0
    3949 2097				l0245:
    3950 2097  000021B7 R		 DD undefinedfunction
    3951 209B  00000002			 DD 2
    3952				; (*entry plantcodepointer expr 2)
    3953				 PUBLIC plantcodepointer
    3954 209F				plantcodepointer:
    3955 209F  89 4424 E0		 mov  DWORD PTR -32[esp],eax
main.ASM(2842): warning A4001: Extra characters on line
    3956 20A3  53			 push ebx
main.ASM(2843): warning A4001: Extra characters on line
    3957 20A4  50			 push eax
main.ASM(2844): warning A4001: Extra characters on line
    3958 20A5  3B 05 000004D4 R		 cmp eax,symval+1228
main.ASM(2845): warning A4001: Extra characters on line
    3959 20AB  0F 8E 000020C5 R		 jle l0246
main.ASM(2846): warning A4001: Extra characters on line
    3960 20B1  8B 0D 000004E0 R		 mov ecx,symval+1240
main.ASM(2847): warning A4001: Extra characters on line
    3961 20B7  83 C4 08			 add esp,8
main.ASM(2848): warning A4001: Extra characters on line
    3962 20BA  BF 000001E5		 mov edi,485
main.ASM(2849): warning A4001: Extra characters on line
    3963 20BF  FF 25 00000F60 R		 jmp [symfnc+1940]
main.ASM(2850): warning A4001: Extra characters on line
    3964 20C5				l0246:
    3965 20C5  8B 0D 000004E0 R		 mov ecx,symval+1240
main.ASM(2852): warning A4001: Extra characters on line
    3966 20CB  BF 000001E5		 mov edi,485
main.ASM(2853): warning A4001: Extra characters on line
    3967 20D0  FF 15 00000F60 R		 call [symfnc+1940]
main.ASM(2854): warning A4001: Extra characters on line
    3968 20D6  8B 0D 000004E4 R		 mov ecx,symval+1244
main.ASM(2855): warning A4001: Extra characters on line
    3969 20DC  8B 5C24 04		 mov ebx, DWORD PTR 4[esp]
main.ASM(2856): warning A4001: Extra characters on line
    3970 20E0  8B 0424			 mov eax,DWORD PTR [esp]
main.ASM(2857): warning A4001: Extra characters on line
    3971 20E3  83 C4 08			 add esp,8
main.ASM(2858): warning A4001: Extra characters on line
    3972 20E6  BF 000001E5		 mov edi,485
main.ASM(2859): warning A4001: Extra characters on line
    3973 20EB  FF 25 00000F60 R		 jmp [symfnc+1940]
main.ASM(2860): warning A4001: Extra characters on line
    3974 20F1  00000003			 DD 3
    3975				; (*entry plantcodepointer-1 expr 3)
    3976				 PUBLIC l0247
    3977 20F5				l0247:
    3978 20F5  03 C0			 add eax,eax
main.ASM(2865): warning A4001: Extra characters on line
    3979 20F7  8B F0			 mov esi,eax
main.ASM(2866): warning A4001: Extra characters on line
    3980 20F9  03 F6			 add esi,esi
main.ASM(2867): warning A4001: Extra characters on line
    3981 20FB  03 F1			 add esi,ecx
main.ASM(2868): warning A4001: Extra characters on line
    3982 20FD  89 1E			 mov  DWORD PTR 0[esi],ebx
main.ASM(2869): warning A4001: Extra characters on line
    3983 20FF  C3			 ret 
main.ASM(2870): warning A4001: Extra characters on line
    3984 2100  00000001			 DD 1
    3985				; (*entry plantlambdalink expr 1)
    3986				 PUBLIC plantlambdalink
    3987 2104				plantlambdalink:
    3988 2104  89 4424 E0		 mov  DWORD PTR -32[esp],eax
main.ASM(2875): warning A4001: Extra characters on line
    3989 2108  50			 push eax
main.ASM(2876): warning A4001: Extra characters on line
Microsoft (R) Macro Assembler Version 5.10                  11/16/97 16:56:0
                                                             Page     1-76


    3990 2109  3B 05 000004D4 R		 cmp eax,symval+1228
main.ASM(2877): warning A4001: Extra characters on line
    3991 210F  0F 8E 00002129 R		 jle l0248
main.ASM(2878): warning A4001: Extra characters on line
    3992 2115  8B 1D 000004E0 R		 mov ebx,symval+1240
main.ASM(2879): warning A4001: Extra characters on line
    3993 211B  83 C4 04			 add esp,4
main.ASM(2880): warning A4001: Extra characters on line
    3994 211E  BF 000001E6		 mov edi,486
main.ASM(2881): warning A4001: Extra characters on line
    3995 2123  FF 25 00000F64 R		 jmp [symfnc+1944]
main.ASM(2882): warning A4001: Extra characters on line
    3996 2129				l0248:
    3997 2129  8B 1D 000004E0 R		 mov ebx,symval+1240
main.ASM(2884): warning A4001: Extra characters on line
    3998 212F  BF 000001E6		 mov edi,486
main.ASM(2885): warning A4001: Extra characters on line
    3999 2134  FF 15 00000F64 R		 call [symfnc+1944]
main.ASM(2886): warning A4001: Extra characters on line
    4000 213A  8B 1D 000004E4 R		 mov ebx,symval+1244
main.ASM(2887): warning A4001: Extra characters on line
    4001 2140  8B 0424			 mov eax,DWORD PTR [esp]
main.ASM(2888): warning A4001: Extra characters on line
    4002 2143  83 C4 04			 add esp,4
main.ASM(2889): warning A4001: Extra characters on line
    4003 2146  BF 000001E6		 mov edi,486
main.ASM(2890): warning A4001: Extra characters on line
    4004 214B  FF 25 00000F64 R		 jmp [symfnc+1944]
main.ASM(2891): warning A4001: Extra characters on line
    4005 2151  00000002			 DD 2
    4006				; (*entry plantlambdalink-1 expr 2)
    4007				 PUBLIC l0249
    4008 2155				l0249:
    4009 2155  03 C0			 add eax,eax
main.ASM(2896): warning A4001: Extra characters on line
    4010 2157  8B F0			 mov esi,eax
main.ASM(2897): warning A4001: Extra characters on line
    4011 2159  03 F6			 add esi,esi
main.ASM(2898): warning A4001: Extra characters on line
    4012 215B  03 F3			 add esi,ebx
main.ASM(2899): warning A4001: Extra characters on line
    4013 215D  BF 216B R		 mov edi,OFFSET l0250
main.ASM(2900): warning A4001: Extra characters on line
    4014 2162  8B 3F			 mov edi, DWORD PTR 0[edi]
main.ASM(2901): warning A4001: Extra characters on line
    4015 2164  89 3E			 mov  DWORD PTR 0[esi],edi
main.ASM(2902): warning A4001: Extra characters on line
    4016 2166  C3			 ret 
main.ASM(2903): warning A4001: Extra characters on line
    4017 2167  00000000			 DD 0
    4018 216B				l0250:
    4019 216B  0000221C R		 DD compiledcallinginterpreted
    4020 216F  00000001			 DD 1
    4021				; (*entry addressapply0 expr 1)
    4022				 PUBLIC l0251
    4023 2173				l0251:
    4024 2173  FF E0			 jmp eax
main.ASM(2911): warning A4001: Extra characters on line
    4025 2175  00000002			 DD 2
    4026				; (*entry bittable expr 2)
    4027				 PUBLIC bittable
    4028 2179				bittable:
    4029 2179  89 4424 E0		 mov  DWORD PTR -32[esp],eax
main.ASM(2916): warning A4001: Extra characters on line
    4030 217D  53			 push ebx
main.ASM(2917): warning A4001: Extra characters on line
    4031 217E  C1 EB 02			 shr ebx,2
main.ASM(2918): warning A4001: Extra characters on line
    4032 2181  8A 0418			 mov al,0[eax][ebx*1]
main.ASM(2919): warning A4001: Extra characters on line
    4033 2184  66| 98			 cbw 
main.ASM(2920): warning A4001: Extra characters on line
    4034 2186  98			 cwde 
main.ASM(2921): warning A4001: Extra characters on line
    4035 2187  8B 1C24			 mov ebx,DWORD PTR [esp]
main.ASM(2922): warning A4001: Extra characters on line
    4036 218A  83 E3 03			 and ebx,3
main.ASM(2923): warning A4001: Extra characters on line
    4037 218D  03 DB			 add ebx,ebx
main.ASM(2924): warning A4001: Extra characters on line
    4038 218F  83 C3 FA			 add ebx,-6
main.ASM(2925): warning A4001: Extra characters on line
    4039 2192  83 FB 00			 cmp ebx,0
main.ASM(2926): warning A4001: Extra characters on line
    4040 2195  0F 8D 000021A6 R		 jge l0252
main.ASM(2927): warning A4001: Extra characters on line
    4041 219B  F7 DB			 neg ebx
main.ASM(2928): warning A4001: Extra characters on line
    4042 219D  87 CB			 xchg ecx,ebx
main.ASM(2929): warning A4001: Extra characters on line
    4043 219F  D3 E8			 shr eax,cl
main.ASM(2930): warning A4001: Extra characters on line
Microsoft (R) Macro Assembler Version 5.10                  11/16/97 16:56:0
                                                             Page     1-77


    4044 21A1  EB 07 90 90 90		 jmp l0253
main.ASM(2931): warning A4001: Extra characters on line
    4045 21A6				l0252:
    4046 21A6  87 CB			 xchg ecx,ebx
main.ASM(2933): warning A4001: Extra characters on line
    4047 21A8  D3 E0			 shl eax,cl
main.ASM(2934): warning A4001: Extra characters on line
    4048 21AA				l0253:
    4049 21AA  87 CB			 xchg ecx,ebx
main.ASM(2936): warning A4001: Extra characters on line
    4050 21AC  83 E0 03			 and eax,3
main.ASM(2937): warning A4001: Extra characters on line
    4051 21AF  83 C4 04			 add esp,4
main.ASM(2938): warning A4001: Extra characters on line
    4052 21B2  C3			 ret 
main.ASM(2939): warning A4001: Extra characters on line
    4053 21B3  00000001			 DD 1
    4054				; (*entry undefinedfunction expr 1)
    4055				 PUBLIC undefinedfunction
    4056 21B7				undefinedfunction:
    4057 21B7  FF 25 00000F74 R		 jmp [symfnc+1960]
main.ASM(2944): warning A4001: Extra characters on line
    4058 21BD				l0254:
    4059 21BD  0000001A			 DD 26
    4060 21C1  55 6E 64 65 66 69	 DB 85,110,100,101,102,105,110,101,100,
					32
    4061       6E 65 64 20		
    4062 21CB  66 75 6E 63 74 69	 DB 102,117,110,99,116,105,111,110,32,9
					9,97
    4063       6F 6E 20 63 61		
    4064 21D6  6C 6C 65 64 3A 20	 DB 108,108,101,100,58,32,0
    4065       00			
    4066 21DD  00000001			 DD 1
    4067				; (*entry undefinedfunction-aux expr 1)
    4068				 PUBLIC l0255
    4069 21E1				l0255:
    4070 21E1  57			 push edi
main.ASM(2954): warning A4001: Extra characters on line
    4071 21E2  B8 21BD R		 mov eax,4*08000000h+OFFSET l0254
main.ASM(2955): warning A4001: Extra characters on line
    4072 21E7  BF 0000014B		 mov edi,331
main.ASM(2956): warning A4001: Extra characters on line
    4073 21EC  FF 15 00000CF8 R		 call [symfnc+1324]
main.ASM(2957): warning A4001: Extra characters on line
    4074 21F2  8B 35 000004F0 R		 mov esi,symval+1256
main.ASM(2958): warning A4001: Extra characters on line
    4075 21F8  5F			 pop edi
main.ASM(2959): warning A4001: Extra characters on line
    4076 21F9  C1 E7 02			 shl edi,2
main.ASM(2960): warning A4001: Extra characters on line
    4077 21FC  8B 043E			 mov eax,0[esi][edi*1]
main.ASM(2961): warning A4001: Extra characters on line
    4078 21FF  BF 0000014B		 mov edi,331
main.ASM(2962): warning A4001: Extra characters on line
    4079 2204  FF 15 00000CF8 R		 call [symfnc+1324]
main.ASM(2963): warning A4001: Extra characters on line
    4080 220A  33 C0			 xor eax,eax
main.ASM(2964): warning A4001: Extra characters on line
    4081 220C  BF 00000141		 mov edi,321
main.ASM(2965): warning A4001: Extra characters on line
    4082 2211  FF 15 00000CD0 R		 call [symfnc+1284]
main.ASM(2966): warning A4001: Extra characters on line
    4083 2217  C3			 ret 
main.ASM(2967): warning A4001: Extra characters on line
    4084 2218  00000000			 DD 0
    4085				; (*entry compiledcallinginterpreted ex
					pr 0)
    4086				 PUBLIC compiledcallinginterpreted
    4087 221C				compiledcallinginterpreted:
    4088 221C  81 E7 07FFFFFF		 and edi,134217727
main.ASM(2972): warning A4001: Extra characters on line
    4089 2222  81 CF F0000000		 or edi,-268435456
main.ASM(2973): warning A4001: Extra characters on line
    4090 2228  89 3D 000007BC R		 mov ds:symval+1972,edi
main.ASM(2974): warning A4001: Extra characters on line
    4091 222E  BF 000001EB		 mov edi,491
main.ASM(2975): warning A4001: Extra characters on line
    4092 2233  FF 25 00000F78 R		 jmp [symfnc+1964]
main.ASM(2976): warning A4001: Extra characters on line
    4093 2239				l0256:
    4094 2239  0000000C			 DD 12
Microsoft (R) Macro Assembler Version 5.10                  11/16/97 16:56:0
                                                             Page     1-78


    4095 223D  46 41 54 41 4C 20	 DB 70,65,84,65,76,32,69,82,82,79,82,58
					,32
    4096       45 52 52 4F 52 3A	
    4097       20			
    4098 224A  00			 DB 0
    4099 224B  00000001			 DD 1
    4100				; (*entry kernel-fatal-error expr 1)
    4101				 PUBLIC l0257
    4102 224F				l0257:
    4103 224F  89 4424 E0		 mov  DWORD PTR -32[esp],eax
main.ASM(2985): warning A4001: Extra characters on line
    4104 2253  50			 push eax
main.ASM(2986): warning A4001: Extra characters on line
    4105 2254  B8 2239 R		 mov eax,4*08000000h+OFFSET l0256
main.ASM(2987): warning A4001: Extra characters on line
    4106 2259  BF 0000014B		 mov edi,331
main.ASM(2988): warning A4001: Extra characters on line
    4107 225E  FF 15 00000CF8 R		 call [symfnc+1324]
main.ASM(2989): warning A4001: Extra characters on line
    4108 2264  8B 0424			 mov eax,DWORD PTR [esp]
main.ASM(2990): warning A4001: Extra characters on line
    4109 2267  BF 0000014B		 mov edi,331
main.ASM(2991): warning A4001: Extra characters on line
    4110 226C  FF 15 00000CF8 R		 call [symfnc+1324]
main.ASM(2992): warning A4001: Extra characters on line
    4111 2272  BF 0000014C		 mov edi,332
main.ASM(2993): warning A4001: Extra characters on line
    4112 2277  FF 15 00000CFC R		 call [symfnc+1328]
main.ASM(2994): warning A4001: Extra characters on line
    4113 227D  33 C0			 xor eax,eax
main.ASM(2995): warning A4001: Extra characters on line
    4114 227F  48			 dec eax
main.ASM(2996): warning A4001: Extra characters on line
    4115 2280  83 C4 04			 add esp,4
main.ASM(2997): warning A4001: Extra characters on line
    4116 2283  BF 00000141		 mov edi,321
main.ASM(2998): warning A4001: Extra characters on line
    4117 2288  FF 25 00000CD0 R		 jmp [symfnc+1284]
main.ASM(2999): warning A4001: Extra characters on line
    4118 228E  00000001			 DD 1
    4119				; (*entry codeaddressp expr 1)
    4120				 PUBLIC codeaddressp
    4121 2292				codeaddressp:
    4122 2292  89 4424 E0		 mov  DWORD PTR -32[esp],eax
main.ASM(3004): warning A4001: Extra characters on line
    4123 2296  83 EC 04			 sub esp,4
main.ASM(3005): warning A4001: Extra characters on line
    4124 2299  25 07FFFFFF		 and eax,134217727
main.ASM(3006): warning A4001: Extra characters on line
    4125 229E  89 0424			 mov DWORD PTR [esp],eax
main.ASM(3007): warning A4001: Extra characters on line
    4126 22A1  B8 F0000100		 mov eax,30*08000000h+OFFSET 256
main.ASM(3008): warning A4001: Extra characters on line
    4127 22A6  BF 000001EE		 mov edi,494
main.ASM(3009): warning A4001: Extra characters on line
    4128 22AB  FF 15 00000F84 R		 call [symfnc+1976]
main.ASM(3010): warning A4001: Extra characters on line
    4129 22B1  25 07FFFFFF		 and eax,134217727
main.ASM(3011): warning A4001: Extra characters on line
    4130 22B6  3B 0424			 cmp eax,DWORD PTR [esp]
main.ASM(3012): warning A4001: Extra characters on line
    4131 22B9  0F 8E 000022C9 R		 jle l0258
main.ASM(3013): warning A4001: Extra characters on line
    4132 22BF  B8 F0000080		 mov eax,30*08000000h+OFFSET 128
main.ASM(3014): warning A4001: Extra characters on line
    4133 22C4  EB 08 90 90 90		 jmp l0259
main.ASM(3015): warning A4001: Extra characters on line
    4134 22C9				l0258:
    4135 22C9  B8 F0000074		 mov eax,30*08000000h+OFFSET 116
main.ASM(3017): warning A4001: Extra characters on line
    4136 22CE				l0259:
    4137 22CE  3D F0000080		 cmp eax,30*08000000h+OFFSET 128
main.ASM(3019): warning A4001: Extra characters on line
    4138 22D3  0F 84 00002306 R		 je l0260
main.ASM(3020): warning A4001: Extra characters on line
    4139 22D9  B8 F00001EF		 mov eax,30*08000000h+OFFSET 495
main.ASM(3021): warning A4001: Extra characters on line
    4140 22DE  BF 000001EE		 mov edi,494
main.ASM(3022): warning A4001: Extra characters on line
    4141 22E3  FF 15 00000F84 R		 call [symfnc+1976]
main.ASM(3023): warning A4001: Extra characters on line
    4142 22E9  25 07FFFFFF		 and eax,134217727
main.ASM(3024): warning A4001: Extra characters on line
    4143 22EE  3B 0424			 cmp eax,DWORD PTR [esp]
main.ASM(3025): warning A4001: Extra characters on line
    4144 22F1  0F 8F 00002301 R		 jg l0261
main.ASM(3026): warning A4001: Extra characters on line
    4145 22F7  B8 F0000080		 mov eax,30*08000000h+OFFSET 128
main.ASM(3027): warning A4001: Extra characters on line
    4146 22FC  EB 08 90 90 90		 jmp l0260
main.ASM(3028): warning A4001: Extra characters on line
    4147 2301				l0261:
Microsoft (R) Macro Assembler Version 5.10                  11/16/97 16:56:0
                                                             Page     1-79


    4148 2301  B8 F0000074		 mov eax,30*08000000h+OFFSET 116
main.ASM(3030): warning A4001: Extra characters on line
    4149 2306				l0260:
    4150 2306  3D F0000080		 cmp eax,30*08000000h+OFFSET 128
main.ASM(3032): warning A4001: Extra characters on line
    4151 230B  0F 85 00002360 R		 jne l0262
main.ASM(3033): warning A4001: Extra characters on line
    4152 2311  A1 00000484 R		 mov eax,symval+1148
main.ASM(3034): warning A4001: Extra characters on line
    4153 2316  25 07FFFFFF		 and eax,134217727
main.ASM(3035): warning A4001: Extra characters on line
    4154 231B  3B 0424			 cmp eax,DWORD PTR [esp]
main.ASM(3036): warning A4001: Extra characters on line
    4155 231E  0F 8E 0000232E R		 jle l0263
main.ASM(3037): warning A4001: Extra characters on line
    4156 2324  B8 F0000080		 mov eax,30*08000000h+OFFSET 128
main.ASM(3038): warning A4001: Extra characters on line
    4157 2329  EB 08 90 90 90		 jmp l0264
main.ASM(3039): warning A4001: Extra characters on line
    4158 232E				l0263:
    4159 232E  B8 F0000074		 mov eax,30*08000000h+OFFSET 116
main.ASM(3041): warning A4001: Extra characters on line
    4160 2333				l0264:
    4161 2333  3D F0000080		 cmp eax,30*08000000h+OFFSET 128
main.ASM(3043): warning A4001: Extra characters on line
    4162 2338  0F 84 00002360 R		 je l0262
main.ASM(3044): warning A4001: Extra characters on line
    4163 233E  A1 0000049C R		 mov eax,symval+1172
main.ASM(3045): warning A4001: Extra characters on line
    4164 2343  25 07FFFFFF		 and eax,134217727
main.ASM(3046): warning A4001: Extra characters on line
    4165 2348  3B 0424			 cmp eax,DWORD PTR [esp]
main.ASM(3047): warning A4001: Extra characters on line
    4166 234B  0F 8F 0000235B R		 jg l0265
main.ASM(3048): warning A4001: Extra characters on line
    4167 2351  B8 F0000080		 mov eax,30*08000000h+OFFSET 128
main.ASM(3049): warning A4001: Extra characters on line
    4168 2356  EB 08 90 90 90		 jmp l0262
main.ASM(3050): warning A4001: Extra characters on line
    4169 235B				l0265:
    4170 235B  B8 F0000074		 mov eax,30*08000000h+OFFSET 116
main.ASM(3052): warning A4001: Extra characters on line
    4171 2360				l0262:
    4172 2360  83 C4 04			 add esp,4
main.ASM(3054): warning A4001: Extra characters on line
    4173 2363  C3			 ret 
main.ASM(3055): warning A4001: Extra characters on line
    4174 2364  00000001			 DD 1
    4175				; (*entry lastkernel expr 1)
    4176				 PUBLIC lastkernel
    4177 2368				lastkernel:
    4178 2368  C3			 ret 
main.ASM(3060): warning A4001: Extra characters on line
    4179 2369  00000000			 DD 0
    4180				; (*entry initcode expr 0)
    4181				 PUBLIC initcode
    4182 236D				initcode:
    4183 236D  B8 F0000080		 mov eax,30*08000000h+OFFSET 128
main.ASM(3065): warning A4001: Extra characters on line
    4184 2372  C3			 ret 
main.ASM(3066): warning A4001: Extra characters on line
    4185				 PUBLIC l0266
    4186 2373  90			  align 4
    4187 2374				l0266:
    4188 2374  00000000			 DD 0
    4189 2378  00 00			 DB 0,0
    4190				 PUBLIC l0267
    4191 237A  87 DB			  align 4
    4192 237C				l0267:
    4193 237C  00000000			 DD 0
    4194 2380  01 00			 DB 1,0
    4195				 PUBLIC l0268
    4196 2382  87 DB			  align 4
    4197 2384				l0268:
    4198 2384  00000000			 DD 0
    4199 2388  02 00			 DB 2,0
    4200				 PUBLIC l0269
    4201 238A  87 DB			  align 4
Microsoft (R) Macro Assembler Version 5.10                  11/16/97 16:56:0
                                                             Page     1-80


    4202 238C				l0269:
    4203 238C  00000000			 DD 0
    4204 2390  03 00			 DB 3,0
    4205				 PUBLIC l0270
    4206 2392  87 DB			  align 4
    4207 2394				l0270:
    4208 2394  00000000			 DD 0
    4209 2398  04 00			 DB 4,0
    4210				 PUBLIC l0271
    4211 239A  87 DB			  align 4
    4212 239C				l0271:
    4213 239C  00000000			 DD 0
    4214 23A0  05 00			 DB 5,0
    4215				 PUBLIC l0272
    4216 23A2  87 DB			  align 4
    4217 23A4				l0272:
    4218 23A4  00000000			 DD 0
    4219 23A8  06 00			 DB 6,0
    4220				 PUBLIC l0273
    4221 23AA  87 DB			  align 4
    4222 23AC				l0273:
    4223 23AC  00000000			 DD 0
    4224 23B0  07 00			 DB 7,0
    4225				 PUBLIC l0274
    4226 23B2  87 DB			  align 4
    4227 23B4				l0274:
    4228 23B4  00000000			 DD 0
    4229 23B8  08 00			 DB 8,0
    4230				 PUBLIC l0275
    4231 23BA  87 DB			  align 4
    4232 23BC				l0275:
    4233 23BC  00000000			 DD 0
    4234 23C0  09 00			 DB 9,0
    4235				 PUBLIC l0276
    4236 23C2  87 DB			  align 4
    4237 23C4				l0276:
    4238 23C4  00000000			 DD 0
    4239 23C8  0A 00			 DB 10,0
    4240				 PUBLIC l0277
    4241 23CA  87 DB			  align 4
    4242 23CC				l0277:
    4243 23CC  00000000			 DD 0
    4244 23D0  0B 00			 DB 11,0
    4245				 PUBLIC l0278
    4246 23D2  87 DB			  align 4
    4247 23D4				l0278:
    4248 23D4  00000000			 DD 0
    4249 23D8  0C 00			 DB 12,0
    4250				 PUBLIC l0279
    4251 23DA  87 DB			  align 4
    4252 23DC				l0279:
    4253 23DC  00000000			 DD 0
    4254 23E0  0D 00			 DB 13,0
    4255				 PUBLIC l0280
Microsoft (R) Macro Assembler Version 5.10                  11/16/97 16:56:0
                                                             Page     1-81


    4256 23E2  87 DB			  align 4
    4257 23E4				l0280:
    4258 23E4  00000000			 DD 0
    4259 23E8  0E 00			 DB 14,0
    4260				 PUBLIC l0281
    4261 23EA  87 DB			  align 4
    4262 23EC				l0281:
    4263 23EC  00000000			 DD 0
    4264 23F0  0F 00			 DB 15,0
    4265				 PUBLIC l0282
    4266 23F2  87 DB			  align 4
    4267 23F4				l0282:
    4268 23F4  00000000			 DD 0
    4269 23F8  10 00			 DB 16,0
    4270				 PUBLIC l0283
    4271 23FA  87 DB			  align 4
    4272 23FC				l0283:
    4273 23FC  00000000			 DD 0
    4274 2400  11 00			 DB 17,0
    4275				 PUBLIC l0284
    4276 2402  87 DB			  align 4
    4277 2404				l0284:
    4278 2404  00000000			 DD 0
    4279 2408  12 00			 DB 18,0
    4280				 PUBLIC l0285
    4281 240A  87 DB			  align 4
    4282 240C				l0285:
    4283 240C  00000000			 DD 0
    4284 2410  13 00			 DB 19,0
    4285				 PUBLIC l0286
    4286 2412  87 DB			  align 4
    4287 2414				l0286:
    4288 2414  00000000			 DD 0
    4289 2418  14 00			 DB 20,0
    4290				 PUBLIC l0287
    4291 241A  87 DB			  align 4
    4292 241C				l0287:
    4293 241C  00000000			 DD 0
    4294 2420  15 00			 DB 21,0
    4295				 PUBLIC l0288
    4296 2422  87 DB			  align 4
    4297 2424				l0288:
    4298 2424  00000000			 DD 0
    4299 2428  16 00			 DB 22,0
    4300				 PUBLIC l0289
    4301 242A  87 DB			  align 4
    4302 242C				l0289:
    4303 242C  00000000			 DD 0
    4304 2430  17 00			 DB 23,0
    4305				 PUBLIC l0290
    4306 2432  87 DB			  align 4
    4307 2434				l0290:
    4308 2434  00000000			 DD 0
    4309 2438  18 00			 DB 24,0
Microsoft (R) Macro Assembler Version 5.10                  11/16/97 16:56:0
                                                             Page     1-82


    4310				 PUBLIC l0291
    4311 243A  87 DB			  align 4
    4312 243C				l0291:
    4313 243C  00000000			 DD 0
    4314 2440  19 00			 DB 25,0
    4315				 PUBLIC l0292
    4316 2442  87 DB			  align 4
    4317 2444				l0292:
    4318 2444  00000000			 DD 0
    4319 2448  1A 00			 DB 26,0
    4320				 PUBLIC l0293
    4321 244A  87 DB			  align 4
    4322 244C				l0293:
    4323 244C  00000000			 DD 0
    4324 2450  1B 00			 DB 27,0
    4325				 PUBLIC l0294
    4326 2452  87 DB			  align 4
    4327 2454				l0294:
    4328 2454  00000000			 DD 0
    4329 2458  1C 00			 DB 28,0
    4330				 PUBLIC l0295
    4331 245A  87 DB			  align 4
    4332 245C				l0295:
    4333 245C  00000000			 DD 0
    4334 2460  1D 00			 DB 29,0
    4335				 PUBLIC l0296
    4336 2462  87 DB			  align 4
    4337 2464				l0296:
    4338 2464  00000000			 DD 0
    4339 2468  1E 00			 DB 30,0
    4340				 PUBLIC l0297
    4341 246A  87 DB			  align 4
    4342 246C				l0297:
    4343 246C  00000000			 DD 0
    4344 2470  1F 00			 DB 31,0
    4345				 PUBLIC l0298
    4346 2472  87 DB			  align 4
    4347 2474				l0298:
    4348 2474  00000000			 DD 0
    4349 2478  20 00			 DB 32,0
    4350				 PUBLIC l0299
    4351 247A  87 DB			  align 4
    4352 247C				l0299:
    4353 247C  00000000			 DD 0
    4354 2480  21 00			 DB 33,0
    4355				 PUBLIC l0300
    4356 2482  87 DB			  align 4
    4357 2484				l0300:
    4358 2484  00000000			 DD 0
    4359 2488  22 00			 DB 34,0
    4360				 PUBLIC l0301
    4361 248A  87 DB			  align 4
    4362 248C				l0301:
    4363 248C  00000000			 DD 0
Microsoft (R) Macro Assembler Version 5.10                  11/16/97 16:56:0
                                                             Page     1-83


    4364 2490  23 00			 DB 35,0
    4365				 PUBLIC l0302
    4366 2492  87 DB			  align 4
    4367 2494				l0302:
    4368 2494  00000000			 DD 0
    4369 2498  24 00			 DB 36,0
    4370				 PUBLIC l0303
    4371 249A  87 DB			  align 4
    4372 249C				l0303:
    4373 249C  00000000			 DD 0
    4374 24A0  25 00			 DB 37,0
    4375				 PUBLIC l0304
    4376 24A2  87 DB			  align 4
    4377 24A4				l0304:
    4378 24A4  00000000			 DD 0
    4379 24A8  26 00			 DB 38,0
    4380				 PUBLIC l0305
    4381 24AA  87 DB			  align 4
    4382 24AC				l0305:
    4383 24AC  00000000			 DD 0
    4384 24B0  27 00			 DB 39,0
    4385				 PUBLIC l0306
    4386 24B2  87 DB			  align 4
    4387 24B4				l0306:
    4388 24B4  00000000			 DD 0
    4389 24B8  28 00			 DB 40,0
    4390				 PUBLIC l0307
    4391 24BA  87 DB			  align 4
    4392 24BC				l0307:
    4393 24BC  00000000			 DD 0
    4394 24C0  29 00			 DB 41,0
    4395				 PUBLIC l0308
    4396 24C2  87 DB			  align 4
    4397 24C4				l0308:
    4398 24C4  00000000			 DD 0
    4399 24C8  2A 00			 DB 42,0
    4400				 PUBLIC l0309
    4401 24CA  87 DB			  align 4
    4402 24CC				l0309:
    4403 24CC  00000000			 DD 0
    4404 24D0  2B 00			 DB 43,0
    4405				 PUBLIC l0310
    4406 24D2  87 DB			  align 4
    4407 24D4				l0310:
    4408 24D4  00000000			 DD 0
    4409 24D8  2C 00			 DB 44,0
    4410				 PUBLIC l0311
    4411 24DA  87 DB			  align 4
    4412 24DC				l0311:
    4413 24DC  00000000			 DD 0
    4414 24E0  2D 00			 DB 45,0
    4415				 PUBLIC l0312
    4416 24E2  87 DB			  align 4
    4417 24E4				l0312:
Microsoft (R) Macro Assembler Version 5.10                  11/16/97 16:56:0
                                                             Page     1-84


    4418 24E4  00000000			 DD 0
    4419 24E8  2E 00			 DB 46,0
    4420				 PUBLIC l0313
    4421 24EA  87 DB			  align 4
    4422 24EC				l0313:
    4423 24EC  00000000			 DD 0
    4424 24F0  2F 00			 DB 47,0
    4425				 PUBLIC l0314
    4426 24F2  87 DB			  align 4
    4427 24F4				l0314:
    4428 24F4  00000000			 DD 0
    4429 24F8  30 00			 DB 48,0
    4430				 PUBLIC l0315
    4431 24FA  87 DB			  align 4
    4432 24FC				l0315:
    4433 24FC  00000000			 DD 0
    4434 2500  31 00			 DB 49,0
    4435				 PUBLIC l0316
    4436 2502  87 DB			  align 4
    4437 2504				l0316:
    4438 2504  00000000			 DD 0
    4439 2508  32 00			 DB 50,0
    4440				 PUBLIC l0317
    4441 250A  87 DB			  align 4
    4442 250C				l0317:
    4443 250C  00000000			 DD 0
    4444 2510  33 00			 DB 51,0
    4445				 PUBLIC l0318
    4446 2512  87 DB			  align 4
    4447 2514				l0318:
    4448 2514  00000000			 DD 0
    4449 2518  34 00			 DB 52,0
    4450				 PUBLIC l0319
    4451 251A  87 DB			  align 4
    4452 251C				l0319:
    4453 251C  00000000			 DD 0
    4454 2520  35 00			 DB 53,0
    4455				 PUBLIC l0320
    4456 2522  87 DB			  align 4
    4457 2524				l0320:
    4458 2524  00000000			 DD 0
    4459 2528  36 00			 DB 54,0
    4460				 PUBLIC l0321
    4461 252A  87 DB			  align 4
    4462 252C				l0321:
    4463 252C  00000000			 DD 0
    4464 2530  37 00			 DB 55,0
    4465				 PUBLIC l0322
    4466 2532  87 DB			  align 4
    4467 2534				l0322:
    4468 2534  00000000			 DD 0
    4469 2538  38 00			 DB 56,0
    4470				 PUBLIC l0323
    4471 253A  87 DB			  align 4
Microsoft (R) Macro Assembler Version 5.10                  11/16/97 16:56:0
                                                             Page     1-85


    4472 253C				l0323:
    4473 253C  00000000			 DD 0
    4474 2540  39 00			 DB 57,0
    4475				 PUBLIC l0324
    4476 2542  87 DB			  align 4
    4477 2544				l0324:
    4478 2544  00000000			 DD 0
    4479 2548  3A 00			 DB 58,0
    4480				 PUBLIC l0325
    4481 254A  87 DB			  align 4
    4482 254C				l0325:
    4483 254C  00000000			 DD 0
    4484 2550  3B 00			 DB 59,0
    4485				 PUBLIC l0326
    4486 2552  87 DB			  align 4
    4487 2554				l0326:
    4488 2554  00000000			 DD 0
    4489 2558  3C 00			 DB 60,0
    4490				 PUBLIC l0327
    4491 255A  87 DB			  align 4
    4492 255C				l0327:
    4493 255C  00000000			 DD 0
    4494 2560  3D 00			 DB 61,0
    4495				 PUBLIC l0328
    4496 2562  87 DB			  align 4
    4497 2564				l0328:
    4498 2564  00000000			 DD 0
    4499 2568  3E 00			 DB 62,0
    4500				 PUBLIC l0329
    4501 256A  87 DB			  align 4
    4502 256C				l0329:
    4503 256C  00000000			 DD 0
    4504 2570  3F 00			 DB 63,0
    4505				 PUBLIC l0330
    4506 2572  87 DB			  align 4
    4507 2574				l0330:
    4508 2574  00000000			 DD 0
    4509 2578  40 00			 DB 64,0
    4510				 PUBLIC l0331
    4511 257A  87 DB			  align 4
    4512 257C				l0331:
    4513 257C  00000000			 DD 0
    4514 2580  41 00			 DB 65,0
    4515				 PUBLIC l0332
    4516 2582  87 DB			  align 4
    4517 2584				l0332:
    4518 2584  00000000			 DD 0
    4519 2588  42 00			 DB 66,0
    4520				 PUBLIC l0333
    4521 258A  87 DB			  align 4
    4522 258C				l0333:
    4523 258C  00000000			 DD 0
    4524 2590  43 00			 DB 67,0
    4525				 PUBLIC l0334
Microsoft (R) Macro Assembler Version 5.10                  11/16/97 16:56:0
                                                             Page     1-86


    4526 2592  87 DB			  align 4
    4527 2594				l0334:
    4528 2594  00000000			 DD 0
    4529 2598  44 00			 DB 68,0
    4530				 PUBLIC l0335
    4531 259A  87 DB			  align 4
    4532 259C				l0335:
    4533 259C  00000000			 DD 0
    4534 25A0  45 00			 DB 69,0
    4535				 PUBLIC l0336
    4536 25A2  87 DB			  align 4
    4537 25A4				l0336:
    4538 25A4  00000000			 DD 0
    4539 25A8  46 00			 DB 70,0
    4540				 PUBLIC l0337
    4541 25AA  87 DB			  align 4
    4542 25AC				l0337:
    4543 25AC  00000000			 DD 0
    4544 25B0  47 00			 DB 71,0
    4545				 PUBLIC l0338
    4546 25B2  87 DB			  align 4
    4547 25B4				l0338:
    4548 25B4  00000000			 DD 0
    4549 25B8  48 00			 DB 72,0
    4550				 PUBLIC l0339
    4551 25BA  87 DB			  align 4
    4552 25BC				l0339:
    4553 25BC  00000000			 DD 0
    4554 25C0  49 00			 DB 73,0
    4555				 PUBLIC l0340
    4556 25C2  87 DB			  align 4
    4557 25C4				l0340:
    4558 25C4  00000000			 DD 0
    4559 25C8  4A 00			 DB 74,0
    4560				 PUBLIC l0341
    4561 25CA  87 DB			  align 4
    4562 25CC				l0341:
    4563 25CC  00000000			 DD 0
    4564 25D0  4B 00			 DB 75,0
    4565				 PUBLIC l0342
    4566 25D2  87 DB			  align 4
    4567 25D4				l0342:
    4568 25D4  00000000			 DD 0
    4569 25D8  4C 00			 DB 76,0
    4570				 PUBLIC l0343
    4571 25DA  87 DB			  align 4
    4572 25DC				l0343:
    4573 25DC  00000000			 DD 0
    4574 25E0  4D 00			 DB 77,0
    4575				 PUBLIC l0344
    4576 25E2  87 DB			  align 4
    4577 25E4				l0344:
    4578 25E4  00000000			 DD 0
    4579 25E8  4E 00			 DB 78,0
Microsoft (R) Macro Assembler Version 5.10                  11/16/97 16:56:0
                                                             Page     1-87


    4580				 PUBLIC l0345
    4581 25EA  87 DB			  align 4
    4582 25EC				l0345:
    4583 25EC  00000000			 DD 0
    4584 25F0  4F 00			 DB 79,0
    4585				 PUBLIC l0346
    4586 25F2  87 DB			  align 4
    4587 25F4				l0346:
    4588 25F4  00000000			 DD 0
    4589 25F8  50 00			 DB 80,0
    4590				 PUBLIC l0347
    4591 25FA  87 DB			  align 4
    4592 25FC				l0347:
    4593 25FC  00000000			 DD 0
    4594 2600  51 00			 DB 81,0
    4595				 PUBLIC l0348
    4596 2602  87 DB			  align 4
    4597 2604				l0348:
    4598 2604  00000000			 DD 0
    4599 2608  52 00			 DB 82,0
    4600				 PUBLIC l0349
    4601 260A  87 DB			  align 4
    4602 260C				l0349:
    4603 260C  00000000			 DD 0
    4604 2610  53 00			 DB 83,0
    4605				 PUBLIC l0350
    4606 2612  87 DB			  align 4
    4607 2614				l0350:
    4608 2614  00000000			 DD 0
    4609 2618  54 00			 DB 84,0
    4610				 PUBLIC l0351
    4611 261A  87 DB			  align 4
    4612 261C				l0351:
    4613 261C  00000000			 DD 0
    4614 2620  55 00			 DB 85,0
    4615				 PUBLIC l0352
    4616 2622  87 DB			  align 4
    4617 2624				l0352:
    4618 2624  00000000			 DD 0
    4619 2628  56 00			 DB 86,0
    4620				 PUBLIC l0353
    4621 262A  87 DB			  align 4
    4622 262C				l0353:
    4623 262C  00000000			 DD 0
    4624 2630  57 00			 DB 87,0
    4625				 PUBLIC l0354
    4626 2632  87 DB			  align 4
    4627 2634				l0354:
    4628 2634  00000000			 DD 0
    4629 2638  58 00			 DB 88,0
    4630				 PUBLIC l0355
    4631 263A  87 DB			  align 4
    4632 263C				l0355:
    4633 263C  00000000			 DD 0
Microsoft (R) Macro Assembler Version 5.10                  11/16/97 16:56:0
                                                             Page     1-88


    4634 2640  59 00			 DB 89,0
    4635				 PUBLIC l0356
    4636 2642  87 DB			  align 4
    4637 2644				l0356:
    4638 2644  00000000			 DD 0
    4639 2648  5A 00			 DB 90,0
    4640				 PUBLIC l0357
    4641 264A  87 DB			  align 4
    4642 264C				l0357:
    4643 264C  00000000			 DD 0
    4644 2650  5B 00			 DB 91,0
    4645				 PUBLIC l0358
    4646 2652  87 DB			  align 4
    4647 2654				l0358:
    4648 2654  00000000			 DD 0
    4649 2658  5C 00			 DB 92,0
    4650				 PUBLIC l0359
    4651 265A  87 DB			  align 4
    4652 265C				l0359:
    4653 265C  00000000			 DD 0
    4654 2660  5D 00			 DB 93,0
    4655				 PUBLIC l0360
    4656 2662  87 DB			  align 4
    4657 2664				l0360:
    4658 2664  00000000			 DD 0
    4659 2668  5E 00			 DB 94,0
    4660				 PUBLIC l0361
    4661 266A  87 DB			  align 4
    4662 266C				l0361:
    4663 266C  00000000			 DD 0
    4664 2670  5F 00			 DB 95,0
    4665				 PUBLIC l0362
    4666 2672  87 DB			  align 4
    4667 2674				l0362:
    4668 2674  00000000			 DD 0
    4669 2678  60 00			 DB 96,0
    4670				 PUBLIC l0363
    4671 267A  87 DB			  align 4
    4672 267C				l0363:
    4673 267C  00000000			 DD 0
    4674 2680  61 00			 DB 97,0
    4675				 PUBLIC l0364
    4676 2682  87 DB			  align 4
    4677 2684				l0364:
    4678 2684  00000000			 DD 0
    4679 2688  62 00			 DB 98,0
    4680				 PUBLIC l0365
    4681 268A  87 DB			  align 4
    4682 268C				l0365:
    4683 268C  00000000			 DD 0
    4684 2690  63 00			 DB 99,0
    4685				 PUBLIC l0366
    4686 2692  87 DB			  align 4
    4687 2694				l0366:
Microsoft (R) Macro Assembler Version 5.10                  11/16/97 16:56:0
                                                             Page     1-89


    4688 2694  00000000			 DD 0
    4689 2698  64 00			 DB 100,0
    4690				 PUBLIC l0367
    4691 269A  87 DB			  align 4
    4692 269C				l0367:
    4693 269C  00000000			 DD 0
    4694 26A0  65 00			 DB 101,0
    4695				 PUBLIC l0368
    4696 26A2  87 DB			  align 4
    4697 26A4				l0368:
    4698 26A4  00000000			 DD 0
    4699 26A8  66 00			 DB 102,0
    4700				 PUBLIC l0369
    4701 26AA  87 DB			  align 4
    4702 26AC				l0369:
    4703 26AC  00000000			 DD 0
    4704 26B0  67 00			 DB 103,0
    4705				 PUBLIC l0370
    4706 26B2  87 DB			  align 4
    4707 26B4				l0370:
    4708 26B4  00000000			 DD 0
    4709 26B8  68 00			 DB 104,0
    4710				 PUBLIC l0371
    4711 26BA  87 DB			  align 4
    4712 26BC				l0371:
    4713 26BC  00000000			 DD 0
    4714 26C0  69 00			 DB 105,0
    4715				 PUBLIC l0372
    4716 26C2  87 DB			  align 4
    4717 26C4				l0372:
    4718 26C4  00000000			 DD 0
    4719 26C8  6A 00			 DB 106,0
    4720				 PUBLIC l0373
    4721 26CA  87 DB			  align 4
    4722 26CC				l0373:
    4723 26CC  00000000			 DD 0
    4724 26D0  6B 00			 DB 107,0
    4725				 PUBLIC l0374
    4726 26D2  87 DB			  align 4
    4727 26D4				l0374:
    4728 26D4  00000000			 DD 0
    4729 26D8  6C 00			 DB 108,0
    4730				 PUBLIC l0375
    4731 26DA  87 DB			  align 4
    4732 26DC				l0375:
    4733 26DC  00000000			 DD 0
    4734 26E0  6D 00			 DB 109,0
    4735				 PUBLIC l0376
    4736 26E2  87 DB			  align 4
    4737 26E4				l0376:
    4738 26E4  00000000			 DD 0
    4739 26E8  6E 00			 DB 110,0
    4740				 PUBLIC l0377
    4741 26EA  87 DB			  align 4
Microsoft (R) Macro Assembler Version 5.10                  11/16/97 16:56:0
                                                             Page     1-90


    4742 26EC				l0377:
    4743 26EC  00000000			 DD 0
    4744 26F0  6F 00			 DB 111,0
    4745				 PUBLIC l0378
    4746 26F2  87 DB			  align 4
    4747 26F4				l0378:
    4748 26F4  00000000			 DD 0
    4749 26F8  70 00			 DB 112,0
    4750				 PUBLIC l0379
    4751 26FA  87 DB			  align 4
    4752 26FC				l0379:
    4753 26FC  00000000			 DD 0
    4754 2700  71 00			 DB 113,0
    4755				 PUBLIC l0380
    4756 2702  87 DB			  align 4
    4757 2704				l0380:
    4758 2704  00000000			 DD 0
    4759 2708  72 00			 DB 114,0
    4760				 PUBLIC l0381
    4761 270A  87 DB			  align 4
    4762 270C				l0381:
    4763 270C  00000000			 DD 0
    4764 2710  73 00			 DB 115,0
    4765				 PUBLIC l0382
    4766 2712  87 DB			  align 4
    4767 2714				l0382:
    4768 2714  00000000			 DD 0
    4769 2718  74 00			 DB 116,0
    4770				 PUBLIC l0383
    4771 271A  87 DB			  align 4
    4772 271C				l0383:
    4773 271C  00000000			 DD 0
    4774 2720  75 00			 DB 117,0
    4775				 PUBLIC l0384
    4776 2722  87 DB			  align 4
    4777 2724				l0384:
    4778 2724  00000000			 DD 0
    4779 2728  76 00			 DB 118,0
    4780				 PUBLIC l0385
    4781 272A  87 DB			  align 4
    4782 272C				l0385:
    4783 272C  00000000			 DD 0
    4784 2730  77 00			 DB 119,0
    4785				 PUBLIC l0386
    4786 2732  87 DB			  align 4
    4787 2734				l0386:
    4788 2734  00000000			 DD 0
    4789 2738  78 00			 DB 120,0
    4790				 PUBLIC l0387
    4791 273A  87 DB			  align 4
    4792 273C				l0387:
    4793 273C  00000000			 DD 0
    4794 2740  79 00			 DB 121,0
    4795				 PUBLIC l0388
Microsoft (R) Macro Assembler Version 5.10                  11/16/97 16:56:0
                                                             Page     1-91


    4796 2742  87 DB			  align 4
    4797 2744				l0388:
    4798 2744  00000000			 DD 0
    4799 2748  7A 00			 DB 122,0
    4800				 PUBLIC l0389
    4801 274A  87 DB			  align 4
    4802 274C				l0389:
    4803 274C  00000000			 DD 0
    4804 2750  7B 00			 DB 123,0
    4805				 PUBLIC l0390
    4806 2752  87 DB			  align 4
    4807 2754				l0390:
    4808 2754  00000000			 DD 0
    4809 2758  7C 00			 DB 124,0
    4810				 PUBLIC l0391
    4811 275A  87 DB			  align 4
    4812 275C				l0391:
    4813 275C  00000000			 DD 0
    4814 2760  7D 00			 DB 125,0
    4815				 PUBLIC l0392
    4816 2762  87 DB			  align 4
    4817 2764				l0392:
    4818 2764  00000000			 DD 0
    4819 2768  7E 00			 DB 126,0
    4820				 PUBLIC l0393
    4821 276A  87 DB			  align 4
    4822 276C				l0393:
    4823 276C  00000000			 DD 0
    4824 2770  7F 00			 DB 127,0
    4825				 PUBLIC l0394
    4826 2772  87 DB			  align 4
    4827 2774				l0394:
    4828 2774  00000002			 DD 2
    4829 2778  6E 69 6C 00		 DB 110,105,108,0
    4830				 PUBLIC l0395
    4831				  align 4
    4832 277C				l0395:
    4833 277C  00000000			 DD 0
    4834 2780  81 00			 DB -127,0
    4835				 PUBLIC l0396
    4836 2782  87 DB			  align 4
    4837 2784				l0396:
    4838 2784  00000000			 DD 0
    4839 2788  82 00			 DB -126,0
    4840				 PUBLIC l0397
    4841 278A  87 DB			  align 4
    4842 278C				l0397:
    4843 278C  00000000			 DD 0
    4844 2790  83 00			 DB -125,0
    4845				 PUBLIC l0398
    4846 2792  87 DB			  align 4
    4847 2794				l0398:
    4848 2794  00000000			 DD 0
    4849 2798  84 00			 DB -124,0
Microsoft (R) Macro Assembler Version 5.10                  11/16/97 16:56:0
                                                             Page     1-92


    4850				 PUBLIC l0399
    4851 279A  87 DB			  align 4
    4852 279C				l0399:
    4853 279C  00000000			 DD 0
    4854 27A0  85 00			 DB -123,0
    4855				 PUBLIC l0400
    4856 27A2  87 DB			  align 4
    4857 27A4				l0400:
    4858 27A4  00000000			 DD 0
    4859 27A8  86 00			 DB -122,0
    4860				 PUBLIC l0401
    4861 27AA  87 DB			  align 4
    4862 27AC				l0401:
    4863 27AC  00000000			 DD 0
    4864 27B0  87 00			 DB -121,0
    4865				 PUBLIC l0402
    4866 27B2  87 DB			  align 4
    4867 27B4				l0402:
    4868 27B4  00000000			 DD 0
    4869 27B8  88 00			 DB -120,0
    4870				 PUBLIC l0403
    4871 27BA  87 DB			  align 4
    4872 27BC				l0403:
    4873 27BC  00000000			 DD 0
    4874 27C0  89 00			 DB -119,0
    4875				 PUBLIC l0404
    4876 27C2  87 DB			  align 4
    4877 27C4				l0404:
    4878 27C4  00000000			 DD 0
    4879 27C8  8A 00			 DB -118,0
    4880				 PUBLIC l0405
    4881 27CA  87 DB			  align 4
    4882 27CC				l0405:
    4883 27CC  00000000			 DD 0
    4884 27D0  8B 00			 DB -117,0
    4885				 PUBLIC l0406
    4886 27D2  87 DB			  align 4
    4887 27D4				l0406:
    4888 27D4  00000000			 DD 0
    4889 27D8  8C 00			 DB -116,0
    4890				 PUBLIC l0407
    4891 27DA  87 DB			  align 4
    4892 27DC				l0407:
    4893 27DC  00000000			 DD 0
    4894 27E0  8D 00			 DB -115,0
    4895				 PUBLIC l0408
    4896 27E2  87 DB			  align 4
    4897 27E4				l0408:
    4898 27E4  00000000			 DD 0
    4899 27E8  8E 00			 DB -114,0
    4900				 PUBLIC l0409
    4901 27EA  87 DB			  align 4
    4902 27EC				l0409:
    4903 27EC  00000000			 DD 0
Microsoft (R) Macro Assembler Version 5.10                  11/16/97 16:56:0
                                                             Page     1-93


    4904 27F0  8F 00			 DB -113,0
    4905				 PUBLIC l0410
    4906 27F2  87 DB			  align 4
    4907 27F4				l0410:
    4908 27F4  00000000			 DD 0
    4909 27F8  90 00			 DB -112,0
    4910				 PUBLIC l0411
    4911 27FA  87 DB			  align 4
    4912 27FC				l0411:
    4913 27FC  00000000			 DD 0
    4914 2800  91 00			 DB -111,0
    4915				 PUBLIC l0412
    4916 2802  87 DB			  align 4
    4917 2804				l0412:
    4918 2804  00000000			 DD 0
    4919 2808  92 00			 DB -110,0
    4920				 PUBLIC l0413
    4921 280A  87 DB			  align 4
    4922 280C				l0413:
    4923 280C  00000000			 DD 0
    4924 2810  93 00			 DB -109,0
    4925				 PUBLIC l0414
    4926 2812  87 DB			  align 4
    4927 2814				l0414:
    4928 2814  00000000			 DD 0
    4929 2818  94 00			 DB -108,0
    4930				 PUBLIC l0415
    4931 281A  87 DB			  align 4
    4932 281C				l0415:
    4933 281C  00000000			 DD 0
    4934 2820  95 00			 DB -107,0
    4935				 PUBLIC l0416
    4936 2822  87 DB			  align 4
    4937 2824				l0416:
    4938 2824  00000000			 DD 0
    4939 2828  96 00			 DB -106,0
    4940				 PUBLIC l0417
    4941 282A  87 DB			  align 4
    4942 282C				l0417:
    4943 282C  00000000			 DD 0
    4944 2830  97 00			 DB -105,0
    4945				 PUBLIC l0418
    4946 2832  87 DB			  align 4
    4947 2834				l0418:
    4948 2834  00000000			 DD 0
    4949 2838  98 00			 DB -104,0
    4950				 PUBLIC l0419
    4951 283A  87 DB			  align 4
    4952 283C				l0419:
    4953 283C  00000000			 DD 0
    4954 2840  99 00			 DB -103,0
    4955				 PUBLIC l0420
    4956 2842  87 DB			  align 4
    4957 2844				l0420:
Microsoft (R) Macro Assembler Version 5.10                  11/16/97 16:56:0
                                                             Page     1-94


    4958 2844  00000000			 DD 0
    4959 2848  9A 00			 DB -102,0
    4960				 PUBLIC l0421
    4961 284A  87 DB			  align 4
    4962 284C				l0421:
    4963 284C  00000000			 DD 0
    4964 2850  9B 00			 DB -101,0
    4965				 PUBLIC l0422
    4966 2852  87 DB			  align 4
    4967 2854				l0422:
    4968 2854  00000000			 DD 0
    4969 2858  9C 00			 DB -100,0
    4970				 PUBLIC l0423
    4971 285A  87 DB			  align 4
    4972 285C				l0423:
    4973 285C  00000000			 DD 0
    4974 2860  9D 00			 DB -99,0
    4975				 PUBLIC l0424
    4976 2862  87 DB			  align 4
    4977 2864				l0424:
    4978 2864  00000000			 DD 0
    4979 2868  9E 00			 DB -98,0
    4980				 PUBLIC l0425
    4981 286A  87 DB			  align 4
    4982 286C				l0425:
    4983 286C  00000000			 DD 0
    4984 2870  9F 00			 DB -97,0
    4985				 PUBLIC l0426
    4986 2872  87 DB			  align 4
    4987 2874				l0426:
    4988 2874  00000000			 DD 0
    4989 2878  A0 00			 DB -96,0
    4990				 PUBLIC l0427
    4991 287A  87 DB			  align 4
    4992 287C				l0427:
    4993 287C  00000000			 DD 0
    4994 2880  A1 00			 DB -95,0
    4995				 PUBLIC l0428
    4996 2882  87 DB			  align 4
    4997 2884				l0428:
    4998 2884  00000000			 DD 0
    4999 2888  A2 00			 DB -94,0
    5000				 PUBLIC l0429
    5001 288A  87 DB			  align 4
    5002 288C				l0429:
    5003 288C  00000000			 DD 0
    5004 2890  A3 00			 DB -93,0
    5005				 PUBLIC l0430
    5006 2892  87 DB			  align 4
    5007 2894				l0430:
    5008 2894  00000000			 DD 0
    5009 2898  A4 00			 DB -92,0
    5010				 PUBLIC l0431
    5011 289A  87 DB			  align 4
Microsoft (R) Macro Assembler Version 5.10                  11/16/97 16:56:0
                                                             Page     1-95


    5012 289C				l0431:
    5013 289C  00000000			 DD 0
    5014 28A0  A5 00			 DB -91,0
    5015				 PUBLIC l0432
    5016 28A2  87 DB			  align 4
    5017 28A4				l0432:
    5018 28A4  00000000			 DD 0
    5019 28A8  A6 00			 DB -90,0
    5020				 PUBLIC l0433
    5021 28AA  87 DB			  align 4
    5022 28AC				l0433:
    5023 28AC  00000000			 DD 0
    5024 28B0  A7 00			 DB -89,0
    5025				 PUBLIC l0434
    5026 28B2  87 DB			  align 4
    5027 28B4				l0434:
    5028 28B4  00000000			 DD 0
    5029 28B8  A8 00			 DB -88,0
    5030				 PUBLIC l0435
    5031 28BA  87 DB			  align 4
    5032 28BC				l0435:
    5033 28BC  00000000			 DD 0
    5034 28C0  A9 00			 DB -87,0
    5035				 PUBLIC l0436
    5036 28C2  87 DB			  align 4
    5037 28C4				l0436:
    5038 28C4  00000000			 DD 0
    5039 28C8  AA 00			 DB -86,0
    5040				 PUBLIC l0437
    5041 28CA  87 DB			  align 4
    5042 28CC				l0437:
    5043 28CC  00000000			 DD 0
    5044 28D0  AB 00			 DB -85,0
    5045				 PUBLIC l0438
    5046 28D2  87 DB			  align 4
    5047 28D4				l0438:
    5048 28D4  00000000			 DD 0
    5049 28D8  AC 00			 DB -84,0
    5050				 PUBLIC l0439
    5051 28DA  87 DB			  align 4
    5052 28DC				l0439:
    5053 28DC  00000000			 DD 0
    5054 28E0  AD 00			 DB -83,0
    5055				 PUBLIC l0440
    5056 28E2  87 DB			  align 4
    5057 28E4				l0440:
    5058 28E4  00000000			 DD 0
    5059 28E8  AE 00			 DB -82,0
    5060				 PUBLIC l0441
    5061 28EA  87 DB			  align 4
    5062 28EC				l0441:
    5063 28EC  00000000			 DD 0
    5064 28F0  AF 00			 DB -81,0
    5065				 PUBLIC l0442
Microsoft (R) Macro Assembler Version 5.10                  11/16/97 16:56:0
                                                             Page     1-96


    5066 28F2  87 DB			  align 4
    5067 28F4				l0442:
    5068 28F4  00000000			 DD 0
    5069 28F8  B0 00			 DB -80,0
    5070				 PUBLIC l0443
    5071 28FA  87 DB			  align 4
    5072 28FC				l0443:
    5073 28FC  00000000			 DD 0
    5074 2900  B1 00			 DB -79,0
    5075				 PUBLIC l0444
    5076 2902  87 DB			  align 4
    5077 2904				l0444:
    5078 2904  00000000			 DD 0
    5079 2908  B2 00			 DB -78,0
    5080				 PUBLIC l0445
    5081 290A  87 DB			  align 4
    5082 290C				l0445:
    5083 290C  00000000			 DD 0
    5084 2910  B3 00			 DB -77,0
    5085				 PUBLIC l0446
    5086 2912  87 DB			  align 4
    5087 2914				l0446:
    5088 2914  00000000			 DD 0
    5089 2918  B4 00			 DB -76,0
    5090				 PUBLIC l0447
    5091 291A  87 DB			  align 4
    5092 291C				l0447:
    5093 291C  00000000			 DD 0
    5094 2920  B5 00			 DB -75,0
    5095				 PUBLIC l0448
    5096 2922  87 DB			  align 4
    5097 2924				l0448:
    5098 2924  00000000			 DD 0
    5099 2928  B6 00			 DB -74,0
    5100				 PUBLIC l0449
    5101 292A  87 DB			  align 4
    5102 292C				l0449:
    5103 292C  00000000			 DD 0
    5104 2930  B7 00			 DB -73,0
    5105				 PUBLIC l0450
    5106 2932  87 DB			  align 4
    5107 2934				l0450:
    5108 2934  00000000			 DD 0
    5109 2938  B8 00			 DB -72,0
    5110				 PUBLIC l0451
    5111 293A  87 DB			  align 4
    5112 293C				l0451:
    5113 293C  00000000			 DD 0
    5114 2940  B9 00			 DB -71,0
    5115				 PUBLIC l0452
    5116 2942  87 DB			  align 4
    5117 2944				l0452:
    5118 2944  00000000			 DD 0
    5119 2948  BA 00			 DB -70,0
Microsoft (R) Macro Assembler Version 5.10                  11/16/97 16:56:0
                                                             Page     1-97


    5120				 PUBLIC l0453
    5121 294A  87 DB			  align 4
    5122 294C				l0453:
    5123 294C  00000000			 DD 0
    5124 2950  BB 00			 DB -69,0
    5125				 PUBLIC l0454
    5126 2952  87 DB			  align 4
    5127 2954				l0454:
    5128 2954  00000000			 DD 0
    5129 2958  BC 00			 DB -68,0
    5130				 PUBLIC l0455
    5131 295A  87 DB			  align 4
    5132 295C				l0455:
    5133 295C  00000000			 DD 0
    5134 2960  BD 00			 DB -67,0
    5135				 PUBLIC l0456
    5136 2962  87 DB			  align 4
    5137 2964				l0456:
    5138 2964  00000000			 DD 0
    5139 2968  BE 00			 DB -66,0
    5140				 PUBLIC l0457
    5141 296A  87 DB			  align 4
    5142 296C				l0457:
    5143 296C  00000000			 DD 0
    5144 2970  BF 00			 DB -65,0
    5145				 PUBLIC l0458
    5146 2972  87 DB			  align 4
    5147 2974				l0458:
    5148 2974  00000000			 DD 0
    5149 2978  C0 00			 DB -64,0
    5150				 PUBLIC l0459
    5151 297A  87 DB			  align 4
    5152 297C				l0459:
    5153 297C  00000000			 DD 0
    5154 2980  C1 00			 DB -63,0
    5155				 PUBLIC l0460
    5156 2982  87 DB			  align 4
    5157 2984				l0460:
    5158 2984  00000000			 DD 0
    5159 2988  C2 00			 DB -62,0
    5160				 PUBLIC l0461
    5161 298A  87 DB			  align 4
    5162 298C				l0461:
    5163 298C  00000000			 DD 0
    5164 2990  C3 00			 DB -61,0
    5165				 PUBLIC l0462
    5166 2992  87 DB			  align 4
    5167 2994				l0462:
    5168 2994  00000000			 DD 0
    5169 2998  C4 00			 DB -60,0
    5170				 PUBLIC l0463
    5171 299A  87 DB			  align 4
    5172 299C				l0463:
    5173 299C  00000000			 DD 0
Microsoft (R) Macro Assembler Version 5.10                  11/16/97 16:56:0
                                                             Page     1-98


    5174 29A0  C5 00			 DB -59,0
    5175				 PUBLIC l0464
    5176 29A2  87 DB			  align 4
    5177 29A4				l0464:
    5178 29A4  00000000			 DD 0
    5179 29A8  C6 00			 DB -58,0
    5180				 PUBLIC l0465
    5181 29AA  87 DB			  align 4
    5182 29AC				l0465:
    5183 29AC  00000000			 DD 0
    5184 29B0  C7 00			 DB -57,0
    5185				 PUBLIC l0466
    5186 29B2  87 DB			  align 4
    5187 29B4				l0466:
    5188 29B4  00000000			 DD 0
    5189 29B8  C8 00			 DB -56,0
    5190				 PUBLIC l0467
    5191 29BA  87 DB			  align 4
    5192 29BC				l0467:
    5193 29BC  00000000			 DD 0
    5194 29C0  C9 00			 DB -55,0
    5195				 PUBLIC l0468
    5196 29C2  87 DB			  align 4
    5197 29C4				l0468:
    5198 29C4  00000000			 DD 0
    5199 29C8  CA 00			 DB -54,0
    5200				 PUBLIC l0469
    5201 29CA  87 DB			  align 4
    5202 29CC				l0469:
    5203 29CC  00000000			 DD 0
    5204 29D0  CB 00			 DB -53,0
    5205				 PUBLIC l0470
    5206 29D2  87 DB			  align 4
    5207 29D4				l0470:
    5208 29D4  00000000			 DD 0
    5209 29D8  CC 00			 DB -52,0
    5210				 PUBLIC l0471
    5211 29DA  87 DB			  align 4
    5212 29DC				l0471:
    5213 29DC  00000000			 DD 0
    5214 29E0  CD 00			 DB -51,0
    5215				 PUBLIC l0472
    5216 29E2  87 DB			  align 4
    5217 29E4				l0472:
    5218 29E4  00000000			 DD 0
    5219 29E8  CE 00			 DB -50,0
    5220				 PUBLIC l0473
    5221 29EA  87 DB			  align 4
    5222 29EC				l0473:
    5223 29EC  00000000			 DD 0
    5224 29F0  CF 00			 DB -49,0
    5225				 PUBLIC l0474
    5226 29F2  87 DB			  align 4
    5227 29F4				l0474:
Microsoft (R) Macro Assembler Version 5.10                  11/16/97 16:56:0
                                                             Page     1-99


    5228 29F4  00000000			 DD 0
    5229 29F8  D0 00			 DB -48,0
    5230				 PUBLIC l0475
    5231 29FA  87 DB			  align 4
    5232 29FC				l0475:
    5233 29FC  00000000			 DD 0
    5234 2A00  D1 00			 DB -47,0
    5235				 PUBLIC l0476
    5236 2A02  87 DB			  align 4
    5237 2A04				l0476:
    5238 2A04  00000000			 DD 0
    5239 2A08  D2 00			 DB -46,0
    5240				 PUBLIC l0477
    5241 2A0A  87 DB			  align 4
    5242 2A0C				l0477:
    5243 2A0C  00000000			 DD 0
    5244 2A10  D3 00			 DB -45,0
    5245				 PUBLIC l0478
    5246 2A12  87 DB			  align 4
    5247 2A14				l0478:
    5248 2A14  00000000			 DD 0
    5249 2A18  D4 00			 DB -44,0
    5250				 PUBLIC l0479
    5251 2A1A  87 DB			  align 4
    5252 2A1C				l0479:
    5253 2A1C  00000000			 DD 0
    5254 2A20  D5 00			 DB -43,0
    5255				 PUBLIC l0480
    5256 2A22  87 DB			  align 4
    5257 2A24				l0480:
    5258 2A24  00000000			 DD 0
    5259 2A28  D6 00			 DB -42,0
    5260				 PUBLIC l0481
    5261 2A2A  87 DB			  align 4
    5262 2A2C				l0481:
    5263 2A2C  00000000			 DD 0
    5264 2A30  D7 00			 DB -41,0
    5265				 PUBLIC l0482
    5266 2A32  87 DB			  align 4
    5267 2A34				l0482:
    5268 2A34  00000000			 DD 0
    5269 2A38  D8 00			 DB -40,0
    5270				 PUBLIC l0483
    5271 2A3A  87 DB			  align 4
    5272 2A3C				l0483:
    5273 2A3C  00000000			 DD 0
    5274 2A40  D9 00			 DB -39,0
    5275				 PUBLIC l0484
    5276 2A42  87 DB			  align 4
    5277 2A44				l0484:
    5278 2A44  00000000			 DD 0
    5279 2A48  DA 00			 DB -38,0
    5280				 PUBLIC l0485
    5281 2A4A  87 DB			  align 4
Microsoft (R) Macro Assembler Version 5.10                  11/16/97 16:56:0
                                                             Page     1-100


    5282 2A4C				l0485:
    5283 2A4C  00000000			 DD 0
    5284 2A50  DB 00			 DB -37,0
    5285				 PUBLIC l0486
    5286 2A52  87 DB			  align 4
    5287 2A54				l0486:
    5288 2A54  00000000			 DD 0
    5289 2A58  DC 00			 DB -36,0
    5290				 PUBLIC l0487
    5291 2A5A  87 DB			  align 4
    5292 2A5C				l0487:
    5293 2A5C  00000000			 DD 0
    5294 2A60  DD 00			 DB -35,0
    5295				 PUBLIC l0488
    5296 2A62  87 DB			  align 4
    5297 2A64				l0488:
    5298 2A64  00000000			 DD 0
    5299 2A68  DE 00			 DB -34,0
    5300				 PUBLIC l0489
    5301 2A6A  87 DB			  align 4
    5302 2A6C				l0489:
    5303 2A6C  00000000			 DD 0
    5304 2A70  DF 00			 DB -33,0
    5305				 PUBLIC l0490
    5306 2A72  87 DB			  align 4
    5307 2A74				l0490:
    5308 2A74  00000000			 DD 0
    5309 2A78  E0 00			 DB -32,0
    5310				 PUBLIC l0491
    5311 2A7A  87 DB			  align 4
    5312 2A7C				l0491:
    5313 2A7C  00000000			 DD 0
    5314 2A80  E1 00			 DB -31,0
    5315				 PUBLIC l0492
    5316 2A82  87 DB			  align 4
    5317 2A84				l0492:
    5318 2A84  00000000			 DD 0
    5319 2A88  E2 00			 DB -30,0
    5320				 PUBLIC l0493
    5321 2A8A  87 DB			  align 4
    5322 2A8C				l0493:
    5323 2A8C  00000000			 DD 0
    5324 2A90  E3 00			 DB -29,0
    5325				 PUBLIC l0494
    5326 2A92  87 DB			  align 4
    5327 2A94				l0494:
    5328 2A94  00000000			 DD 0
    5329 2A98  E4 00			 DB -28,0
    5330				 PUBLIC l0495
    5331 2A9A  87 DB			  align 4
    5332 2A9C				l0495:
    5333 2A9C  00000000			 DD 0
    5334 2AA0  E5 00			 DB -27,0
    5335				 PUBLIC l0496
Microsoft (R) Macro Assembler Version 5.10                  11/16/97 16:56:0
                                                             Page     1-101


    5336 2AA2  87 DB			  align 4
    5337 2AA4				l0496:
    5338 2AA4  00000000			 DD 0
    5339 2AA8  E6 00			 DB -26,0
    5340				 PUBLIC l0497
    5341 2AAA  87 DB			  align 4
    5342 2AAC				l0497:
    5343 2AAC  00000000			 DD 0
    5344 2AB0  E7 00			 DB -25,0
    5345				 PUBLIC l0498
    5346 2AB2  87 DB			  align 4
    5347 2AB4				l0498:
    5348 2AB4  00000000			 DD 0
    5349 2AB8  E8 00			 DB -24,0
    5350				 PUBLIC l0499
    5351 2ABA  87 DB			  align 4
    5352 2ABC				l0499:
    5353 2ABC  00000000			 DD 0
    5354 2AC0  E9 00			 DB -23,0
    5355				 PUBLIC l0500
    5356 2AC2  87 DB			  align 4
    5357 2AC4				l0500:
    5358 2AC4  00000000			 DD 0
    5359 2AC8  EA 00			 DB -22,0
    5360				 PUBLIC l0501
    5361 2ACA  87 DB			  align 4
    5362 2ACC				l0501:
    5363 2ACC  00000000			 DD 0
    5364 2AD0  EB 00			 DB -21,0
    5365				 PUBLIC l0502
    5366 2AD2  87 DB			  align 4
    5367 2AD4				l0502:
    5368 2AD4  00000000			 DD 0
    5369 2AD8  EC 00			 DB -20,0
    5370				 PUBLIC l0503
    5371 2ADA  87 DB			  align 4
    5372 2ADC				l0503:
    5373 2ADC  00000000			 DD 0
    5374 2AE0  ED 00			 DB -19,0
    5375				 PUBLIC l0504
    5376 2AE2  87 DB			  align 4
    5377 2AE4				l0504:
    5378 2AE4  00000000			 DD 0
    5379 2AE8  EE 00			 DB -18,0
    5380				 PUBLIC l0505
    5381 2AEA  87 DB			  align 4
    5382 2AEC				l0505:
    5383 2AEC  00000000			 DD 0
    5384 2AF0  EF 00			 DB -17,0
    5385				 PUBLIC l0506
    5386 2AF2  87 DB			  align 4
    5387 2AF4				l0506:
    5388 2AF4  00000000			 DD 0
    5389 2AF8  F0 00			 DB -16,0
Microsoft (R) Macro Assembler Version 5.10                  11/16/97 16:56:0
                                                             Page     1-102


    5390				 PUBLIC l0507
    5391 2AFA  87 DB			  align 4
    5392 2AFC				l0507:
    5393 2AFC  00000000			 DD 0
    5394 2B00  F1 00			 DB -15,0
    5395				 PUBLIC l0508
    5396 2B02  87 DB			  align 4
    5397 2B04				l0508:
    5398 2B04  00000000			 DD 0
    5399 2B08  F2 00			 DB -14,0
    5400				 PUBLIC l0509
    5401 2B0A  87 DB			  align 4
    5402 2B0C				l0509:
    5403 2B0C  00000000			 DD 0
    5404 2B10  F3 00			 DB -13,0
    5405				 PUBLIC l0510
    5406 2B12  87 DB			  align 4
    5407 2B14				l0510:
    5408 2B14  00000000			 DD 0
    5409 2B18  F4 00			 DB -12,0
    5410				 PUBLIC l0511
    5411 2B1A  87 DB			  align 4
    5412 2B1C				l0511:
    5413 2B1C  00000000			 DD 0
    5414 2B20  F5 00			 DB -11,0
    5415				 PUBLIC l0512
    5416 2B22  87 DB			  align 4
    5417 2B24				l0512:
    5418 2B24  00000000			 DD 0
    5419 2B28  F6 00			 DB -10,0
    5420				 PUBLIC l0513
    5421 2B2A  87 DB			  align 4
    5422 2B2C				l0513:
    5423 2B2C  00000000			 DD 0
    5424 2B30  F7 00			 DB -9,0
    5425				 PUBLIC l0514
    5426 2B32  87 DB			  align 4
    5427 2B34				l0514:
    5428 2B34  00000000			 DD 0
    5429 2B38  F8 00			 DB -8,0
    5430				 PUBLIC l0515
    5431 2B3A  87 DB			  align 4
    5432 2B3C				l0515:
    5433 2B3C  00000000			 DD 0
    5434 2B40  F9 00			 DB -7,0
    5435				 PUBLIC l0516
    5436 2B42  87 DB			  align 4
    5437 2B44				l0516:
    5438 2B44  00000000			 DD 0
    5439 2B48  FA 00			 DB -6,0
    5440				 PUBLIC l0517
    5441 2B4A  87 DB			  align 4
    5442 2B4C				l0517:
    5443 2B4C  00000000			 DD 0
Microsoft (R) Macro Assembler Version 5.10                  11/16/97 16:56:0
                                                             Page     1-103


    5444 2B50  FB 00			 DB -5,0
    5445				 PUBLIC l0518
    5446 2B52  87 DB			  align 4
    5447 2B54				l0518:
    5448 2B54  00000000			 DD 0
    5449 2B58  FC 00			 DB -4,0
    5450				 PUBLIC l0519
    5451 2B5A  87 DB			  align 4
    5452 2B5C				l0519:
    5453 2B5C  00000000			 DD 0
    5454 2B60  FD 00			 DB -3,0
    5455				 PUBLIC l0520
    5456 2B62  87 DB			  align 4
    5457 2B64				l0520:
    5458 2B64  00000000			 DD 0
    5459 2B68  FE 00			 DB -2,0
    5460				 PUBLIC l0521
    5461 2B6A  87 DB			  align 4
    5462 2B6C				l0521:
    5463 2B6C  00000000			 DD 0
    5464 2B70  FF 00			 DB -1,0
    5465				 PUBLIC l0522
    5466 2B72  87 DB			  align 4
    5467 2B74				l0522:
    5468 2B74  0000000A			 DD 10
    5469 2B78  66 69 72 73 74 6B	 DB 102,105,114,115,116,107,101,114,110
					,101
    5470       65 72 6E 65		
    5471 2B82  6C 00			 DB 108,0
    5472				 PUBLIC l0523
    5473				  align 4
    5474 2B84				l0523:
    5475 2B84  0000000C			 DD 12
    5476 2B88  61 72 67 75 6D 65	 DB 97,114,103,117,109,101,110,116,98,1
					08
    5477       6E 74 62 6C		
    5478 2B92  6F 63 6B 00		 DB 111,99,107,0
    5479				 PUBLIC l0524
    5480 2B96  87 DB			  align 4
    5481 2B98				l0524:
    5482 2B98  0000000A			 DD 10
    5483 2B9C  74 6F 6B 65 6E 62	 DB 116,111,107,101,110,98,117,102,102,
					101
    5484       75 66 66 65		
    5485 2BA6  72 00			 DB 114,0
    5486				 PUBLIC l0525
    5487				  align 4
    5488 2BA8				l0525:
    5489 2BA8  00000005			 DD 5
    5490 2BAC  62 6E 64 73 74 6B	 DB 98,110,100,115,116,107,0,0
    5491       00 00			
    5492				 PUBLIC l0526
    5493				  align 4
    5494 2BB4				l0526:
Microsoft (R) Macro Assembler Version 5.10                  11/16/97 16:56:0
                                                             Page     1-104


    5495 2BB4  00000009			 DD 9
    5496 2BB8  63 61 74 63 68 73	 DB 99,97,116,99,104,115,116,97,99,107,
					0,0
    5497       74 61 63 6B 00 00	
    5498				 PUBLIC l0527
    5499				  align 4
    5500 2BC4				l0527:
    5501 2BC4  00000008			 DD 8
    5502 2BC8  68 61 73 68 74 61	 DB 104,97,115,104,116,97,98,108,101,0
    5503       62 6C 65 00		
    5504				 PUBLIC l0528
    5505 2BD2  87 DB			  align 4
    5506 2BD4				l0528:
    5507 2BD4  0000000C			 DD 12
    5508 2BD8  6F 6E 65 77 6F 72	 DB 111,110,101,119,111,114,100,98,117,
					102
    5509       64 62 75 66		
    5510 2BE2  66 65 72 00		 DB 102,101,114,0
    5511				 PUBLIC l0529
    5512 2BE6  87 DB			  align 4
    5513 2BE8				l0529:
    5514 2BE8  00000007			 DD 7
    5515 2BEC  73 61 76 65 61 72	 DB 115,97,118,101,97,114,103,99,0,0
    5516       67 63 00 00		
    5517				 PUBLIC l0530
    5518 2BF6  87 DB			  align 4
    5519 2BF8				l0530:
    5520 2BF8  00000007			 DD 7
    5521 2BFC  73 61 76 65 61 72	 DB 115,97,118,101,97,114,103,118,0,0
    5522       67 76 00 00		
    5523				 PUBLIC l0531
    5524 2C06  87 DB			  align 4
    5525 2C08				l0531:
    5526 2C08  00000009			 DD 9
    5527 2C0C  64 61 74 65 62 75	 DB 100,97,116,101,98,117,102,102,101,1
					14
    5528       66 66 65 72		
    5529 2C16  00 00			 DB 0,0
    5530				 PUBLIC l0532
    5531				  align 4
    5532 2C18				l0532:
    5533 2C18  0000000C			 DD 12
    5534 2C1C  69 6E 69 74 2D 70	 DB 105,110,105,116,45,112,111,105,110,
					116
    5535       6F 69 6E 74		
    5536 2C26  65 72 73 00		 DB 101,114,115,0
    5537				 PUBLIC l0533
    5538 2C2A  87 DB			  align 4
    5539 2C2C				l0533:
    5540 2C2C  0000000C			 DD 12
    5541 2C30  70 73 6C 5F 63 61	 DB 112,115,108,95,99,97,108,108,98,97,
					99
    5542       6C 6C 62 61 63		
    5543 2C3B  6B 31 00			 DB 107,49,0
Microsoft (R) Macro Assembler Version 5.10                  11/16/97 16:56:0
                                                             Page     1-105


    5544				 PUBLIC l0534
    5545 2C3E  87 DB			  align 4
    5546 2C40				l0534:
    5547 2C40  0000000C			 DD 12
    5548 2C44  70 73 6C 5F 63 61	 DB 112,115,108,95,99,97,108,108,98,97,
					99
    5549       6C 6C 62 61 63		
    5550 2C4F  6B 32 00			 DB 107,50,0
    5551				 PUBLIC l0535
    5552 2C52  87 DB			  align 4
    5553 2C54				l0535:
    5554 2C54  0000000C			 DD 12
    5555 2C58  70 73 6C 5F 63 61	 DB 112,115,108,95,99,97,108,108,98,97,
					99
    5556       6C 6C 62 61 63		
    5557 2C63  6B 33 00			 DB 107,51,0
    5558				 PUBLIC l0536
    5559 2C66  87 DB			  align 4
    5560 2C68				l0536:
    5561 2C68  0000000C			 DD 12
    5562 2C6C  70 73 6C 5F 63 61	 DB 112,115,108,95,99,97,108,108,98,97,
					99
    5563       6C 6C 62 61 63		
    5564 2C77  6B 34 00			 DB 107,52,0
    5565				 PUBLIC l0537
    5566 2C7A  87 DB			  align 4
    5567 2C7C				l0537:
    5568 2C7C  00000004			 DD 4
    5569 2C80  73 74 61 63 6B 00	 DB 115,116,97,99,107,0
    5570				 PUBLIC l0538
    5571 2C86  87 DB			  align 4
    5572 2C88				l0538:
    5573 2C88  0000000E			 DD 14
    5574 2C8C  73 74 61 63 6B 75	 DB 115,116,97,99,107,117,112,112,101,1
					14
    5575       70 70 65 72		
    5576 2C96  62 6F 75 6E 64 00	 DB 98,111,117,110,100,0
    5577				 PUBLIC l0539
    5578				  align 4
    5579 2C9C				l0539:
    5580 2C9C  0000000C			 DD 12
    5581 2CA0  63 61 74 63 68 73	 DB 99,97,116,99,104,115,116,97,99,107,
					112
    5582       74 61 63 6B 70		
    5583 2CAB  74 72 00			 DB 116,114,0
    5584				 PUBLIC l0540
    5585 2CAE  87 DB			  align 4
    5586 2CB0				l0540:
    5587 2CB0  0000000F			 DD 15
    5588 2CB4  62 6E 64 73 74 6B	 DB 98,110,100,115,116,107,108,111,119,
					101
    5589       6C 6F 77 65		
    5590 2CBE  72 62 6F 75 6E 64	 DB 114,98,111,117,110,100,0,0
    5591       00 00			
Microsoft (R) Macro Assembler Version 5.10                  11/16/97 16:56:0
                                                             Page     1-106


    5592				 PUBLIC l0541
    5593 2CC6  87 DB			  align 4
    5594 2CC8				l0541:
    5595 2CC8  0000000F			 DD 15
    5596 2CCC  62 6E 64 73 74 6B	 DB 98,110,100,115,116,107,117,112,112,
					101
    5597       75 70 70 65		
    5598 2CD6  72 62 6F 75 6E 64	 DB 114,98,111,117,110,100,0,0
    5599       00 00			
    5600				 PUBLIC l0542
    5601 2CDE  87 DB			  align 4
    5602 2CE0				l0542:
    5603 2CE0  00000008			 DD 8
    5604 2CE4  62 6E 64 73 74 6B	 DB 98,110,100,115,116,107,112,116,114,
					0
    5605       70 74 72 00		
    5606				 PUBLIC l0543
    5607 2CEE  87 DB			  align 4
    5608 2CF0				l0543:
    5609 2CF0  0000000D			 DD 13
    5610 2CF4  68 65 61 70 6C 6F	 DB 104,101,97,112,108,111,119,101,114,
					98
    5611       77 65 72 62		
    5612 2CFE  6F 75 6E 64 00 00	 DB 111,117,110,100,0,0
    5613				 PUBLIC l0544
    5614				  align 4
    5615 2D04				l0544:
    5616 2D04  00000003			 DD 3
    5617 2D08  68 65 61 70 00 00	 DB 104,101,97,112,0,0
    5618				 PUBLIC l0545
    5619 2D0E  87 DB			  align 4
    5620 2D10				l0545:
    5621 2D10  0000000A			 DD 10
    5622 2D14  69 6E 69 74 2D 66	 DB 105,110,105,116,45,102,108,117,105,
					100
    5623       6C 75 69 64		
    5624 2D1E  73 00			 DB 115,0
    5625				 PUBLIC l0546
    5626				  align 4
    5627 2D20				l0546:
    5628 2D20  00000010			 DD 16
    5629 2D24  67 63 61 72 72 61	 DB 103,99,97,114,114,97,121,108,111,11
					9,101
    5630       79 6C 6F 77 65		
    5631 2D2F  72 62 6F 75 6E 64	 DB 114,98,111,117,110,100,0
    5632       00			
    5633				 PUBLIC l0547
    5634 2D36  87 DB			  align 4
    5635 2D38				l0547:
    5636 2D38  00000010			 DD 16
    5637 2D3C  67 63 61 72 72 61	 DB 103,99,97,114,114,97,121,117,112,11
					2,101
    5638       79 75 70 70 65		
    5639 2D47  72 62 6F 75 6E 64	 DB 114,98,111,117,110,100,0
Microsoft (R) Macro Assembler Version 5.10                  11/16/97 16:56:0
                                                             Page     1-107


    5640       00			
    5641				 PUBLIC l0548
    5642 2D4E  87 DB			  align 4
    5643 2D50				l0548:
    5644 2D50  00000007			 DD 7
    5645 2D54  68 65 61 70 6C 61	 DB 104,101,97,112,108,97,115,116,0,0
    5646       73 74 00 00		
    5647				 PUBLIC l0549
    5648 2D5E  87 DB			  align 4
    5649 2D60				l0549:
    5650 2D60  0000000C			 DD 12
    5651 2D64  68 65 61 70 74 72	 DB 104,101,97,112,116,114,97,112,98,11
					1,117
    5652       61 70 62 6F 75		
    5653 2D6F  6E 64 00			 DB 110,100,0
    5654				 PUBLIC l0550
    5655 2D72  87 DB			  align 4
    5656 2D74				l0550:
    5657 2D74  0000000D			 DD 13
    5658 2D78  68 65 61 70 75 70	 DB 104,101,97,112,117,112,112,101,114,
					98
    5659       70 65 72 62		
    5660 2D82  6F 75 6E 64 00 00	 DB 111,117,110,100,0,0
    5661				 PUBLIC l0551
    5662				  align 4
    5663 2D88				l0551:
    5664 2D88  0000000D			 DD 13
    5665 2D8C  5F 69 6E 66 62 69	 DB 95,105,110,102,98,105,116,108,101,1
					10
    5666       74 6C 65 6E		
    5667 2D96  67 74 68 5F 00 00	 DB 103,116,104,95,0,0
    5668				 PUBLIC l0552
    5669				  align 4
    5670 2D9C				l0552:
    5671 2D9C  00000006			 DD 6
    5672 2DA0  6C 61 73 74 62 70	 DB 108,97,115,116,98,112,115,0
    5673       73 00			
    5674				 PUBLIC l0553
    5675				  align 4
    5676 2DA8				l0553:
    5677 2DA8  0000000C			 DD 12
    5678 2DAC  62 70 73 6C 6F 77	 DB 98,112,115,108,111,119,101,114,98,1
					11
    5679       65 72 62 6F		
    5680 2DB6  75 6E 64 00		 DB 117,110,100,0
    5681				 PUBLIC l0554
    5682 2DBA  87 DB			  align 4
    5683 2DBC				l0554:
    5684 2DBC  0000000A			 DD 10
    5685 2DC0  6F 6C 64 68 65 61	 DB 111,108,100,104,101,97,112,108,97,1
					15
    5686       70 6C 61 73		
    5687 2DCA  74 00			 DB 116,0
    5688				 PUBLIC l0555
Microsoft (R) Macro Assembler Version 5.10                  11/16/97 16:56:0
                                                             Page     1-108


    5689				  align 4
    5690 2DCC				l0555:
    5691 2DCC  00000010			 DD 16
    5692 2DD0  6F 6C 64 68 65 61	 DB 111,108,100,104,101,97,112,108,111,
					119
    5693       70 6C 6F 77		
    5694 2DDA  65 72 62 6F 75 6E	 DB 101,114,98,111,117,110,100,0
    5695       64 00			
    5696				 PUBLIC l0556
    5697 2DE2  87 DB			  align 4
    5698 2DE4				l0556:
    5699 2DE4  0000000F			 DD 15
    5700 2DE8  6F 6C 64 68 65 61	 DB 111,108,100,104,101,97,112,116,114,
					97
    5701       70 74 72 61		
    5702 2DF2  70 62 6F 75 6E 64	 DB 112,98,111,117,110,100,0,0
    5703       00 00			
    5704				 PUBLIC l0557
    5705 2DFA  87 DB			  align 4
    5706 2DFC				l0557:
    5707 2DFC  00000010			 DD 16
    5708 2E00  6F 6C 64 68 65 61	 DB 111,108,100,104,101,97,112,117,112,
					112
    5709       70 75 70 70		
    5710 2E0A  65 72 62 6F 75 6E	 DB 101,114,98,111,117,110,100,0
    5711       64 00			
    5712				 PUBLIC l0558
    5713 2E12  87 DB			  align 4
    5714 2E14				l0558:
    5715 2E14  00000012			 DD 18
    5716 2E18  6D 61 69 6E 73 74	 DB 109,97,105,110,115,116,97,114,116,1
					05
    5717       61 72 74 69		
    5718 2E22  6E 69 74 69 61 6C	 DB 110,105,116,105,97,108,105,122,101,
					0
    5719       69 7A 65 00		
    5720				 PUBLIC l0559
    5721				  align 4
    5722 2E2C				l0559:
    5723 2E2C  00000006			 DD 6
    5724 2E30  6E 65 78 74 62 70	 DB 110,101,120,116,98,112,115,0
    5725       73 00			
    5726				 PUBLIC l0560
    5727				  align 4
    5728 2E38				l0560:
    5729 2E38  00000008			 DD 8
    5730 2E3C  75 6E 69 78 73 74	 DB 117,110,105,120,115,116,100,105,110
					,0
    5731       64 69 6E 00		
    5732				 PUBLIC l0561
    5733 2E46  87 DB			  align 4
    5734 2E48				l0561:
    5735 2E48  00000009			 DD 9
    5736 2E4C  75 6E 69 78 73 74	 DB 117,110,105,120,115,116,100,111,117
Microsoft (R) Macro Assembler Version 5.10                  11/16/97 16:56:0
                                                             Page     1-109


					,116
    5737       64 6F 75 74		
    5738 2E56  00 00			 DB 0,0
    5739				 PUBLIC l0562
    5740				  align 4
    5741 2E58				l0562:
    5742 2E58  00000009			 DD 9
    5743 2E5C  75 6E 69 78 73 74	 DB 117,110,105,120,115,116,100,101,114
					,114
    5744       64 65 72 72		
    5745 2E66  00 00			 DB 0,0
    5746				 PUBLIC l0563
    5747				  align 4
    5748 2E68				l0563:
    5749 2E68  00000007			 DD 7
    5750 2E6C  75 6E 69 78 6E 75	 DB 117,110,105,120,110,117,108,108,0,0
    5751       6C 6C 00 00		
    5752				 PUBLIC l0564
    5753 2E76  87 DB			  align 4
    5754 2E78				l0564:
    5755 2E78  00000006			 DD 6
    5756 2E7C  75 6E 69 78 65 6F	 DB 117,110,105,120,101,111,102,0
    5757       66 00			
    5758				 PUBLIC l0565
    5759				  align 4
    5760 2E84				l0565:
    5761 2E84  00000006			 DD 6
    5762 2E88  75 6E 69 78 74 74	 DB 117,110,105,120,116,116,121,0
    5763       79 00			
    5764				 PUBLIC l0566
    5765				  align 4
    5766 2E90				l0566:
    5767 2E90  00000010			 DD 16
    5768 2E94  2A 2A 2A 6D 75 73	 DB 42,42,42,109,117,115,116,45,98,101,
					45
    5769       74 2D 62 65 2D		
    5770 2E9F  6E 69 6C 2A 2A 2A	 DB 110,105,108,42,42,42,0
    5771       00			
    5772				 PUBLIC l0567
    5773 2EA6  87 DB			  align 4
    5774 2EA8				l0567:
    5775 2EA8  00000014			 DD 20
    5776 2EAC  2A 2A 2A 6D 75 73	 DB 42,42,42,109,117,115,116,45,98,101,
					45
    5777       74 2D 62 65 2D		
    5778 2EB7  6E 69 6C 2D 74 6F	 DB 110,105,108,45,116,111,111,42,42,42
					,0
    5779       6F 2A 2A 2A 00		
    5780				 PUBLIC l0568
    5781 2EC2  87 DB			  align 4
    5782 2EC4				l0568:
    5783 2EC4  00000007			 DD 7
    5784 2EC8  2A 66 61 73 74 63	 DB 42,102,97,115,116,99,97,114,0,0
    5785       61 72 00 00		
Microsoft (R) Macro Assembler Version 5.10                  11/16/97 16:56:0
                                                             Page     1-110


    5786				 PUBLIC l0569
    5787 2ED2  87 DB			  align 4
    5788 2ED4				l0569:
    5789 2ED4  00000008			 DD 8
    5790 2ED8  2A 2A 77 69 6E 64	 DB 42,42,119,105,110,100,111,119,115,0
    5791       6F 77 73 00		
    5792				 PUBLIC l0570
    5793 2EE2  87 DB			  align 4
    5794 2EE4				l0570:
    5795 2EE4  0000000D			 DD 13
    5796 2EE8  26 26 69 6E 69 74	 DB 38,38,105,110,105,116,45,116,97,98,
					108
    5797       2D 74 61 62 6C		
    5798 2EF3  65 73 31 00 00		 DB 101,115,49,0,0
    5799				 PUBLIC l0571
    5800				  align 4
    5801 2EF8				l0571:
    5802 2EF8  0000000A			 DD 10
    5803 2EFC  62 72 75 63 68 5F	 DB 98,114,117,99,104,95,98,114,117,99,
					104
    5804       62 72 75 63 68		
    5805 2F07  00			 DB 0
    5806				 PUBLIC l0572
    5807				  align 4
    5808 2F08				l0572:
    5809 2F08  00000009			 DD 9
    5810 2F0C  6E 65 78 74 73 79	 DB 110,101,120,116,115,121,109,98,111,
					108
    5811       6D 62 6F 6C		
    5812 2F16  00 00			 DB 0,0
    5813				 PUBLIC l0573
    5814				  align 4
    5815 2F18				l0573:
    5816 2F18  00000010			 DD 16
    5817 2F1C  6B 65 72 6E 65 6C	 DB 107,101,114,110,101,108,45,109,97,1
					20
    5818       2D 6D 61 78		
    5819 2F26  73 79 6D 62 6F 6C	 DB 115,121,109,98,111,108,115,0
    5820       73 00			
    5821				 PUBLIC l0574
    5822 2F2E  87 DB			  align 4
    5823 2F30				l0574:
    5824 2F30  00000005			 DD 5
    5825 2F34  73 79 6D 76 61 6C	 DB 115,121,109,118,97,108,0,0
    5826       00 00			
    5827				 PUBLIC l0575
    5828				  align 4
    5829 2F3C				l0575:
    5830 2F3C  00000009			 DD 9
    5831 2F40  6F 6C 64 5F 73 79	 DB 111,108,100,95,115,121,109,118,97,1
					08
    5832       6D 76 61 6C		
    5833 2F4A  00 00			 DB 0,0
    5834				 PUBLIC l0576
Microsoft (R) Macro Assembler Version 5.10                  11/16/97 16:56:0
                                                             Page     1-111


    5835				  align 4
    5836 2F4C				l0576:
    5837 2F4C  00000005			 DD 5
    5838 2F50  73 79 6D 66 6E 63	 DB 115,121,109,102,110,99,0,0
    5839       00 00			
    5840				 PUBLIC l0577
    5841				  align 4
    5842 2F58				l0577:
    5843 2F58  00000009			 DD 9
    5844 2F5C  6F 6C 64 5F 73 79	 DB 111,108,100,95,115,121,109,102,110,
					99
    5845       6D 66 6E 63		
    5846 2F66  00 00			 DB 0,0
    5847				 PUBLIC l0578
    5848				  align 4
    5849 2F68				l0578:
    5850 2F68  00000005			 DD 5
    5851 2F6C  73 79 6D 70 72 70	 DB 115,121,109,112,114,112,0,0
    5852       00 00			
    5853				 PUBLIC l0579
    5854				  align 4
    5855 2F74				l0579:
    5856 2F74  00000009			 DD 9
    5857 2F78  6F 6C 64 5F 73 79	 DB 111,108,100,95,115,121,109,112,114,
					112
    5858       6D 70 72 70		
    5859 2F82  00 00			 DB 0,0
    5860				 PUBLIC l0580
    5861				  align 4
    5862 2F84				l0580:
    5863 2F84  00000005			 DD 5
    5864 2F88  73 79 6D 6E 61 6D	 DB 115,121,109,110,97,109,0,0
    5865       00 00			
    5866				 PUBLIC l0581
    5867				  align 4
    5868 2F90				l0581:
    5869 2F90  00000008			 DD 8
    5870 2F94  26 26 73 79 6D 63	 DB 38,38,115,121,109,99,111,112,121,0
    5871       6F 70 79 00		
    5872				 PUBLIC l0582
    5873 2F9E  87 DB			  align 4
    5874 2FA0				l0582:
    5875 2FA0  0000000B			 DD 11
    5876 2FA4  69 6E 69 74 2D 67	 DB 105,110,105,116,45,103,99,97,114,11
					4,97
    5877       63 61 72 72 61		
    5878 2FAF  79 00 00			 DB 121,0,0
    5879				 PUBLIC l0583
    5880 2FB2  87 DB			  align 4
    5881 2FB4				l0583:
    5882 2FB4  0000000D			 DD 13
    5883 2FB8  26 26 69 6E 69 74	 DB 38,38,105,110,105,116,45,116,97,98,
					108
    5884       2D 74 61 62 6C		
Microsoft (R) Macro Assembler Version 5.10                  11/16/97 16:56:0
                                                             Page     1-112


    5885 2FC3  65 73 32 00 00		 DB 101,115,50,0,0
    5886				 PUBLIC l0584
    5887				  align 4
    5888 2FC8				l0584:
    5889 2FC8  0000000E			 DD 14
    5890 2FCC  6F 73 5F 73 74 61	 DB 111,115,95,115,116,97,114,116,117,1
					12
    5891       72 74 75 70		
    5892 2FD6  5F 68 6F 6F 6B 00	 DB 95,104,111,111,107,0
    5893				 PUBLIC l0585
    5894				  align 4
    5895 2FDC				l0585:
    5896 2FDC  0000000C			 DD 12
    5897 2FE0  26 74 69 6D 65 2D	 DB 38,116,105,109,101,45,99,111,110,11
					6,114
    5898       63 6F 6E 74 72		
    5899 2FEB  6F 6C 00			 DB 111,108,0
    5900				 PUBLIC l0586
    5901 2FEE  87 DB			  align 4
    5902 2FF0				l0586:
    5903 2FF0  00000007			 DD 7
    5904 2FF4  70 72 65 2D 6D 61	 DB 112,114,101,45,109,97,105,110,0,0
    5905       69 6E 00 00		
    5906				 PUBLIC l0587
    5907 2FFE  87 DB			  align 4
    5908 3000				l0587:
    5909 3000  0000000F			 DD 15
    5910 3004  65 78 69 74 2D 77	 DB 101,120,105,116,45,119,105,116,104,
					45
    5911       69 74 68 2D		
    5912 300E  73 74 61 74 75 73	 DB 115,116,97,116,117,115,0,0
    5913       00 00			
    5914				 PUBLIC l0588
    5915 3016  87 DB			  align 4
    5916 3018				l0588:
    5917 3018  0000000C			 DD 12
    5918 301C  65 78 74 65 72 6E	 DB 101,120,116,101,114,110,97,108,95,1
					01
    5919       61 6C 5F 65		
    5920 3026  78 69 74 00		 DB 120,105,116,0
    5921				 PUBLIC l0589
    5922 302A  87 DB			  align 4
    5923 302C				l0589:
    5924 302C  00000008			 DD 8
    5925 3030  5F 70 73 6C 5F 6D	 DB 95,112,115,108,95,109,97,105,110,0
    5926       61 69 6E 00		
    5927				 PUBLIC l0590
    5928 303A  87 DB			  align 4
    5929 303C				l0590:
    5930 303C  0000000E			 DD 14
    5931 3040  73 74 61 63 6B 6C	 DB 115,116,97,99,107,108,111,119,101,1
					14
    5932       6F 77 65 72		
    5933 304A  62 6F 75 6E 64 00	 DB 98,111,117,110,100,0
Microsoft (R) Macro Assembler Version 5.10                  11/16/97 16:56:0
                                                             Page     1-113


    5934				 PUBLIC l0591
    5935				  align 4
    5936 3050				l0591:
    5937 3050  00000003			 DD 3
    5938 3054  61 72 67 63 00 00	 DB 97,114,103,99,0,0
    5939				 PUBLIC l0592
    5940 305A  87 DB			  align 4
    5941 305C				l0592:
    5942 305C  00000003			 DD 3
    5943 3060  61 72 67 76 00 00	 DB 97,114,103,118,0,0
    5944				 PUBLIC l0593
    5945 3066  87 DB			  align 4
    5946 3068				l0593:
    5947 3068  00000008			 DD 8
    5948 306C  70 73 6C 5F 63 61	 DB 112,115,108,95,99,97,108,108,49,0
    5949       6C 6C 31 00		
    5950				 PUBLIC l0594
    5951 3076  87 DB			  align 4
    5952 3078				l0594:
    5953 3078  00000008			 DD 8
    5954 307C  5F 70 73 6C 5F 63	 DB 95,112,115,108,95,99,97,108,108,0
    5955       61 6C 6C 00		
    5956				 PUBLIC l0595
    5957 3086  87 DB			  align 4
    5958 3088				l0595:
    5959 3088  00000016			 DD 22
    5960 308C  69 6E 69 74 69 61	 DB 105,110,105,116,105,97,108,105,122,
					101
    5961       6C 69 7A 65		
    5962 3096  2D 73 79 6D 62 6F	 DB 45,115,121,109,98,111,108,45,116,97
					,98
    5963       6C 2D 74 61 62		
    5964 30A1  6C 65 00			 DB 108,101,0
    5965				 PUBLIC l0596
    5966				  align 4
    5967 30A4				l0596:
    5968 30A4  00000007			 DD 7
    5969 30A8  69 6E 69 74 63 6F	 DB 105,110,105,116,99,111,100,101,0,0
    5970       64 65 00 00		
    5971				 PUBLIC l0597
    5972 30B2  87 DB			  align 4
    5973 30B4				l0597:
    5974 30B4  00000013			 DD 19
    5975 30B8  63 6F 6E 73 6F 6C	 DB 99,111,110,115,111,108,101,45,112,1
					14
    5976       65 2D 70 72		
    5977 30C2  69 6E 74 2D 73 74	 DB 105,110,116,45,115,116,114,105,110,
					103
    5978       72 69 6E 67		
    5979 30CC  00 00			 DB 0,0
    5980				 PUBLIC l0598
    5981 30CE  87 DB			  align 4
    5982 30D0				l0598:
    5983 30D0  0000000E			 DD 14
Microsoft (R) Macro Assembler Version 5.10                  11/16/97 16:56:0
                                                             Page     1-114


    5984 30D4  63 6F 6E 73 6F 6C	 DB 99,111,110,115,111,108,101,45,110,1
					01
    5985       65 2D 6E 65		
    5986 30DE  77 6C 69 6E 65 00	 DB 119,108,105,110,101,0
    5987				 PUBLIC l0599
    5988				  align 4
    5989 30E4				l0599:
    5990 30E4  00000005			 DD 5
    5991 30E8  66 61 73 6C 69 6E	 DB 102,97,115,108,105,110,0,0
    5992       00 00			
    5993				 PUBLIC l0600
    5994				  align 4
    5995 30F0				l0600:
    5996 30F0  0000000A			 DD 10
    5997 30F4  6C 6F 61 64 65 72	 DB 108,111,97,100,101,114,45,109,97,10
					5,110
    5998       2D 6D 61 69 6E		
    5999 30FF  00			 DB 0
    6000				 PUBLIC l0601
    6001				  align 4
    6002 3100				l0601:
    6003 3100  0000000E			 DD 14
    6004 3104  65 78 74 65 72 6E	 DB 101,120,116,101,114,110,97,108,95,1
					15
    6005       61 6C 5F 73		
    6006 310E  74 72 6C 65 6E 00	 DB 116,114,108,101,110,0
    6007				 PUBLIC l0602
    6008				  align 4
    6009 3114				l0602:
    6010 3114  00000005			 DD 5
    6011 3118  20 79 69 65 6C 64	 DB 32,121,105,101,108,100,0,0
    6012       00 00			
    6013				 PUBLIC l0603
    6014				  align 4
    6015 3120				l0603:
    6016 3120  00000007			 DD 7
    6017 3124  75 6E 69 78 70 75	 DB 117,110,105,120,112,117,116,115,0,0
    6018       74 73 00 00		
    6019				 PUBLIC l0604
    6020 312E  87 DB			  align 4
    6021 3130				l0604:
    6022 3130  00000007			 DD 7
    6023 3134  75 6E 69 78 70 75	 DB 117,110,105,120,112,117,116,110,0,0
    6024       74 6E 00 00		
    6025				 PUBLIC l0605
    6026 313E  87 DB			  align 4
    6027 3140				l0605:
    6028 3140  00000013			 DD 19
    6029 3144  63 6F 6E 73 6F 6C	 DB 99,111,110,115,111,108,101,45,112,1
					14
    6030       65 2D 70 72		
    6031 314E  69 6E 74 2D 6E 75	 DB 105,110,116,45,110,117,109,98,101,1
					14
    6032       6D 62 65 72		
Microsoft (R) Macro Assembler Version 5.10                  11/16/97 16:56:0
                                                             Page     1-115


    6033 3158  00 00			 DB 0,0
    6034				 PUBLIC l0606
    6035 315A  87 DB			  align 4
    6036 315C				l0606:
    6037 315C  00000007			 DD 7
    6038 3160  75 6E 69 78 70 75	 DB 117,110,105,120,112,117,116,99,0,0
    6039       74 63 00 00		
    6040				 PUBLIC l0607
    6041 316A  87 DB			  align 4
    6042 316C				l0607:
    6043 316C  00000007			 DD 7
    6044 3170  75 6E 69 78 6F 70	 DB 117,110,105,120,111,112,101,110,0,0
    6045       65 6E 00 00		
    6046				 PUBLIC l0608
    6047 317A  87 DB			  align 4
    6048 317C				l0608:
    6049 317C  00000011			 DD 17
    6050 3180  6B 65 72 6E 65 6C	 DB 107,101,114,110,101,108,45,102,97,1
					16
    6051       2D 66 61 74		
    6052 318A  61 6C 2D 65 72 72	 DB 97,108,45,101,114,114,111,114,0,0
    6053       6F 72 00 00		
    6054				 PUBLIC l0609
    6055				  align 4
    6056 3194				l0609:
    6057 3194  0000000D			 DD 13
    6058 3198  62 69 6E 61 72 79	 DB 98,105,110,97,114,121,111,112,101,1
					10
    6059       6F 70 65 6E		
    6060 31A2  72 65 61 64 00 00	 DB 114,101,97,100,0,0
    6061				 PUBLIC l0610
    6062				  align 4
    6063 31A8				l0610:
    6064 31A8  00000003			 DD 3
    6065 31AC  67 65 74 77 00 00	 DB 103,101,116,119,0,0
    6066				 PUBLIC l0611
    6067 31B2  87 DB			  align 4
    6068 31B4				l0611:
    6069 31B4  00000009			 DD 9
    6070 31B8  62 69 6E 61 72 79	 DB 98,105,110,97,114,121,114,101,97,10
					0,0
    6071       72 65 61 64 00		
    6072 31C3  00			 DB 0
    6073				 PUBLIC l0612
    6074				  align 4
    6075 31C4				l0612:
    6076 31C4  00000004			 DD 4
    6077 31C8  66 72 65 61 64 00	 DB 102,114,101,97,100,0
    6078				 PUBLIC l0613
    6079 31CE  87 DB			  align 4
    6080 31D0				l0613:
    6081 31D0  0000000E			 DD 14
    6082 31D4  62 69 6E 61 72 79	 DB 98,105,110,97,114,121,114,101,97,10
					0,98
Microsoft (R) Macro Assembler Version 5.10                  11/16/97 16:56:0
                                                             Page     1-116


    6083       72 65 61 64 62		
    6084 31DF  6C 6F 63 6B 00		 DB 108,111,99,107,0
    6085				 PUBLIC l0614
    6086				  align 4
    6087 31E4				l0614:
    6088 31E4  00000005			 DD 5
    6089 31E8  66 63 6C 6F 73 65	 DB 102,99,108,111,115,101,0,0
    6090       00 00			
    6091				 PUBLIC l0615
    6092				  align 4
    6093 31F0				l0615:
    6094 31F0  0000000A			 DD 10
    6095 31F4  62 69 6E 61 72 79	 DB 98,105,110,97,114,121,99,108,111,11
					5,101
    6096       63 6C 6F 73 65		
    6097 31FF  00			 DB 0
    6098				 PUBLIC l0616
    6099				  align 4
    6100 3200				l0616:
    6101 3200  0000000E			 DD 14
    6102 3204  68 61 73 68 2D 69	 DB 104,97,115,104,45,105,110,116,111,4
					5,116
    6103       6E 74 6F 2D 74		
    6104 320F  61 62 6C 65 00		 DB 97,98,108,101,0
    6105				 PUBLIC l0617
    6106				  align 4
    6107 3214				l0617:
    6108 3214  0000000B			 DD 11
    6109 3218  73 68 6F 77 2D 6E	 DB 115,104,111,119,45,110,101,119,45,1
					05
    6110       65 77 2D 69		
    6111 3222  64 73 00 00		 DB 100,115,0,0
    6112				 PUBLIC l0618
    6113 3226  87 DB			  align 4
    6114 3228				l0618:
    6115 3228  0000001A			 DD 26
    6116 322C  73 65 61 72 63 68	 DB 115,101,97,114,99,104,45,115,116,11
					4,105
    6117       2D 73 74 72 69		
    6118 3237  6E 67 2D 66 6F 72	 DB 110,103,45,102,111,114,45,99,104,97
					,114
    6119       2D 63 68 61 72		
    6120 3242  61 63 74 65 72 00	 DB 97,99,116,101,114,0
    6121				 PUBLIC l0619
    6122				  align 4
    6123 3248				l0619:
    6124 3248  00000005			 DD 5
    6125 324C  69 6E 74 65 72 6E	 DB 105,110,116,101,114,110,0,0
    6126       00 00			
    6127				 PUBLIC l0620
    6128				  align 4
    6129 3254				l0620:
    6130 3254  00000005			 DD 5
    6131 3258  73 75 62 73 65 71	 DB 115,117,98,115,101,113,0,0
Microsoft (R) Macro Assembler Version 5.10                  11/16/97 16:56:0
                                                             Page     1-117


    6132       00 00			
    6133				 PUBLIC l0621
    6134				  align 4
    6135 3260				l0621:
    6136 3260  0000000C			 DD 12
    6137 3264  66 61 73 6C 69 6E	 DB 102,97,115,108,105,110,45,105,110,1
					16
    6138       2D 69 6E 74		
    6139 326E  65 72 6E 00		 DB 101,114,110,0
    6140				 PUBLIC l0622
    6141 3272  87 DB			  align 4
    6142 3274				l0622:
    6143 3274  00000016			 DD 22
    6144 3278  75 6E 63 68 65 63	 DB 117,110,99,104,101,99,107,101,100,4
					5,115
    6145       6B 65 64 2D 73		
    6146 3283  74 72 69 6E 67 2D	 DB 116,114,105,110,103,45,105,110,116,
					101
    6147       69 6E 74 65		
    6148 328D  72 6E 00			 DB 114,110,0
    6149				 PUBLIC l0623
    6150				  align 4
    6151 3290				l0623:
    6152 3290  00000003			 DD 3
    6153 3294  67 74 69 64 00 00	 DB 103,116,105,100,0,0
    6154				 PUBLIC l0624
    6155 329A  87 DB			  align 4
    6156 329C				l0624:
    6157 329C  00000009			 DD 9
    6158 32A0  67 74 63 6F 6E 73	 DB 103,116,99,111,110,115,116,115,116,
					114
    6159       74 73 74 72		
    6160 32AA  00 00			 DB 0,0
    6161				 PUBLIC l0625
    6162				  align 4
    6163 32AC				l0625:
    6164 32AC  0000000F			 DD 15
    6165 32B0  63 6F 70 79 73 74	 DB 99,111,112,121,115,116,114,105,110,
					103
    6166       72 69 6E 67		
    6167 32BA  74 6F 66 72 6F 6D	 DB 116,111,102,114,111,109,0,0
    6168       00 00			
    6169				 PUBLIC l0626
    6170 32C2  87 DB			  align 4
    6171 32C4				l0626:
    6172 32C4  00000010			 DD 16
    6173 32C8  69 6E 69 74 69 61	 DB 105,110,105,116,105,97,108,105,122,
					101
    6174       6C 69 7A 65		
    6175 32D2  2D 6E 65 77 2D 69	 DB 45,110,101,119,45,105,100,0
    6176       64 00			
    6177				 PUBLIC l0627
    6178 32DA  87 DB			  align 4
    6179 32DC				l0627:
Microsoft (R) Macro Assembler Version 5.10                  11/16/97 16:56:0
                                                             Page     1-118


    6180 32DC  0000000C			 DD 12
    6181 32E0  68 61 73 68 2D 66	 DB 104,97,115,104,45,102,117,110,99,11
					6,105
    6182       75 6E 63 74 69		
    6183 32EB  6F 6E 00			 DB 111,110,0
    6184				 PUBLIC l0628
    6185 32EE  87 DB			  align 4
    6186 32F0				l0628:
    6187 32F0  00000015			 DD 21
    6188 32F4  75 6E 63 68 65 63	 DB 117,110,99,104,101,99,107,101,100,4
					5,115
    6189       6B 65 64 2D 73		
    6190 32FF  74 72 69 6E 67 2D	 DB 116,114,105,110,103,45,101,113,117,
					97
    6191       65 71 75 61		
    6192 3309  6C 00 00			 DB 108,0,0
    6193				 PUBLIC l0629
    6194				  align 4
    6195 330C				l0629:
    6196 330C  0000000B			 DD 11
    6197 3310  70 6C 61 6E 74 75	 DB 112,108,97,110,116,117,110,98,111,1
					17
    6198       6E 62 6F 75		
    6199 331A  6E 64 00 00		 DB 110,100,0,0
    6200				 PUBLIC l0630
    6201 331E  87 DB			  align 4
    6202 3320				l0630:
    6203 3320  0000000E			 DD 14
    6204 3324  66 61 73 6C 69 6E	 DB 102,97,115,108,105,110,45,98,97,100
					,45
    6205       2D 62 61 64 2D		
    6206 332F  66 69 6C 65 00		 DB 102,105,108,101,0
    6207				 PUBLIC l0631
    6208				  align 4
    6209 3334				l0631:
    6210 3334  0000000C			 DD 12
    6211 3338  72 65 61 64 2D 69	 DB 114,101,97,100,45,105,100,45,116,97
					,98
    6212       64 2D 74 61 62		
    6213 3343  6C 65 00			 DB 108,101,0
    6214				 PUBLIC l0632
    6215 3346  87 DB			  align 4
    6216 3348				l0632:
    6217 3348  00000004			 DD 4
    6218 334C  67 74 62 70 73 00	 DB 103,116,98,112,115,0
    6219				 PUBLIC l0633
    6220 3352  87 DB			  align 4
    6221 3354				l0633:
    6222 3354  00000005			 DD 5
    6223 3358  67 74 77 72 64 73	 DB 103,116,119,114,100,115,0,0
    6224       00 00			
    6225				 PUBLIC l0634
    6226				  align 4
    6227 3360				l0634:
Microsoft (R) Macro Assembler Version 5.10                  11/16/97 16:56:0
                                                             Page     1-119


    6228 3360  00000010			 DD 16
    6229 3364  64 6F 2D 72 65 6C	 DB 100,111,45,114,101,108,111,99,97,11
					6,105
    6230       6F 63 61 74 69		
    6231 336F  6F 6E 2D 6E 65 77	 DB 111,110,45,110,101,119,0
    6232       00			
    6233				 PUBLIC l0635
    6234 3376  87 DB			  align 4
    6235 3378				l0635:
    6236 3378  0000000C			 DD 12
    6237 337C  64 6F 2D 72 65 6C	 DB 100,111,45,114,101,108,111,99,97,11
					6,105
    6238       6F 63 61 74 69		
    6239 3387  6F 6E 00			 DB 111,110,0
    6240				 PUBLIC l0636
    6241 338A  87 DB			  align 4
    6242 338C				l0636:
    6243 338C  0000000C			 DD 12
    6244 3390  61 64 64 72 65 73	 DB 97,100,100,114,101,115,115,97,112,1
					12
    6245       73 61 70 70		
    6246 339A  6C 79 30 00		 DB 108,121,48,0
    6247				 PUBLIC l0637
    6248 339E  87 DB			  align 4
    6249 33A0				l0637:
    6250 33A0  00000005			 DD 5
    6251 33A4  64 65 6C 62 70 73	 DB 100,101,108,98,112,115,0,0
    6252       00 00			
    6253				 PUBLIC l0638
    6254				  align 4
    6255 33AC				l0638:
    6256 33AC  0000000D			 DD 13
    6257 33B0  63 6F 64 65 2D 62	 DB 99,111,100,101,45,98,97,115,101,45,
					104
    6258       61 73 65 2D 68		
    6259 33BB  61 63 6B 00 00		 DB 97,99,107,0,0
    6260				 PUBLIC l0639
    6261				  align 4
    6262 33C0				l0639:
    6263 33C0  0000000C			 DD 12
    6264 33C4  72 65 6C 6F 63 61	 DB 114,101,108,111,99,97,116,101,45,11
					9,111
    6265       74 65 2D 77 6F		
    6266 33CF  72 64 00			 DB 114,100,0
    6267				 PUBLIC l0640
    6268 33D2  87 DB			  align 4
    6269 33D4				l0640:
    6270 33D4  0000000B			 DD 11
    6271 33D8  72 65 6C 6F 63 61	 DB 114,101,108,111,99,97,116,101,45,10
					5,110
    6272       74 65 2D 69 6E		
    6273 33E3  66 00 00			 DB 102,0,0
    6274				 PUBLIC l0641
    6275 33E6  87 DB			  align 4
Microsoft (R) Macro Assembler Version 5.10                  11/16/97 16:56:0
                                                             Page     1-120


    6276 33E8				l0641:
    6277 33E8  00000012			 DD 18
    6278 33EC  72 65 6C 6F 63 61	 DB 114,101,108,111,99,97,116,101,45,11
					4,105
    6279       74 65 2D 72 69		
    6280 33F7  67 68 74 2D 68 61	 DB 103,104,116,45,104,97,108,102,0
    6281       6C 66 00			
    6282				 PUBLIC l0642
    6283				  align 4
    6284 3400				l0642:
    6285 3400  00000011			 DD 17
    6286 3404  63 6F 6D 70 75 74	 DB 99,111,109,112,117,116,101,45,114,1
					01
    6287       65 2D 72 65		
    6288 340E  6C 6F 63 61 74 69	 DB 108,111,99,97,116,105,111,110,0,0
    6289       6F 6E 00 00		
    6290				 PUBLIC l0643
    6291				  align 4
    6292 3418				l0643:
    6293 3418  00000011			 DD 17
    6294 341C  6C 6F 63 61 6C 2D	 DB 108,111,99,97,108,45,116,111,45,103
					,108
    6295       74 6F 2D 67 6C		
    6296 3427  6F 62 61 6C 2D 69	 DB 111,98,97,108,45,105,100,0,0
    6297       64 00 00			
    6298				 PUBLIC l0644
    6299				  align 4
    6300 3430				l0644:
    6301 3430  00000011			 DD 17
    6302 3434  72 65 6C 6F 63 61	 DB 114,101,108,111,99,97,116,101,45,10
					2,97
    6303       74 65 2D 66 61		
    6304 343F  73 74 2D 63 61 6C	 DB 115,116,45,99,97,108,108,0,0
    6305       6C 00 00			
    6306				 PUBLIC l0645
    6307				  align 4
    6308 3448				l0645:
    6309 3448  00000003			 DD 3
    6310 344C  70 75 74 64 00 00	 DB 112,117,116,100,0,0
    6311				 PUBLIC l0646
    6312 3452  87 DB			  align 4
    6313 3454				l0646:
    6314 3454  00000007			 DD 7
    6315 3458  70 75 74 65 6E 74	 DB 112,117,116,101,110,116,114,121,0,0
    6316       72 79 00 00		
    6317				 PUBLIC l0647
    6318 3462  87 DB			  align 4
    6319 3464				l0647:
    6320 3464  0000000E			 DD 14
    6321 3468  67 74 62 70 73 2D	 DB 103,116,98,112,115,45,110,105,108,4
					5,101
    6322       6E 69 6C 2D 65		
    6323 3473  72 72 6F 72 00		 DB 114,114,111,114,0
    6324				 PUBLIC l0648
Microsoft (R) Macro Assembler Version 5.10                  11/16/97 16:56:0
                                                             Page     1-121


    6325				  align 4
    6326 3478				l0648:
    6327 3478  00000013			 DD 19
    6328 347C  74 72 79 2D 6F 74	 DB 116,114,121,45,111,116,104,101,114,
					45
    6329       68 65 72 2D		
    6330 3486  62 70 73 2D 73 70	 DB 98,112,115,45,115,112,97,99,101,115
					,0
    6331       61 63 65 73 00		
    6332 3491  00			 DB 0
    6333				 PUBLIC l0649
    6334 3492  87 DB			  align 4
    6335 3494				l0649:
    6336 3494  00000003			 DD 3
    6337 3498  67 65 74 64 00 00	 DB 103,101,116,100,0,0
    6338				 PUBLIC l0650
    6339 349E  87 DB			  align 4
    6340 34A0				l0650:
    6341 34A0  00000007			 DD 7
    6342 34A4  73 74 64 65 72 72	 DB 115,116,100,101,114,114,111,114,0,0
    6343       6F 72 00 00		
    6344				 PUBLIC l0651
    6345 34AE  87 DB			  align 4
    6346 34B0				l0651:
    6347 34B0  0000000F			 DD 15
    6348 34B4  6B 6E 6F 77 6E 2D	 DB 107,110,111,119,110,45,102,114,101,
					101
    6349       66 72 65 65		
    6350 34BE  2D 73 70 61 63 65	 DB 45,115,112,97,99,101,0,0
    6351       00 00			
    6352				 PUBLIC l0652
    6353 34C6  87 DB			  align 4
    6354 34C8				l0652:
    6355 34C8  0000000A			 DD 10
    6356 34CC  72 65 61 6C 2D 67	 DB 114,101,97,108,45,103,116,104,101,9
					7,112
    6357       74 68 65 61 70		
    6358 34D7  00			 DB 0
    6359				 PUBLIC l0653
    6360				  align 4
    6361 34D8				l0653:
    6362 34D8  00000005			 DD 5
    6363 34DC  67 74 68 65 61 70	 DB 103,116,104,101,97,112,0,0
    6364       00 00			
    6365				 PUBLIC l0654
    6366				  align 4
    6367 34E4				l0654:
    6368 34E4  0000000C			 DD 12
    6369 34E8  67 65 74 2D 68 65	 DB 103,101,116,45,104,101,97,112,45,11
					6,114
    6370       61 70 2D 74 72		
    6371 34F3  61 70 00			 DB 97,112,0
    6372				 PUBLIC l0655
    6373 34F6  87 DB			  align 4
Microsoft (R) Macro Assembler Version 5.10                  11/16/97 16:56:0
                                                             Page     1-122


    6374 34F8				l0655:
    6375 34F8  00000006			 DD 6
    6376 34FC  72 65 63 6C 61 69	 DB 114,101,99,108,97,105,109,0
    6377       6D 00			
    6378				 PUBLIC l0656
    6379				  align 4
    6380 3504				l0656:
    6381 3504  00000004			 DD 4
    6382 3508  67 74 73 74 72 00	 DB 103,116,115,116,114,0
    6383				 PUBLIC l0657
    6384 350E  87 DB			  align 4
    6385 3510				l0657:
    6386 3510  00000003			 DD 3
    6387 3514  63 6F 6E 73 00 00	 DB 99,111,110,115,0,0
    6388				 PUBLIC l0658
    6389 351A  87 DB			  align 4
    6390 351C				l0658:
    6391 351C  0000000A			 DD 10
    6392 3520  69 6E 74 65 72 72	 DB 105,110,116,101,114,114,111,103,97,
					116
    6393       6F 67 61 74		
    6394 352A  65 00			 DB 101,0
    6395				 PUBLIC l0659
    6396				  align 4
    6397 352C				l0659:
    6398 352C  00000005			 DD 5
    6399 3530  6D 6F 64 69 66 79	 DB 109,111,100,105,102,121,0,0
    6400       00 00			
    6401				 PUBLIC l0660
    6402				  align 4
    6403 3538				l0660:
    6404 3538  0000000C			 DD 12
    6405 353C  75 6E 63 68 65 63	 DB 117,110,99,104,101,99,107,101,100,4
					5,112
    6406       6B 65 64 2D 70		
    6407 3547  75 74 00			 DB 117,116,0
    6408				 PUBLIC l0661
    6409 354A  87 DB			  align 4
    6410 354C				l0661:
    6411 354C  00000002			 DD 2
    6412 3550  70 75 74 00		 DB 112,117,116,0
    6413				 PUBLIC l0662
    6414				  align 4
    6415 3554				l0662:
    6416 3554  0000000D			 DD 13
    6417 3558  75 6E 63 68 65 63	 DB 117,110,99,104,101,99,107,101,100,4
					5,112
    6418       6B 65 64 2D 70		
    6419 3563  72 6F 70 00 00		 DB 114,111,112,0,0
    6420				 PUBLIC l0663
    6421				  align 4
    6422 3568				l0663:
    6423 3568  00000004			 DD 4
    6424 356C  61 74 73 6F 63 00	 DB 97,116,115,111,99,0
Microsoft (R) Macro Assembler Version 5.10                  11/16/97 16:56:0
                                                             Page     1-123


    6425				 PUBLIC l0664
    6426 3572  87 DB			  align 4
    6427 3574				l0664:
    6428 3574  00000010			 DD 16
    6429 3578  75 6E 63 68 65 63	 DB 117,110,99,104,101,99,107,101,100,4
					5,115
    6430       6B 65 64 2D 73		
    6431 3583  65 74 70 72 6F 70	 DB 101,116,112,114,111,112,0
    6432       00			
    6433				 PUBLIC l0665
    6434 358A  87 DB			  align 4
    6435 358C				l0665:
    6436 358C  00000008			 DD 8
    6437 3590  63 6F 64 65 2D 70	 DB 99,111,100,101,45,112,117,116,100,0
    6438       75 74 64 00		
    6439				 PUBLIC l0666
    6440 359A  87 DB			  align 4
    6441 359C				l0666:
    6442 359C  0000000F			 DD 15
    6443 35A0  70 6C 61 6E 74 63	 DB 112,108,97,110,116,99,111,100,101,1
					12
    6444       6F 64 65 70		
    6445 35AA  6F 69 6E 74 65 72	 DB 111,105,110,116,101,114,0,0
    6446       00 00			
    6447				 PUBLIC l0667
    6448 35B2  87 DB			  align 4
    6449 35B4				l0667:
    6450 35B4  00000003			 DD 3
    6451 35B8  65 78 70 72 00 00	 DB 101,120,112,114,0,0
    6452				 PUBLIC l0668
    6453 35BE  87 DB			  align 4
    6454 35C0				l0668:
    6455 35C0  00000003			 DD 3
    6456 35C4  74 79 70 65 00 00	 DB 116,121,112,101,0,0
    6457				 PUBLIC l0669
    6458 35CA  87 DB			  align 4
    6459 35CC				l0669:
    6460 35CC  00000005			 DD 5
    6461 35D0  66 6C 75 69 64 31	 DB 102,108,117,105,100,49,0,0
    6462       00 00			
    6463				 PUBLIC l0670
    6464				  align 4
    6465 35D8				l0670:
    6466 35D8  00000004			 DD 4
    6467 35DC  66 6C 75 69 64 00	 DB 102,108,117,105,100,0
    6468				 PUBLIC l0671
    6469 35E2  87 DB			  align 4
    6470 35E4				l0671:
    6471 35E4  00000006			 DD 6
    6472 35E8  76 61 72 74 79 70	 DB 118,97,114,116,121,112,101,0
    6473       65 00			
    6474				 PUBLIC l0672
    6475				  align 4
    6476 35F0				l0672:
Microsoft (R) Macro Assembler Version 5.10                  11/16/97 16:56:0
                                                             Page     1-124


    6477 35F0  00000008			 DD 8
    6478 35F4  63 6F 6E 73 74 61	 DB 99,111,110,115,116,97,110,116,63,0
    6479       6E 74 3F 00		
    6480				 PUBLIC l0673
    6481 35FE  87 DB			  align 4
    6482 3600				l0673:
    6483 3600  0000000F			 DD 15
    6484 3604  2A 64 65 66 69 6E	 DB 42,100,101,102,105,110,101,45,99,11
					1,110
    6485       65 2D 63 6F 6E		
    6486 360F  73 74 61 6E 74 00	 DB 115,116,97,110,116,0,0
    6487       00			
    6488				 PUBLIC l0674
    6489 3616  87 DB			  align 4
    6490 3618				l0674:
    6491 3618  00000011			 DD 17
    6492 361C  74 65 72 6D 69 6E	 DB 116,101,114,109,105,110,97,108,45,1
					05
    6493       61 6C 2D 69		
    6494 3626  6E 74 65 72 72 75	 DB 110,116,101,114,114,117,112,116,0,0
    6495       70 74 00 00		
    6496				 PUBLIC l0675
    6497				  align 4
    6498 3630				l0675:
    6499 3630  00000006			 DD 6
    6500 3634  77 68 61 74 73 75	 DB 119,104,97,116,115,117,112,0
    6501       70 00			
    6502				 PUBLIC l0676
    6503				  align 4
    6504 363C				l0676:
    6505 363C  00000005			 DD 5
    6506 3640  67 65 74 70 69 64	 DB 103,101,116,112,105,100,0,0
    6507       00 00			
    6508				 PUBLIC l0677
    6509				  align 4
    6510 3648				l0677:
    6511 3648  00000005			 DD 5
    6512 364C  65 63 68 6F 6F 6E	 DB 101,99,104,111,111,110,0,0
    6513       00 00			
    6514				 PUBLIC l0678
    6515				  align 4
    6516 3654				l0678:
    6517 3654  00000006			 DD 6
    6518 3658  65 63 68 6F 6F 66	 DB 101,99,104,111,111,102,102,0
    6519       66 00			
    6520				 PUBLIC l0679
    6521				  align 4
    6522 3660				l0679:
    6523 3660  0000001A			 DD 26
    6524 3664  65 78 74 65 72 6E	 DB 101,120,116,101,114,110,97,108,95,9
					9,104
    6525       61 6C 5F 63 68		
    6526 366F  61 72 73 69 6E 69	 DB 97,114,115,105,110,105,110,112,117,
					116
Microsoft (R) Macro Assembler Version 5.10                  11/16/97 16:56:0
                                                             Page     1-125


    6527       6E 70 75 74		
    6528 3679  62 75 66 66 65 72	 DB 98,117,102,102,101,114,0
    6529       00			
    6530				 PUBLIC l0680
    6531				  align 4
    6532 3680				l0680:
    6533 3680  00000013			 DD 19
    6534 3684  66 6C 75 73 68 73	 DB 102,108,117,115,104,115,116,100,111
					,117
    6535       74 64 6F 75		
    6536 368E  74 70 75 74 62 75	 DB 116,112,117,116,98,117,102,102,101,
					114
    6537       66 66 65 72		
    6538 3698  00 00			 DB 0,0
    6539				 PUBLIC l0681
    6540 369A  87 DB			  align 4
    6541 369C				l0681:
    6542 369C  0000001B			 DD 27
    6543 36A0  65 78 74 65 72 6E	 DB 101,120,116,101,114,110,97,108,95,1
					17
    6544       61 6C 5F 75		
    6545 36AA  73 65 72 5F 68 6F	 DB 115,101,114,95,104,111,109,101,100,
					105
    6546       6D 65 64 69		
    6547 36B4  72 5F 73 74 72 69	 DB 114,95,115,116,114,105,110,103,0,0
    6548       6E 67 00 00		
    6549				 PUBLIC l0682
    6550 36BE  87 DB			  align 4
    6551 36C0				l0682:
    6552 36C0  0000000C			 DD 12
    6553 36C4  61 6C 74 65 72 68	 DB 97,108,116,101,114,104,101,97,112,1
					15
    6554       65 61 70 73		
    6555 36CE  69 7A 65 00		 DB 105,122,101,0
    6556				 PUBLIC l0683
    6557 36D2  87 DB			  align 4
    6558 36D4				l0683:
    6559 36D4  0000000E			 DD 14
    6560 36D8  61 6C 6C 6F 63 61	 DB 97,108,108,111,99,97,116,101,109,11
					1,114
    6561       74 65 6D 6F 72		
    6562 36E3  65 62 70 73 00		 DB 101,98,112,115,0
    6563				 PUBLIC l0684
    6564				  align 4
    6565 36E8				l0684:
    6566 36E8  0000000E			 DD 14
    6567 36EC  67 65 74 5F 66 69	 DB 103,101,116,95,102,105,108,101,95,1
					15
    6568       6C 65 5F 73		
    6569 36F6  74 61 74 75 73 00	 DB 116,97,116,117,115,0
    6570				 PUBLIC l0685
    6571				  align 4
    6572 36FC				l0685:
    6573 36FC  0000000E			 DD 14
Microsoft (R) Macro Assembler Version 5.10                  11/16/97 16:56:0
                                                             Page     1-126


    6574 3700  6F 73 5F 63 6C 65	 DB 111,115,95,99,108,101,97,110,117,11
					2,95
    6575       61 6E 75 70 5F		
    6576 370B  68 6F 6F 6B 00		 DB 104,111,111,107,0
    6577				 PUBLIC l0686
    6578				  align 4
    6579 3710				l0686:
    6580 3710  0000000D			 DD 13
    6581 3714  65 78 74 65 72 6E	 DB 101,120,116,101,114,110,97,108,95,9
					7,108
    6582       61 6C 5F 61 6C		
    6583 371F  61 72 6D 00 00		 DB 97,114,109,0,0
    6584				 PUBLIC l0687
    6585				  align 4
    6586 3724				l0687:
    6587 3724  0000000E			 DD 14
    6588 3728  65 78 74 65 72 6E	 DB 101,120,116,101,114,110,97,108,95,1
					17
    6589       61 6C 5F 75		
    6590 3732  61 6C 61 72 6D 00	 DB 97,108,97,114,109,0
    6591				 PUBLIC l0688
    6592				  align 4
    6593 3738				l0688:
    6594 3738  0000000C			 DD 12
    6595 373C  65 78 74 65 72 6E	 DB 101,120,116,101,114,110,97,108,95,1
					16
    6596       61 6C 5F 74		
    6597 3746  69 6D 65 00		 DB 105,109,101,0
    6598				 PUBLIC l0689
    6599 374A  87 DB			  align 4
    6600 374C				l0689:
    6601 374C  0000000C			 DD 12
    6602 3750  65 78 74 65 72 6E	 DB 101,120,116,101,114,110,97,108,95,1
					16
    6603       61 6C 5F 74		
    6604 375A  69 6D 63 00		 DB 105,109,99,0
    6605				 PUBLIC l0690
    6606 375E  87 DB			  align 4
    6607 3760				l0690:
    6608 3760  0000000C			 DD 12
    6609 3764  65 78 74 65 72 6E	 DB 101,120,116,101,114,110,97,108,95,1
					15
    6610       61 6C 5F 73		
    6611 376E  74 61 74 00		 DB 116,97,116,0
    6612				 PUBLIC l0691
    6613 3772  87 DB			  align 4
    6614 3774				l0691:
    6615 3774  0000000C			 DD 12
    6616 3778  65 78 74 65 72 6E	 DB 101,120,116,101,114,110,97,108,95,1
					08
    6617       61 6C 5F 6C		
    6618 3782  69 6E 6B 00		 DB 105,110,107,0
    6619				 PUBLIC l0692
    6620 3786  87 DB			  align 4
Microsoft (R) Macro Assembler Version 5.10                  11/16/97 16:56:0
                                                             Page     1-127


    6621 3788				l0692:
    6622 3788  0000000E			 DD 14
    6623 378C  65 78 74 65 72 6E	 DB 101,120,116,101,114,110,97,108,95,1
					17
    6624       61 6C 5F 75		
    6625 3796  6E 6C 69 6E 6B 00	 DB 110,108,105,110,107,0
    6626				 PUBLIC l0693
    6627				  align 4
    6628 379C				l0693:
    6629 379C  0000000E			 DD 14
    6630 37A0  65 78 74 65 72 6E	 DB 101,120,116,101,114,110,97,108,95,1
					15
    6631       61 6C 5F 73		
    6632 37AA  65 74 65 6E 76 00	 DB 101,116,101,110,118,0
    6633				 PUBLIC l0694
    6634				  align 4
    6635 37B0				l0694:
    6636 37B0  0000000E			 DD 14
    6637 37B4  65 78 74 65 72 6E	 DB 101,120,116,101,114,110,97,108,95,1
					03
    6638       61 6C 5F 67		
    6639 37BE  65 74 65 6E 76 00	 DB 101,116,101,110,118,0
    6640				 PUBLIC l0695
    6641				  align 4
    6642 37C4				l0695:
    6643 37C4  00000006			 DD 6
    6644 37C8  75 78 66 6C 6F 61	 DB 117,120,102,108,111,97,116,0
    6645       74 00			
    6646				 PUBLIC l0696
    6647				  align 4
    6648 37D0				l0696:
    6649 37D0  00000004			 DD 4
    6650 37D4  75 78 66 69 78 00	 DB 117,120,102,105,120,0
    6651				 PUBLIC l0697
    6652 37DA  87 DB			  align 4
    6653 37DC				l0697:
    6654 37DC  00000007			 DD 7
    6655 37E0  75 78 61 73 73 69	 DB 117,120,97,115,115,105,103,110,0,0
    6656       67 6E 00 00		
    6657				 PUBLIC l0698
    6658 37EA  87 DB			  align 4
    6659 37EC				l0698:
    6660 37EC  00000006			 DD 6
    6661 37F0  75 78 70 6C 75 73	 DB 117,120,112,108,117,115,50,0
    6662       32 00			
    6663				 PUBLIC l0699
    6664				  align 4
    6665 37F8				l0699:
    6666 37F8  0000000B			 DD 11
    6667 37FC  75 78 64 69 66 66	 DB 117,120,100,105,102,102,101,114,101
					,110
    6668       65 72 65 6E		
    6669 3806  63 65 00 00		 DB 99,101,0,0
    6670				 PUBLIC l0700
Microsoft (R) Macro Assembler Version 5.10                  11/16/97 16:56:0
                                                             Page     1-128


    6671 380A  87 DB			  align 4
    6672 380C				l0700:
    6673 380C  00000007			 DD 7
    6674 3810  75 78 74 69 6D 65	 DB 117,120,116,105,109,101,115,50,0,0
    6675       73 32 00 00		
    6676				 PUBLIC l0701
    6677 381A  87 DB			  align 4
    6678 381C				l0701:
    6679 381C  00000009			 DD 9
    6680 3820  75 78 71 75 6F 74	 DB 117,120,113,117,111,116,105,101,110
					,116
    6681       69 65 6E 74		
    6682 382A  00 00			 DB 0,0
    6683				 PUBLIC l0702
    6684				  align 4
    6685 382C				l0702:
    6686 382C  00000009			 DD 9
    6687 3830  75 78 67 72 65 61	 DB 117,120,103,114,101,97,116,101,114,
					112
    6688       74 65 72 70		
    6689 383A  00 00			 DB 0,0
    6690				 PUBLIC l0703
    6691				  align 4
    6692 383C				l0703:
    6693 383C  00000006			 DD 6
    6694 3840  75 78 6C 65 73 73	 DB 117,120,108,101,115,115,112,0
    6695       70 00			
    6696				 PUBLIC l0704
    6697				  align 4
    6698 3848				l0704:
    6699 3848  0000000B			 DD 11
    6700 384C  75 78 77 72 69 74	 DB 117,120,119,114,105,116,101,102,108
					,111
    6701       65 66 6C 6F		
    6702 3856  61 74 00 00		 DB 97,116,0,0
    6703				 PUBLIC l0705
    6704 385A  87 DB			  align 4
    6705 385C				l0705:
    6706 385C  0000000E			 DD 14
    6707 3860  75 78 64 6F 75 62	 DB 117,120,100,111,117,98,108,101,116,
					111
    6708       6C 65 74 6F		
    6709 386A  66 6C 6F 61 74 00	 DB 102,108,111,97,116,0
    6710				 PUBLIC l0706
    6711				  align 4
    6712 3870				l0706:
    6713 3870  0000000E			 DD 14
    6714 3874  75 78 66 6C 6F 61	 DB 117,120,102,108,111,97,116,116,111,
					100
    6715       74 74 6F 64		
    6716 387E  6F 75 62 6C 65 00	 DB 111,117,98,108,101,0
    6717				 PUBLIC l0707
    6718				  align 4
    6719 3884				l0707:
Microsoft (R) Macro Assembler Version 5.10                  11/16/97 16:56:0
                                                             Page     1-129


    6720 3884  00000004			 DD 4
    6721 3888  75 78 73 69 6E 00	 DB 117,120,115,105,110,0
    6722				 PUBLIC l0708
    6723 388E  87 DB			  align 4
    6724 3890				l0708:
    6725 3890  00000004			 DD 4
    6726 3894  75 78 63 6F 73 00	 DB 117,120,99,111,115,0
    6727				 PUBLIC l0709
    6728 389A  87 DB			  align 4
    6729 389C				l0709:
    6730 389C  00000004			 DD 4
    6731 38A0  75 78 74 61 6E 00	 DB 117,120,116,97,110,0
    6732				 PUBLIC l0710
    6733 38A6  87 DB			  align 4
    6734 38A8				l0710:
    6735 38A8  00000005			 DD 5
    6736 38AC  75 78 61 73 69 6E	 DB 117,120,97,115,105,110,0,0
    6737       00 00			
    6738				 PUBLIC l0711
    6739				  align 4
    6740 38B4				l0711:
    6741 38B4  00000005			 DD 5
    6742 38B8  75 78 61 63 6F 73	 DB 117,120,97,99,111,115,0,0
    6743       00 00			
    6744				 PUBLIC l0712
    6745				  align 4
    6746 38C0				l0712:
    6747 38C0  00000005			 DD 5
    6748 38C4  75 78 61 74 61 6E	 DB 117,120,97,116,97,110,0,0
    6749       00 00			
    6750				 PUBLIC l0713
    6751				  align 4
    6752 38CC				l0713:
    6753 38CC  00000005			 DD 5
    6754 38D0  75 78 73 71 72 74	 DB 117,120,115,113,114,116,0,0
    6755       00 00			
    6756				 PUBLIC l0714
    6757				  align 4
    6758 38D8				l0714:
    6759 38D8  00000004			 DD 4
    6760 38DC  75 78 65 78 70 00	 DB 117,120,101,120,112,0
    6761				 PUBLIC l0715
    6762 38E2  87 DB			  align 4
    6763 38E4				l0715:
    6764 38E4  00000004			 DD 4
    6765 38E8  75 78 6C 6F 67 00	 DB 117,120,108,111,103,0
    6766				 PUBLIC l0716
    6767 38EE  87 DB			  align 4
    6768 38F0				l0716:
    6769 38F0  00000006			 DD 6
    6770 38F4  75 78 61 74 61 6E	 DB 117,120,97,116,97,110,50,0
    6771       32 00			
    6772				 PUBLIC l0717
    6773				  align 4
Microsoft (R) Macro Assembler Version 5.10                  11/16/97 16:56:0
                                                             Page     1-130


    6774 38FC				l0717:
    6775 38FC  0000000B			 DD 11
    6776 3900  65 78 74 65 72 6E	 DB 101,120,116,101,114,110,97,108,95,1
					12
    6777       61 6C 5F 70		
    6778 390A  77 64 00 00		 DB 119,100,0,0
    6779				 PUBLIC l0718
    6780 390E  87 DB			  align 4
    6781 3910				l0718:
    6782 3910  0000000A			 DD 10
    6783 3914  73 75 6E 33 5F 73	 DB 115,117,110,51,95,115,105,103,115,1
					01
    6784       69 67 73 65		
    6785 391E  74 00			 DB 116,0
    6786				 PUBLIC l0719
    6787				  align 4
    6788 3920				l0719:
    6789 3920  00000007			 DD 7
    6790 3924  73 69 67 72 65 6C	 DB 115,105,103,114,101,108,115,101,0,0
    6791       73 65 00 00		
    6792				 PUBLIC l0720
    6793 392E  87 DB			  align 4
    6794 3930				l0720:
    6795 3930  00000005			 DD 5
    6796 3934  75 6E 65 78 65 63	 DB 117,110,101,120,101,99,0,0
    6797       00 00			
    6798				 PUBLIC l0721
    6799				  align 4
    6800 393C				l0721:
    6801 393C  0000000A			 DD 10
    6802 3940  75 6E 69 78 63 6C	 DB 117,110,105,120,99,108,101,97,114,1
					05
    6803       65 61 72 69		
    6804 394A  6F 00			 DB 111,0
    6805				 PUBLIC l0722
    6806				  align 4
    6807 394C				l0722:
    6808 394C  0000000F			 DD 15
    6809 3950  65 78 70 61 6E 64	 DB 101,120,112,97,110,100,95,102,105,1
					08
    6810       5F 66 69 6C		
    6811 395A  65 5F 6E 61 6D 65	 DB 101,95,110,97,109,101,0,0
    6812       00 00			
    6813				 PUBLIC l0723
    6814 3962  87 DB			  align 4
    6815 3964				l0723:
    6816 3964  00000005			 DD 5
    6817 3968  75 6E 69 78 63 64	 DB 117,110,105,120,99,100,0,0
    6818       00 00			
    6819				 PUBLIC l0724
    6820				  align 4
    6821 3970				l0724:
    6822 3970  00000008			 DD 8
    6823 3974  75 6E 69 78 66 72	 DB 117,110,105,120,102,114,101,97,100,
Microsoft (R) Macro Assembler Version 5.10                  11/16/97 16:56:0
                                                             Page     1-131


					0
    6824       65 61 64 00		
    6825				 PUBLIC l0725
    6826 397E  87 DB			  align 4
    6827 3980				l0725:
    6828 3980  00000008			 DD 8
    6829 3984  75 6E 69 78 66 70	 DB 117,110,105,120,102,112,117,116,99,
					0
    6830       75 74 63 00		
    6831				 PUBLIC l0726
    6832 398E  87 DB			  align 4
    6833 3990				l0726:
    6834 3990  00000008			 DD 8
    6835 3994  75 6E 69 78 66 67	 DB 117,110,105,120,102,103,101,116,99,
					0
    6836       65 74 63 00		
    6837				 PUBLIC l0727
    6838 399E  87 DB			  align 4
    6839 39A0				l0727:
    6840 39A0  00000008			 DD 8
    6841 39A4  75 6E 69 78 66 67	 DB 117,110,105,120,102,103,101,116,115
					,0
    6842       65 74 73 00		
    6843				 PUBLIC l0728
    6844 39AE  87 DB			  align 4
    6845 39B0				l0728:
    6846 39B0  00000009			 DD 9
    6847 39B4  75 6E 69 78 66 77	 DB 117,110,105,120,102,119,114,105,116
					,101
    6848       72 69 74 65		
    6849 39BE  00 00			 DB 0,0
    6850				 PUBLIC l0729
    6851				  align 4
    6852 39C0				l0729:
    6853 39C0  00000009			 DD 9
    6854 39C4  75 6E 69 78 66 66	 DB 117,110,105,120,102,102,108,117,115
					,104
    6855       6C 75 73 68		
    6856 39CE  00 00			 DB 0,0
    6857				 PUBLIC l0730
    6858				  align 4
    6859 39D0				l0730:
    6860 39D0  00000004			 DD 4
    6861 39D4  63 74 69 6D 65 00	 DB 99,116,105,109,101,0
    6862				 PUBLIC l0731
    6863 39DA  87 DB			  align 4
    6864 39DC				l0731:
    6865 39DC  0000000E			 DD 14
    6866 39E0  65 78 74 65 72 6E	 DB 101,120,116,101,114,110,97,108,95,1
					15
    6867       61 6C 5F 73		
    6868 39EA  79 73 74 65 6D 00	 DB 121,115,116,101,109,0
    6869				 PUBLIC l0732
    6870				  align 4
Microsoft (R) Macro Assembler Version 5.10                  11/16/97 16:56:0
                                                             Page     1-132


    6871 39F0				l0732:
    6872 39F0  00000004			 DD 4
    6873 39F4  66 6F 70 65 6E 00	 DB 102,111,112,101,110,0
    6874				 PUBLIC l0733
    6875 39FA  87 DB			  align 4
    6876 39FC				l0733:
    6877 39FC  00000004			 DD 4
    6878 3A00  66 73 65 65 6B 00	 DB 102,115,101,101,107,0
    6879				 PUBLIC l0734
    6880 3A06  87 DB			  align 4
    6881 3A08				l0734:
    6882 3A08  00000007			 DD 7
    6883 3A0C  63 6C 65 61 72 65	 DB 99,108,101,97,114,101,114,114,0,0
    6884       72 72 00 00		
    6885				 PUBLIC l0735
    6886 3A16  87 DB			  align 4
    6887 3A18				l0735:
    6888 3A18  00000003			 DD 3
    6889 3A1C  70 75 74 77 00 00	 DB 112,117,116,119,0,0
    6890				 PUBLIC l0736
    6891 3A22  87 DB			  align 4
    6892 3A24				l0736:
    6893 3A24  00000005			 DD 5
    6894 3A28  73 69 67 6E 61 6C	 DB 115,105,103,110,97,108,0,0
    6895       00 00			
    6896				 PUBLIC l0737
    6897				  align 4
    6898 3A30				l0737:
    6899 3A30  00000004			 DD 4
    6900 3A34  73 6C 65 65 70 00	 DB 115,108,101,101,112,0
    6901				 PUBLIC l0738
    6902 3A3A  87 DB			  align 4
    6903 3A3C				l0738:
    6904 3A3C  0000000B			 DD 11
    6905 3A40  69 65 65 65 5F 68	 DB 105,101,101,101,95,104,97,110,100,1
					08
    6906       61 6E 64 6C		
    6907 3A4A  65 72 00 00		 DB 101,114,0,0
    6908				 PUBLIC l0739
    6909 3A4E  87 DB			  align 4
    6910 3A50				l0739:
    6911 3A50  00000009			 DD 9
    6912 3A54  69 65 65 65 5F 66	 DB 105,101,101,101,95,102,108,97,103,1
					15
    6913       6C 61 67 73		
    6914 3A5E  00 00			 DB 0,0
    6915				 PUBLIC l0740
    6916				  align 4
    6917 3A60				l0740:
    6918 3A60  00000009			 DD 9
    6919 3A64  73 65 74 6C 69 6E	 DB 115,101,116,108,105,110,101,98,117,
					102
    6920       65 62 75 66		
    6921 3A6E  00 00			 DB 0,0
Microsoft (R) Macro Assembler Version 5.10                  11/16/97 16:56:0
                                                             Page     1-133


    6922				 PUBLIC l0741
    6923				  align 4
    6924 3A70				l0741:
    6925 3A70  00000005			 DD 5
    6926 3A74  70 72 6F 66 69 6C	 DB 112,114,111,102,105,108,0,0
    6927       00 00			
    6928				 PUBLIC l0742
    6929				  align 4
    6930 3A7C				l0742:
    6931 3A7C  00000006			 DD 6
    6932 3A80  64 61 74 65 74 61	 DB 100,97,116,101,116,97,103,0
    6933       67 00			
    6934				 PUBLIC l0743
    6935				  align 4
    6936 3A88				l0743:
    6937 3A88  00000008			 DD 8
    6938 3A8C  70 73 6C 6C 5F 63	 DB 112,115,108,108,95,99,97,108,108,0
    6939       61 6C 6C 00		
    6940				 PUBLIC l0744
    6941 3A96  87 DB			  align 4
    6942 3A98				l0744:
    6943 3A98  0000000B			 DD 11
    6944 3A9C  75 6E 69 78 2D 70	 DB 117,110,105,120,45,112,114,111,102,
					105
    6945       72 6F 66 69		
    6946 3AA6  6C 65 00 00		 DB 108,101,0,0
    6947				 PUBLIC l0745
    6948 3AAA  87 DB			  align 4
    6949 3AAC				l0745:
    6950 3AAC  00000004			 DD 4
    6951 3AB0  66 70 75 74 63 00	 DB 102,112,117,116,99,0
    6952				 PUBLIC l0746
    6953 3AB6  87 DB			  align 4
    6954 3AB8				l0746:
    6955 3AB8  00000004			 DD 4
    6956 3ABC  66 67 65 74 63 00	 DB 102,103,101,116,99,0
    6957				 PUBLIC l0747
    6958 3AC2  87 DB			  align 4
    6959 3AC4				l0747:
    6960 3AC4  00000004			 DD 4
    6961 3AC8  66 67 65 74 73 00	 DB 102,103,101,116,115,0
    6962				 PUBLIC l0748
    6963 3ACE  87 DB			  align 4
    6964 3AD0				l0748:
    6965 3AD0  00000005			 DD 5
    6966 3AD4  66 77 72 69 74 65	 DB 102,119,114,105,116,101,0,0
    6967       00 00			
    6968				 PUBLIC l0749
    6969				  align 4
    6970 3ADC				l0749:
    6971 3ADC  00000005			 DD 5
    6972 3AE0  66 66 6C 75 73 68	 DB 102,102,108,117,115,104,0,0
    6973       00 00			
    6974				 PUBLIC l0750
Microsoft (R) Macro Assembler Version 5.10                  11/16/97 16:56:0
                                                             Page     1-134


    6975				  align 4
    6976 3AE8				l0750:
    6977 3AE8  0000000D			 DD 13
    6978 3AEC  70 6C 61 6E 74 75	 DB 112,108,97,110,116,117,110,98,111,1
					17
    6979       6E 62 6F 75		
    6980 3AF6  6E 64 2D 31 00 00	 DB 110,100,45,49,0,0
    6981				 PUBLIC l0751
    6982				  align 4
    6983 3AFC				l0751:
    6984 3AFC  00000011			 DD 17
    6985 3B00  70 6C 61 6E 74 63	 DB 112,108,97,110,116,99,111,100,101,1
					12
    6986       6F 64 65 70		
    6987 3B0A  6F 69 6E 74 65 72	 DB 111,105,110,116,101,114,45,49,0,0
    6988       2D 31 00 00		
    6989				 PUBLIC l0752
    6990				  align 4
    6991 3B14				l0752:
    6992 3B14  00000010			 DD 16
    6993 3B18  70 6C 61 6E 74 6C	 DB 112,108,97,110,116,108,97,109,98,10
					0,97
    6994       61 6D 62 64 61		
    6995 3B23  6C 69 6E 6B 2D 31	 DB 108,105,110,107,45,49,0
    6996       00			
    6997				 PUBLIC l0753
    6998 3B2A  87 DB			  align 4
    6999 3B2C				l0753:
    7000 3B2C  0000000E			 DD 14
    7001 3B30  70 6C 61 6E 74 6C	 DB 112,108,97,110,116,108,97,109,98,10
					0,97
    7002       61 6D 62 64 61		
    7003 3B3B  6C 69 6E 6B 00		 DB 108,105,110,107,0
    7004				 PUBLIC l0754
    7005				  align 4
    7006 3B40				l0754:
    7007 3B40  00000007			 DD 7
    7008 3B44  62 69 74 74 61 62	 DB 98,105,116,116,97,98,108,101,0,0
    7009       6C 65 00 00		
    7010				 PUBLIC l0755
    7011 3B4E  87 DB			  align 4
    7012 3B50				l0755:
    7013 3B50  00000010			 DD 16
    7014 3B54  75 6E 64 65 66 69	 DB 117,110,100,101,102,105,110,101,100
					,102
    7015       6E 65 64 66		
    7016 3B5E  75 6E 63 74 69 6F	 DB 117,110,99,116,105,111,110,0
    7017       6E 00			
    7018				 PUBLIC l0756
    7019 3B66  87 DB			  align 4
    7020 3B68				l0756:
    7021 3B68  00000014			 DD 20
    7022 3B6C  75 6E 64 65 66 69	 DB 117,110,100,101,102,105,110,101,100
					,102
Microsoft (R) Macro Assembler Version 5.10                  11/16/97 16:56:0
                                                             Page     1-135


    7023       6E 65 64 66		
    7024 3B76  75 6E 63 74 69 6F	 DB 117,110,99,116,105,111,110,45,97,11
					7,120
    7025       6E 2D 61 75 78		
    7026 3B81  00			 DB 0
    7027				 PUBLIC l0757
    7028 3B82  87 DB			  align 4
    7029 3B84				l0757:
    7030 3B84  0000001C			 DD 28
    7031 3B88  63 6F 6D 70 69 6C	 DB 99,111,109,112,105,108,101,100,99,9
					7,108
    7032       65 64 63 61 6C		
    7033 3B93  6C 69 6E 67 69 6E	 DB 108,105,110,103,105,110,116,101,114
					,112
    7034       74 65 72 70		
    7035 3B9D  72 65 74 65 64 61	 DB 114,101,116,101,100,97,117,120,0
    7036       75 78 00			
    7037				 PUBLIC l0758
    7038 3BA6  87 DB			  align 4
    7039 3BA8				l0758:
    7040 3BA8  00000019			 DD 25
    7041 3BAC  63 6F 6D 70 69 6C	 DB 99,111,109,112,105,108,101,100,99,9
					7,108
    7042       65 64 63 61 6C		
    7043 3BB7  6C 69 6E 67 69 6E	 DB 108,105,110,103,105,110,116,101,114
					,112
    7044       74 65 72 70		
    7045 3BC1  72 65 74 65 64 00	 DB 114,101,116,101,100,0,0
    7046       00			
    7047				 PUBLIC l0759
    7048				  align 4
    7049 3BC8				l0759:
    7050 3BC8  00000008			 DD 8
    7051 3BCC  63 6F 64 65 66 6F	 DB 99,111,100,101,102,111,114,109,42,0
    7052       72 6D 2A 00		
    7053				 PUBLIC l0760
    7054 3BD6  87 DB			  align 4
    7055 3BD8				l0760:
    7056 3BD8  0000000E			 DD 14
    7057 3BDC  67 65 74 66 63 6F	 DB 103,101,116,102,99,111,100,101,112,
					111
    7058       64 65 70 6F		
    7059 3BE6  69 6E 74 65 72 00	 DB 105,110,116,101,114,0
    7060				 PUBLIC l0761
    7061				  align 4
    7062 3BEC				l0761:
    7063 3BEC  00000009			 DD 9
    7064 3BF0  6C 61 73 74 6B 65	 DB 108,97,115,116,107,101,114,110,101,
					108
    7065       72 6E 65 6C		
    7066 3BFA  00 00			 DB 0,0
    7067				 PUBLIC l0762
    7068				  align 4
    7069 3BFC				l0762:
Microsoft (R) Macro Assembler Version 5.10                  11/16/97 16:56:0
                                                             Page     1-136


    7070 3BFC  0000000B			 DD 11
    7071 3C00  63 6F 64 65 61 64	 DB 99,111,100,101,97,100,100,114,101,1
					15
    7072       64 72 65 73		
    7073 3C0A  73 70 00 00		 DB 115,112,0,0
    7074 3C0E				_TEXT  ends
    7075 0F90				_DATA    segment dword public 'DATA'
    7076				  INCLUDE S_PR_NA.ASM
    7077			     C	 PUBLIC symprp
    7078			     C	  ALIGN 4
    7079 0F90  F0000080              C	symprp  DD 30*08000000h+OFFSET 128
    7080 0F94  F0000080              C	 DD 30*08000000h+OFFSET 128
    7081 0F98  F0000080              C	 DD 30*08000000h+OFFSET 128
    7082 0F9C  F0000080              C	 DD 30*08000000h+OFFSET 128
    7083 0FA0  F0000080              C	 DD 30*08000000h+OFFSET 128
    7084 0FA4  F0000080              C	 DD 30*08000000h+OFFSET 128
    7085 0FA8  F0000080              C	 DD 30*08000000h+OFFSET 128
    7086 0FAC  F0000080              C	 DD 30*08000000h+OFFSET 128
    7087 0FB0  F0000080              C	 DD 30*08000000h+OFFSET 128
    7088 0FB4  F0000080              C	 DD 30*08000000h+OFFSET 128
    7089 0FB8  F0000080              C	 DD 30*08000000h+OFFSET 128
    7090 0FBC  F0000080              C	 DD 30*08000000h+OFFSET 128
    7091 0FC0  F0000080              C	 DD 30*08000000h+OFFSET 128
    7092 0FC4  F0000080              C	 DD 30*08000000h+OFFSET 128
    7093 0FC8  F0000080              C	 DD 30*08000000h+OFFSET 128
    7094 0FCC  F0000080              C	 DD 30*08000000h+OFFSET 128
    7095 0FD0  F0000080              C	 DD 30*08000000h+OFFSET 128
    7096 0FD4  F0000080              C	 DD 30*08000000h+OFFSET 128
    7097 0FD8  F0000080              C	 DD 30*08000000h+OFFSET 128
    7098 0FDC  F0000080              C	 DD 30*08000000h+OFFSET 128
    7099 0FE0  F0000080              C	 DD 30*08000000h+OFFSET 128
    7100 0FE4  F0000080              C	 DD 30*08000000h+OFFSET 128
    7101 0FE8  F0000080              C	 DD 30*08000000h+OFFSET 128
    7102 0FEC  F0000080              C	 DD 30*08000000h+OFFSET 128
    7103 0FF0  F0000080              C	 DD 30*08000000h+OFFSET 128
    7104 0FF4  F0000080              C	 DD 30*08000000h+OFFSET 128
    7105 0FF8  F0000080              C	 DD 30*08000000h+OFFSET 128
    7106 0FFC  F0000080              C	 DD 30*08000000h+OFFSET 128
    7107 1000  F0000080              C	 DD 30*08000000h+OFFSET 128
    7108 1004  F0000080              C	 DD 30*08000000h+OFFSET 128
    7109 1008  F0000080              C	 DD 30*08000000h+OFFSET 128
    7110 100C  F0000080              C	 DD 30*08000000h+OFFSET 128
    7111 1010  F0000080              C	 DD 30*08000000h+OFFSET 128
    7112 1014  F0000080              C	 DD 30*08000000h+OFFSET 128
    7113 1018  F0000080              C	 DD 30*08000000h+OFFSET 128
    7114 101C  F0000080              C	 DD 30*08000000h+OFFSET 128
    7115 1020  F0000080              C	 DD 30*08000000h+OFFSET 128
    7116 1024  F0000080              C	 DD 30*08000000h+OFFSET 128
    7117 1028  F0000080              C	 DD 30*08000000h+OFFSET 128
    7118 102C  F0000080              C	 DD 30*08000000h+OFFSET 128
    7119 1030  F0000080              C	 DD 30*08000000h+OFFSET 128
    7120 1034  F0000080              C	 DD 30*08000000h+OFFSET 128
    7121 1038  F0000080              C	 DD 30*08000000h+OFFSET 128
    7122 103C  F0000080              C	 DD 30*08000000h+OFFSET 128
Microsoft (R) Macro Assembler Version 5.10                  11/16/97 16:56:0
                                                             Page     1-137


    7123 1040  F0000080              C	 DD 30*08000000h+OFFSET 128
    7124 1044  F0000080              C	 DD 30*08000000h+OFFSET 128
    7125 1048  F0000080              C	 DD 30*08000000h+OFFSET 128
    7126 104C  F0000080              C	 DD 30*08000000h+OFFSET 128
    7127 1050  F0000080              C	 DD 30*08000000h+OFFSET 128
    7128 1054  F0000080              C	 DD 30*08000000h+OFFSET 128
    7129 1058  F0000080              C	 DD 30*08000000h+OFFSET 128
    7130 105C  F0000080              C	 DD 30*08000000h+OFFSET 128
    7131 1060  F0000080              C	 DD 30*08000000h+OFFSET 128
    7132 1064  F0000080              C	 DD 30*08000000h+OFFSET 128
    7133 1068  F0000080              C	 DD 30*08000000h+OFFSET 128
    7134 106C  F0000080              C	 DD 30*08000000h+OFFSET 128
    7135 1070  F0000080              C	 DD 30*08000000h+OFFSET 128
    7136 1074  F0000080              C	 DD 30*08000000h+OFFSET 128
    7137 1078  F0000080              C	 DD 30*08000000h+OFFSET 128
    7138 107C  F0000080              C	 DD 30*08000000h+OFFSET 128
    7139 1080  F0000080              C	 DD 30*08000000h+OFFSET 128
    7140 1084  F0000080              C	 DD 30*08000000h+OFFSET 128
    7141 1088  F0000080              C	 DD 30*08000000h+OFFSET 128
    7142 108C  F0000080              C	 DD 30*08000000h+OFFSET 128
    7143 1090  F0000080              C	 DD 30*08000000h+OFFSET 128
    7144 1094  F0000080              C	 DD 30*08000000h+OFFSET 128
    7145 1098  F0000080              C	 DD 30*08000000h+OFFSET 128
    7146 109C  F0000080              C	 DD 30*08000000h+OFFSET 128
    7147 10A0  F0000080              C	 DD 30*08000000h+OFFSET 128
    7148 10A4  F0000080              C	 DD 30*08000000h+OFFSET 128
    7149 10A8  F0000080              C	 DD 30*08000000h+OFFSET 128
    7150 10AC  F0000080              C	 DD 30*08000000h+OFFSET 128
    7151 10B0  F0000080              C	 DD 30*08000000h+OFFSET 128
    7152 10B4  F0000080              C	 DD 30*08000000h+OFFSET 128
    7153 10B8  F0000080              C	 DD 30*08000000h+OFFSET 128
    7154 10BC  F0000080              C	 DD 30*08000000h+OFFSET 128
    7155 10C0  F0000080              C	 DD 30*08000000h+OFFSET 128
    7156 10C4  F0000080              C	 DD 30*08000000h+OFFSET 128
    7157 10C8  F0000080              C	 DD 30*08000000h+OFFSET 128
    7158 10CC  F0000080              C	 DD 30*08000000h+OFFSET 128
    7159 10D0  F0000080              C	 DD 30*08000000h+OFFSET 128
    7160 10D4  F0000080              C	 DD 30*08000000h+OFFSET 128
    7161 10D8  F0000080              C	 DD 30*08000000h+OFFSET 128
    7162 10DC  F0000080              C	 DD 30*08000000h+OFFSET 128
    7163 10E0  F0000080              C	 DD 30*08000000h+OFFSET 128
    7164 10E4  F0000080              C	 DD 30*08000000h+OFFSET 128
    7165 10E8  F0000080              C	 DD 30*08000000h+OFFSET 128
    7166 10EC  F0000080              C	 DD 30*08000000h+OFFSET 128
    7167 10F0  F0000080              C	 DD 30*08000000h+OFFSET 128
    7168 10F4  F0000080              C	 DD 30*08000000h+OFFSET 128
    7169 10F8  F0000080              C	 DD 30*08000000h+OFFSET 128
    7170 10FC  F0000080              C	 DD 30*08000000h+OFFSET 128
    7171 1100  F0000080              C	 DD 30*08000000h+OFFSET 128
    7172 1104  F0000080              C	 DD 30*08000000h+OFFSET 128
    7173 1108  F0000080              C	 DD 30*08000000h+OFFSET 128
    7174 110C  F0000080              C	 DD 30*08000000h+OFFSET 128
    7175 1110  F0000080              C	 DD 30*08000000h+OFFSET 128
    7176 1114  F0000080              C	 DD 30*08000000h+OFFSET 128
Microsoft (R) Macro Assembler Version 5.10                  11/16/97 16:56:0
                                                             Page     1-138


    7177 1118  F0000080              C	 DD 30*08000000h+OFFSET 128
    7178 111C  F0000080              C	 DD 30*08000000h+OFFSET 128
    7179 1120  F0000080              C	 DD 30*08000000h+OFFSET 128
    7180 1124  F0000080              C	 DD 30*08000000h+OFFSET 128
    7181 1128  F0000080              C	 DD 30*08000000h+OFFSET 128
    7182 112C  F0000080              C	 DD 30*08000000h+OFFSET 128
    7183 1130  F0000080              C	 DD 30*08000000h+OFFSET 128
    7184 1134  F0000080              C	 DD 30*08000000h+OFFSET 128
    7185 1138  F0000080              C	 DD 30*08000000h+OFFSET 128
    7186 113C  F0000080              C	 DD 30*08000000h+OFFSET 128
    7187 1140  F0000080              C	 DD 30*08000000h+OFFSET 128
    7188 1144  F0000080              C	 DD 30*08000000h+OFFSET 128
    7189 1148  F0000080              C	 DD 30*08000000h+OFFSET 128
    7190 114C  F0000080              C	 DD 30*08000000h+OFFSET 128
    7191 1150  F0000080              C	 DD 30*08000000h+OFFSET 128
    7192 1154  F0000080              C	 DD 30*08000000h+OFFSET 128
    7193 1158  F0000080              C	 DD 30*08000000h+OFFSET 128
    7194 115C  F0000080              C	 DD 30*08000000h+OFFSET 128
    7195 1160  F0000080              C	 DD 30*08000000h+OFFSET 128
    7196 1164  F0000080              C	 DD 30*08000000h+OFFSET 128
    7197 1168  F0000080              C	 DD 30*08000000h+OFFSET 128
    7198 116C  F0000080              C	 DD 30*08000000h+OFFSET 128
    7199 1170  F0000080              C	 DD 30*08000000h+OFFSET 128
    7200 1174  F0000080              C	 DD 30*08000000h+OFFSET 128
    7201 1178  F0000080              C	 DD 30*08000000h+OFFSET 128
    7202 117C  F0000080              C	 DD 30*08000000h+OFFSET 128
    7203 1180  F0000080              C	 DD 30*08000000h+OFFSET 128
    7204 1184  F0000080              C	 DD 30*08000000h+OFFSET 128
    7205 1188  F0000080              C	 DD 30*08000000h+OFFSET 128
    7206 118C  F0000080              C	 DD 30*08000000h+OFFSET 128
    7207 1190  F0000080              C	 DD 30*08000000h+OFFSET 128
    7208 1194  F0000080              C	 DD 30*08000000h+OFFSET 128
    7209 1198  F0000080              C	 DD 30*08000000h+OFFSET 128
    7210 119C  F0000080              C	 DD 30*08000000h+OFFSET 128
    7211 11A0  F0000080              C	 DD 30*08000000h+OFFSET 128
    7212 11A4  F0000080              C	 DD 30*08000000h+OFFSET 128
    7213 11A8  F0000080              C	 DD 30*08000000h+OFFSET 128
    7214 11AC  F0000080              C	 DD 30*08000000h+OFFSET 128
    7215 11B0  F0000080              C	 DD 30*08000000h+OFFSET 128
    7216 11B4  F0000080              C	 DD 30*08000000h+OFFSET 128
    7217 11B8  F0000080              C	 DD 30*08000000h+OFFSET 128
    7218 11BC  F0000080              C	 DD 30*08000000h+OFFSET 128
    7219 11C0  F0000080              C	 DD 30*08000000h+OFFSET 128
    7220 11C4  F0000080              C	 DD 30*08000000h+OFFSET 128
    7221 11C8  F0000080              C	 DD 30*08000000h+OFFSET 128
    7222 11CC  F0000080              C	 DD 30*08000000h+OFFSET 128
    7223 11D0  F0000080              C	 DD 30*08000000h+OFFSET 128
    7224 11D4  F0000080              C	 DD 30*08000000h+OFFSET 128
    7225 11D8  F0000080              C	 DD 30*08000000h+OFFSET 128
    7226 11DC  F0000080              C	 DD 30*08000000h+OFFSET 128
    7227 11E0  F0000080              C	 DD 30*08000000h+OFFSET 128
    7228 11E4  F0000080              C	 DD 30*08000000h+OFFSET 128
    7229 11E8  F0000080              C	 DD 30*08000000h+OFFSET 128
    7230 11EC  F0000080              C	 DD 30*08000000h+OFFSET 128
Microsoft (R) Macro Assembler Version 5.10                  11/16/97 16:56:0
                                                             Page     1-139


    7231 11F0  F0000080              C	 DD 30*08000000h+OFFSET 128
    7232 11F4  F0000080              C	 DD 30*08000000h+OFFSET 128
    7233 11F8  F0000080              C	 DD 30*08000000h+OFFSET 128
    7234 11FC  F0000080              C	 DD 30*08000000h+OFFSET 128
    7235 1200  F0000080              C	 DD 30*08000000h+OFFSET 128
    7236 1204  F0000080              C	 DD 30*08000000h+OFFSET 128
    7237 1208  F0000080              C	 DD 30*08000000h+OFFSET 128
    7238 120C  F0000080              C	 DD 30*08000000h+OFFSET 128
    7239 1210  F0000080              C	 DD 30*08000000h+OFFSET 128
    7240 1214  F0000080              C	 DD 30*08000000h+OFFSET 128
    7241 1218  F0000080              C	 DD 30*08000000h+OFFSET 128
    7242 121C  F0000080              C	 DD 30*08000000h+OFFSET 128
    7243 1220  F0000080              C	 DD 30*08000000h+OFFSET 128
    7244 1224  F0000080              C	 DD 30*08000000h+OFFSET 128
    7245 1228  F0000080              C	 DD 30*08000000h+OFFSET 128
    7246 122C  F0000080              C	 DD 30*08000000h+OFFSET 128
    7247 1230  F0000080              C	 DD 30*08000000h+OFFSET 128
    7248 1234  F0000080              C	 DD 30*08000000h+OFFSET 128
    7249 1238  F0000080              C	 DD 30*08000000h+OFFSET 128
    7250 123C  F0000080              C	 DD 30*08000000h+OFFSET 128
    7251 1240  F0000080              C	 DD 30*08000000h+OFFSET 128
    7252 1244  F0000080              C	 DD 30*08000000h+OFFSET 128
    7253 1248  F0000080              C	 DD 30*08000000h+OFFSET 128
    7254 124C  F0000080              C	 DD 30*08000000h+OFFSET 128
    7255 1250  F0000080              C	 DD 30*08000000h+OFFSET 128
    7256 1254  F0000080              C	 DD 30*08000000h+OFFSET 128
    7257 1258  F0000080              C	 DD 30*08000000h+OFFSET 128
    7258 125C  F0000080              C	 DD 30*08000000h+OFFSET 128
    7259 1260  F0000080              C	 DD 30*08000000h+OFFSET 128
    7260 1264  F0000080              C	 DD 30*08000000h+OFFSET 128
    7261 1268  F0000080              C	 DD 30*08000000h+OFFSET 128
    7262 126C  F0000080              C	 DD 30*08000000h+OFFSET 128
    7263 1270  F0000080              C	 DD 30*08000000h+OFFSET 128
    7264 1274  F0000080              C	 DD 30*08000000h+OFFSET 128
    7265 1278  F0000080              C	 DD 30*08000000h+OFFSET 128
    7266 127C  F0000080              C	 DD 30*08000000h+OFFSET 128
    7267 1280  F0000080              C	 DD 30*08000000h+OFFSET 128
    7268 1284  F0000080              C	 DD 30*08000000h+OFFSET 128
    7269 1288  F0000080              C	 DD 30*08000000h+OFFSET 128
    7270 128C  F0000080              C	 DD 30*08000000h+OFFSET 128
    7271 1290  F0000080              C	 DD 30*08000000h+OFFSET 128
    7272 1294  F0000080              C	 DD 30*08000000h+OFFSET 128
    7273 1298  F0000080              C	 DD 30*08000000h+OFFSET 128
    7274 129C  F0000080              C	 DD 30*08000000h+OFFSET 128
    7275 12A0  F0000080              C	 DD 30*08000000h+OFFSET 128
    7276 12A4  F0000080              C	 DD 30*08000000h+OFFSET 128
    7277 12A8  F0000080              C	 DD 30*08000000h+OFFSET 128
    7278 12AC  F0000080              C	 DD 30*08000000h+OFFSET 128
    7279 12B0  F0000080              C	 DD 30*08000000h+OFFSET 128
    7280 12B4  F0000080              C	 DD 30*08000000h+OFFSET 128
    7281 12B8  F0000080              C	 DD 30*08000000h+OFFSET 128
    7282 12BC  F0000080              C	 DD 30*08000000h+OFFSET 128
    7283 12C0  F0000080              C	 DD 30*08000000h+OFFSET 128
    7284 12C4  F0000080              C	 DD 30*08000000h+OFFSET 128
Microsoft (R) Macro Assembler Version 5.10                  11/16/97 16:56:0
                                                             Page     1-140


    7285 12C8  F0000080              C	 DD 30*08000000h+OFFSET 128
    7286 12CC  F0000080              C	 DD 30*08000000h+OFFSET 128
    7287 12D0  F0000080              C	 DD 30*08000000h+OFFSET 128
    7288 12D4  F0000080              C	 DD 30*08000000h+OFFSET 128
    7289 12D8  F0000080              C	 DD 30*08000000h+OFFSET 128
    7290 12DC  F0000080              C	 DD 30*08000000h+OFFSET 128
    7291 12E0  F0000080              C	 DD 30*08000000h+OFFSET 128
    7292 12E4  F0000080              C	 DD 30*08000000h+OFFSET 128
    7293 12E8  F0000080              C	 DD 30*08000000h+OFFSET 128
    7294 12EC  F0000080              C	 DD 30*08000000h+OFFSET 128
    7295 12F0  F0000080              C	 DD 30*08000000h+OFFSET 128
    7296 12F4  F0000080              C	 DD 30*08000000h+OFFSET 128
    7297 12F8  F0000080              C	 DD 30*08000000h+OFFSET 128
    7298 12FC  F0000080              C	 DD 30*08000000h+OFFSET 128
    7299 1300  F0000080              C	 DD 30*08000000h+OFFSET 128
    7300 1304  F0000080              C	 DD 30*08000000h+OFFSET 128
    7301 1308  F0000080              C	 DD 30*08000000h+OFFSET 128
    7302 130C  F0000080              C	 DD 30*08000000h+OFFSET 128
    7303 1310  F0000080              C	 DD 30*08000000h+OFFSET 128
    7304 1314  F0000080              C	 DD 30*08000000h+OFFSET 128
    7305 1318  F0000080              C	 DD 30*08000000h+OFFSET 128
    7306 131C  F0000080              C	 DD 30*08000000h+OFFSET 128
    7307 1320  F0000080              C	 DD 30*08000000h+OFFSET 128
    7308 1324  F0000080              C	 DD 30*08000000h+OFFSET 128
    7309 1328  F0000080              C	 DD 30*08000000h+OFFSET 128
    7310 132C  F0000080              C	 DD 30*08000000h+OFFSET 128
    7311 1330  F0000080              C	 DD 30*08000000h+OFFSET 128
    7312 1334  F0000080              C	 DD 30*08000000h+OFFSET 128
    7313 1338  F0000080              C	 DD 30*08000000h+OFFSET 128
    7314 133C  F0000080              C	 DD 30*08000000h+OFFSET 128
    7315 1340  F0000080              C	 DD 30*08000000h+OFFSET 128
    7316 1344  F0000080              C	 DD 30*08000000h+OFFSET 128
    7317 1348  F0000080              C	 DD 30*08000000h+OFFSET 128
    7318 134C  F0000080              C	 DD 30*08000000h+OFFSET 128
    7319 1350  F0000080              C	 DD 30*08000000h+OFFSET 128
    7320 1354  F0000080              C	 DD 30*08000000h+OFFSET 128
    7321 1358  F0000080              C	 DD 30*08000000h+OFFSET 128
    7322 135C  F0000080              C	 DD 30*08000000h+OFFSET 128
    7323 1360  F0000080              C	 DD 30*08000000h+OFFSET 128
    7324 1364  F0000080              C	 DD 30*08000000h+OFFSET 128
    7325 1368  F0000080              C	 DD 30*08000000h+OFFSET 128
    7326 136C  F0000080              C	 DD 30*08000000h+OFFSET 128
    7327 1370  F0000080              C	 DD 30*08000000h+OFFSET 128
    7328 1374  F0000080              C	 DD 30*08000000h+OFFSET 128
    7329 1378  F0000080              C	 DD 30*08000000h+OFFSET 128
    7330 137C  F0000080              C	 DD 30*08000000h+OFFSET 128
    7331 1380  F0000080              C	 DD 30*08000000h+OFFSET 128
    7332 1384  F0000080              C	 DD 30*08000000h+OFFSET 128
    7333 1388  F0000080              C	 DD 30*08000000h+OFFSET 128
    7334 138C  F0000080              C	 DD 30*08000000h+OFFSET 128
    7335 1390  F0000080              C	 DD 30*08000000h+OFFSET 128
    7336 1394  F0000080              C	 DD 30*08000000h+OFFSET 128
    7337 1398  F0000080              C	 DD 30*08000000h+OFFSET 128
    7338 139C  F0000080              C	 DD 30*08000000h+OFFSET 128
Microsoft (R) Macro Assembler Version 5.10                  11/16/97 16:56:0
                                                             Page     1-141


    7339 13A0  F0000080              C	 DD 30*08000000h+OFFSET 128
    7340 13A4  F0000080              C	 DD 30*08000000h+OFFSET 128
    7341 13A8  F0000080              C	 DD 30*08000000h+OFFSET 128
    7342 13AC  F0000080              C	 DD 30*08000000h+OFFSET 128
    7343 13B0  F0000080              C	 DD 30*08000000h+OFFSET 128
    7344 13B4  F0000080              C	 DD 30*08000000h+OFFSET 128
    7345 13B8  F0000080              C	 DD 30*08000000h+OFFSET 128
    7346 13BC  F0000080              C	 DD 30*08000000h+OFFSET 128
    7347 13C0  F0000080              C	 DD 30*08000000h+OFFSET 128
    7348 13C4  F0000080              C	 DD 30*08000000h+OFFSET 128
    7349 13C8  F0000080              C	 DD 30*08000000h+OFFSET 128
    7350 13CC  F0000080              C	 DD 30*08000000h+OFFSET 128
    7351 13D0  F0000080              C	 DD 30*08000000h+OFFSET 128
    7352 13D4  F0000080              C	 DD 30*08000000h+OFFSET 128
    7353 13D8  F0000080              C	 DD 30*08000000h+OFFSET 128
    7354 13DC  F0000080              C	 DD 30*08000000h+OFFSET 128
    7355 13E0  F0000080              C	 DD 30*08000000h+OFFSET 128
    7356 13E4  F0000080              C	 DD 30*08000000h+OFFSET 128
    7357 13E8  F0000080              C	 DD 30*08000000h+OFFSET 128
    7358 13EC  F0000080              C	 DD 30*08000000h+OFFSET 128
    7359 13F0  F0000080              C	 DD 30*08000000h+OFFSET 128
    7360 13F4  F0000080              C	 DD 30*08000000h+OFFSET 128
    7361 13F8  F0000080              C	 DD 30*08000000h+OFFSET 128
    7362 13FC  F0000080              C	 DD 30*08000000h+OFFSET 128
    7363 1400  F0000080              C	 DD 30*08000000h+OFFSET 128
    7364 1404  F0000080              C	 DD 30*08000000h+OFFSET 128
    7365 1408  F0000080              C	 DD 30*08000000h+OFFSET 128
    7366 140C  F0000080              C	 DD 30*08000000h+OFFSET 128
    7367 1410  F0000080              C	 DD 30*08000000h+OFFSET 128
    7368 1414  F0000080              C	 DD 30*08000000h+OFFSET 128
    7369 1418  F0000080              C	 DD 30*08000000h+OFFSET 128
    7370 141C  F0000080              C	 DD 30*08000000h+OFFSET 128
    7371 1420  F0000080              C	 DD 30*08000000h+OFFSET 128
    7372 1424  F0000080              C	 DD 30*08000000h+OFFSET 128
    7373 1428  F0000080              C	 DD 30*08000000h+OFFSET 128
    7374 142C  F0000080              C	 DD 30*08000000h+OFFSET 128
    7375 1430  F0000080              C	 DD 30*08000000h+OFFSET 128
    7376 1434  F0000080              C	 DD 30*08000000h+OFFSET 128
    7377 1438  F0000080              C	 DD 30*08000000h+OFFSET 128
    7378 143C  F0000080              C	 DD 30*08000000h+OFFSET 128
    7379 1440  F0000080              C	 DD 30*08000000h+OFFSET 128
    7380 1444  F0000080              C	 DD 30*08000000h+OFFSET 128
    7381 1448  F0000080              C	 DD 30*08000000h+OFFSET 128
    7382 144C  F0000080              C	 DD 30*08000000h+OFFSET 128
    7383 1450  F0000080              C	 DD 30*08000000h+OFFSET 128
    7384 1454  F0000080              C	 DD 30*08000000h+OFFSET 128
    7385 1458  F0000080              C	 DD 30*08000000h+OFFSET 128
    7386 145C  F0000080              C	 DD 30*08000000h+OFFSET 128
    7387 1460  F0000080              C	 DD 30*08000000h+OFFSET 128
    7388 1464  F0000080              C	 DD 30*08000000h+OFFSET 128
    7389 1468  F0000080              C	 DD 30*08000000h+OFFSET 128
    7390 146C  F0000080              C	 DD 30*08000000h+OFFSET 128
    7391 1470  F0000080              C	 DD 30*08000000h+OFFSET 128
    7392 1474  F0000080              C	 DD 30*08000000h+OFFSET 128
Microsoft (R) Macro Assembler Version 5.10                  11/16/97 16:56:0
                                                             Page     1-142


    7393 1478  F0000080              C	 DD 30*08000000h+OFFSET 128
    7394 147C  F0000080              C	 DD 30*08000000h+OFFSET 128
    7395 1480  F0000080              C	 DD 30*08000000h+OFFSET 128
    7396 1484  F0000080              C	 DD 30*08000000h+OFFSET 128
    7397 1488  F0000080              C	 DD 30*08000000h+OFFSET 128
    7398 148C  F0000080              C	 DD 30*08000000h+OFFSET 128
    7399 1490  F0000080              C	 DD 30*08000000h+OFFSET 128
    7400 1494  F0000080              C	 DD 30*08000000h+OFFSET 128
    7401 1498  F0000080              C	 DD 30*08000000h+OFFSET 128
    7402 149C  F0000080              C	 DD 30*08000000h+OFFSET 128
    7403 14A0  F0000080              C	 DD 30*08000000h+OFFSET 128
    7404 14A4  F0000080              C	 DD 30*08000000h+OFFSET 128
    7405 14A8  F0000080              C	 DD 30*08000000h+OFFSET 128
    7406 14AC  F0000080              C	 DD 30*08000000h+OFFSET 128
    7407 14B0  F0000080              C	 DD 30*08000000h+OFFSET 128
    7408 14B4  F0000080              C	 DD 30*08000000h+OFFSET 128
    7409 14B8  F0000080              C	 DD 30*08000000h+OFFSET 128
    7410 14BC  F0000080              C	 DD 30*08000000h+OFFSET 128
    7411 14C0  F0000080              C	 DD 30*08000000h+OFFSET 128
    7412 14C4  F0000080              C	 DD 30*08000000h+OFFSET 128
    7413 14C8  F0000080              C	 DD 30*08000000h+OFFSET 128
    7414 14CC  F0000080              C	 DD 30*08000000h+OFFSET 128
    7415 14D0  F0000080              C	 DD 30*08000000h+OFFSET 128
    7416 14D4  F0000080              C	 DD 30*08000000h+OFFSET 128
    7417 14D8  F0000080              C	 DD 30*08000000h+OFFSET 128
    7418 14DC  F0000080              C	 DD 30*08000000h+OFFSET 128
    7419 14E0  F0000080              C	 DD 30*08000000h+OFFSET 128
    7420 14E4  F0000080              C	 DD 30*08000000h+OFFSET 128
    7421 14E8  F0000080              C	 DD 30*08000000h+OFFSET 128
    7422 14EC  F0000080              C	 DD 30*08000000h+OFFSET 128
    7423 14F0  F0000080              C	 DD 30*08000000h+OFFSET 128
    7424 14F4  F0000080              C	 DD 30*08000000h+OFFSET 128
    7425 14F8  F0000080              C	 DD 30*08000000h+OFFSET 128
    7426 14FC  F0000080              C	 DD 30*08000000h+OFFSET 128
    7427 1500  F0000080              C	 DD 30*08000000h+OFFSET 128
    7428 1504  F0000080              C	 DD 30*08000000h+OFFSET 128
    7429 1508  F0000080              C	 DD 30*08000000h+OFFSET 128
    7430 150C  F0000080              C	 DD 30*08000000h+OFFSET 128
    7431 1510  F0000080              C	 DD 30*08000000h+OFFSET 128
    7432 1514  F0000080              C	 DD 30*08000000h+OFFSET 128
    7433 1518  F0000080              C	 DD 30*08000000h+OFFSET 128
    7434 151C  F0000080              C	 DD 30*08000000h+OFFSET 128
    7435 1520  F0000080              C	 DD 30*08000000h+OFFSET 128
    7436 1524  F0000080              C	 DD 30*08000000h+OFFSET 128
    7437 1528  F0000080              C	 DD 30*08000000h+OFFSET 128
    7438 152C  F0000080              C	 DD 30*08000000h+OFFSET 128
    7439 1530  F0000080              C	 DD 30*08000000h+OFFSET 128
    7440 1534  F0000080              C	 DD 30*08000000h+OFFSET 128
    7441 1538  F0000080              C	 DD 30*08000000h+OFFSET 128
    7442 153C  F0000080              C	 DD 30*08000000h+OFFSET 128
    7443 1540  F0000080              C	 DD 30*08000000h+OFFSET 128
    7444 1544  F0000080              C	 DD 30*08000000h+OFFSET 128
    7445 1548  F0000080              C	 DD 30*08000000h+OFFSET 128
    7446 154C  F0000080              C	 DD 30*08000000h+OFFSET 128
Microsoft (R) Macro Assembler Version 5.10                  11/16/97 16:56:0
                                                             Page     1-143


    7447 1550  F0000080              C	 DD 30*08000000h+OFFSET 128
    7448 1554  F0000080              C	 DD 30*08000000h+OFFSET 128
    7449 1558  F0000080              C	 DD 30*08000000h+OFFSET 128
    7450 155C  F0000080              C	 DD 30*08000000h+OFFSET 128
    7451 1560  F0000080              C	 DD 30*08000000h+OFFSET 128
    7452 1564  F0000080              C	 DD 30*08000000h+OFFSET 128
    7453 1568  F0000080              C	 DD 30*08000000h+OFFSET 128
    7454 156C  F0000080              C	 DD 30*08000000h+OFFSET 128
    7455 1570  F0000080              C	 DD 30*08000000h+OFFSET 128
    7456 1574  F0000080              C	 DD 30*08000000h+OFFSET 128
    7457 1578  F0000080              C	 DD 30*08000000h+OFFSET 128
    7458 157C  F0000080              C	 DD 30*08000000h+OFFSET 128
    7459 1580  F0000080              C	 DD 30*08000000h+OFFSET 128
    7460 1584  F0000080              C	 DD 30*08000000h+OFFSET 128
    7461 1588  F0000080              C	 DD 30*08000000h+OFFSET 128
    7462 158C  F0000080              C	 DD 30*08000000h+OFFSET 128
    7463 1590  F0000080              C	 DD 30*08000000h+OFFSET 128
    7464 1594  F0000080              C	 DD 30*08000000h+OFFSET 128
    7465 1598  F0000080              C	 DD 30*08000000h+OFFSET 128
    7466 159C  F0000080              C	 DD 30*08000000h+OFFSET 128
    7467 15A0  F0000080              C	 DD 30*08000000h+OFFSET 128
    7468 15A4  F0000080              C	 DD 30*08000000h+OFFSET 128
    7469 15A8  F0000080              C	 DD 30*08000000h+OFFSET 128
    7470 15AC  F0000080              C	 DD 30*08000000h+OFFSET 128
    7471 15B0  F0000080              C	 DD 30*08000000h+OFFSET 128
    7472 15B4  F0000080              C	 DD 30*08000000h+OFFSET 128
    7473 15B8  F0000080              C	 DD 30*08000000h+OFFSET 128
    7474 15BC  F0000080              C	 DD 30*08000000h+OFFSET 128
    7475 15C0  F0000080              C	 DD 30*08000000h+OFFSET 128
    7476 15C4  F0000080              C	 DD 30*08000000h+OFFSET 128
    7477 15C8  F0000080              C	 DD 30*08000000h+OFFSET 128
    7478 15CC  F0000080              C	 DD 30*08000000h+OFFSET 128
    7479 15D0  F0000080              C	 DD 30*08000000h+OFFSET 128
    7480 15D4  F0000080              C	 DD 30*08000000h+OFFSET 128
    7481 15D8  F0000080              C	 DD 30*08000000h+OFFSET 128
    7482 15DC  F0000080              C	 DD 30*08000000h+OFFSET 128
    7483 15E0  F0000080              C	 DD 30*08000000h+OFFSET 128
    7484 15E4  F0000080              C	 DD 30*08000000h+OFFSET 128
    7485 15E8  F0000080              C	 DD 30*08000000h+OFFSET 128
    7486 15EC  F0000080              C	 DD 30*08000000h+OFFSET 128
    7487 15F0  F0000080              C	 DD 30*08000000h+OFFSET 128
    7488 15F4  F0000080              C	 DD 30*08000000h+OFFSET 128
    7489 15F8  F0000080              C	 DD 30*08000000h+OFFSET 128
    7490 15FC  F0000080              C	 DD 30*08000000h+OFFSET 128
    7491 1600  F0000080              C	 DD 30*08000000h+OFFSET 128
    7492 1604  F0000080              C	 DD 30*08000000h+OFFSET 128
    7493 1608  F0000080              C	 DD 30*08000000h+OFFSET 128
    7494 160C  F0000080              C	 DD 30*08000000h+OFFSET 128
    7495 1610  F0000080              C	 DD 30*08000000h+OFFSET 128
    7496 1614  F0000080              C	 DD 30*08000000h+OFFSET 128
    7497 1618  F0000080              C	 DD 30*08000000h+OFFSET 128
    7498 161C  F0000080              C	 DD 30*08000000h+OFFSET 128
    7499 1620  F0000080              C	 DD 30*08000000h+OFFSET 128
    7500 1624  F0000080              C	 DD 30*08000000h+OFFSET 128
Microsoft (R) Macro Assembler Version 5.10                  11/16/97 16:56:0
                                                             Page     1-144


    7501 1628  F0000080              C	 DD 30*08000000h+OFFSET 128
    7502 162C  F0000080              C	 DD 30*08000000h+OFFSET 128
    7503 1630  F0000080              C	 DD 30*08000000h+OFFSET 128
    7504 1634  F0000080              C	 DD 30*08000000h+OFFSET 128
    7505 1638  F0000080              C	 DD 30*08000000h+OFFSET 128
    7506 163C  F0000080              C	 DD 30*08000000h+OFFSET 128
    7507 1640  F0000080              C	 DD 30*08000000h+OFFSET 128
    7508 1644  F0000080              C	 DD 30*08000000h+OFFSET 128
    7509 1648  F0000080              C	 DD 30*08000000h+OFFSET 128
    7510 164C  F0000080              C	 DD 30*08000000h+OFFSET 128
    7511 1650  F0000080              C	 DD 30*08000000h+OFFSET 128
    7512 1654  F0000080              C	 DD 30*08000000h+OFFSET 128
    7513 1658  F0000080              C	 DD 30*08000000h+OFFSET 128
    7514 165C  F0000080              C	 DD 30*08000000h+OFFSET 128
    7515 1660  F0000080              C	 DD 30*08000000h+OFFSET 128
    7516 1664  F0000080              C	 DD 30*08000000h+OFFSET 128
    7517 1668  F0000080              C	 DD 30*08000000h+OFFSET 128
    7518 166C  F0000080              C	 DD 30*08000000h+OFFSET 128
    7519 1670  F0000080              C	 DD 30*08000000h+OFFSET 128
    7520 1674  F0000080              C	 DD 30*08000000h+OFFSET 128
    7521 1678  F0000080              C	 DD 30*08000000h+OFFSET 128
    7522 167C  F0000080              C	 DD 30*08000000h+OFFSET 128
    7523 1680  F0000080              C	 DD 30*08000000h+OFFSET 128
    7524 1684  F0000080              C	 DD 30*08000000h+OFFSET 128
    7525 1688  F0000080              C	 DD 30*08000000h+OFFSET 128
    7526 168C  F0000080              C	 DD 30*08000000h+OFFSET 128
    7527 1690  F0000080              C	 DD 30*08000000h+OFFSET 128
    7528 1694  F0000080              C	 DD 30*08000000h+OFFSET 128
    7529 1698  F0000080              C	 DD 30*08000000h+OFFSET 128
    7530 169C  F0000080              C	 DD 30*08000000h+OFFSET 128
    7531 16A0  F0000080              C	 DD 30*08000000h+OFFSET 128
    7532 16A4  F0000080              C	 DD 30*08000000h+OFFSET 128
    7533 16A8  F0000080              C	 DD 30*08000000h+OFFSET 128
    7534 16AC  F0000080              C	 DD 30*08000000h+OFFSET 128
    7535 16B0  F0000080              C	 DD 30*08000000h+OFFSET 128
    7536 16B4  F0000080              C	 DD 30*08000000h+OFFSET 128
    7537 16B8  F0000080              C	 DD 30*08000000h+OFFSET 128
    7538 16BC  F0000080              C	 DD 30*08000000h+OFFSET 128
    7539 16C0  F0000080              C	 DD 30*08000000h+OFFSET 128
    7540 16C4  F0000080              C	 DD 30*08000000h+OFFSET 128
    7541 16C8  F0000080              C	 DD 30*08000000h+OFFSET 128
    7542 16CC  F0000080              C	 DD 30*08000000h+OFFSET 128
    7543 16D0  F0000080              C	 DD 30*08000000h+OFFSET 128
    7544 16D4  F0000080              C	 DD 30*08000000h+OFFSET 128
    7545 16D8  F0000080              C	 DD 30*08000000h+OFFSET 128
    7546 16DC  F0000080              C	 DD 30*08000000h+OFFSET 128
    7547 16E0  F0000080              C	 DD 30*08000000h+OFFSET 128
    7548 16E4  F0000080              C	 DD 30*08000000h+OFFSET 128
    7549 16E8  F0000080              C	 DD 30*08000000h+OFFSET 128
    7550 16EC  F0000080              C	 DD 30*08000000h+OFFSET 128
    7551 16F0  F0000080              C	 DD 30*08000000h+OFFSET 128
    7552 16F4  F0000080              C	 DD 30*08000000h+OFFSET 128
    7553 16F8  F0000080              C	 DD 30*08000000h+OFFSET 128
    7554 16FC  F0000080              C	 DD 30*08000000h+OFFSET 128
Microsoft (R) Macro Assembler Version 5.10                  11/16/97 16:56:0
                                                             Page     1-145


    7555 1700  F0000080              C	 DD 30*08000000h+OFFSET 128
    7556 1704  F0000080              C	 DD 30*08000000h+OFFSET 128
    7557 1708  F0000080              C	 DD 30*08000000h+OFFSET 128
    7558 170C  F0000080              C	 DD 30*08000000h+OFFSET 128
    7559 1710  F0000080              C	 DD 30*08000000h+OFFSET 128
    7560 1714  F0000080              C	 DD 30*08000000h+OFFSET 128
    7561 1718  F0000080              C	 DD 30*08000000h+OFFSET 128
    7562 171C  F0000080              C	 DD 30*08000000h+OFFSET 128
    7563 1720  F0000080              C	 DD 30*08000000h+OFFSET 128
    7564 1724  F0000080              C	 DD 30*08000000h+OFFSET 128
    7565 1728  F0000080              C	 DD 30*08000000h+OFFSET 128
    7566 172C  F0000080              C	 DD 30*08000000h+OFFSET 128
    7567 1730  F0000080              C	 DD 30*08000000h+OFFSET 128
    7568 1734  F0000080              C	 DD 30*08000000h+OFFSET 128
    7569 1738  F0000080              C	 DD 30*08000000h+OFFSET 128
    7570 173C  F0000080              C	 DD 30*08000000h+OFFSET 128
    7571 1740  F0000080              C	 DD 30*08000000h+OFFSET 128
    7572 1744  F0000080              C	 DD 30*08000000h+OFFSET 128
    7573 1748  F0000080              C	 DD 30*08000000h+OFFSET 128
    7574 174C  F0000080              C	 DD 30*08000000h+OFFSET 128
    7575 1750  F0000080              C	 DD 30*08000000h+OFFSET 128
    7576			     C	 PUBLIC symnam
    7577			     C	  ALIGN 4
    7578 1754  20002374 R            C	symnam  DD 4*08000000h+OFFSET l0266
    7579 1758  2000237C R            C	 DD 4*08000000h+OFFSET l0267
    7580 175C  20002384 R            C	 DD 4*08000000h+OFFSET l0268
    7581 1760  2000238C R            C	 DD 4*08000000h+OFFSET l0269
    7582 1764  20002394 R            C	 DD 4*08000000h+OFFSET l0270
    7583 1768  2000239C R            C	 DD 4*08000000h+OFFSET l0271
    7584 176C  200023A4 R            C	 DD 4*08000000h+OFFSET l0272
    7585 1770  200023AC R            C	 DD 4*08000000h+OFFSET l0273
    7586 1774  200023B4 R            C	 DD 4*08000000h+OFFSET l0274
    7587 1778  200023BC R            C	 DD 4*08000000h+OFFSET l0275
    7588 177C  200023C4 R            C	 DD 4*08000000h+OFFSET l0276
    7589 1780  200023CC R            C	 DD 4*08000000h+OFFSET l0277
    7590 1784  200023D4 R            C	 DD 4*08000000h+OFFSET l0278
    7591 1788  200023DC R            C	 DD 4*08000000h+OFFSET l0279
    7592 178C  200023E4 R            C	 DD 4*08000000h+OFFSET l0280
    7593 1790  200023EC R            C	 DD 4*08000000h+OFFSET l0281
    7594 1794  200023F4 R            C	 DD 4*08000000h+OFFSET l0282
    7595 1798  200023FC R            C	 DD 4*08000000h+OFFSET l0283
    7596 179C  20002404 R            C	 DD 4*08000000h+OFFSET l0284
    7597 17A0  2000240C R            C	 DD 4*08000000h+OFFSET l0285
    7598 17A4  20002414 R            C	 DD 4*08000000h+OFFSET l0286
    7599 17A8  2000241C R            C	 DD 4*08000000h+OFFSET l0287
    7600 17AC  20002424 R            C	 DD 4*08000000h+OFFSET l0288
    7601 17B0  2000242C R            C	 DD 4*08000000h+OFFSET l0289
    7602 17B4  20002434 R            C	 DD 4*08000000h+OFFSET l0290
    7603 17B8  2000243C R            C	 DD 4*08000000h+OFFSET l0291
    7604 17BC  20002444 R            C	 DD 4*08000000h+OFFSET l0292
    7605 17C0  2000244C R            C	 DD 4*08000000h+OFFSET l0293
    7606 17C4  20002454 R            C	 DD 4*08000000h+OFFSET l0294
    7607 17C8  2000245C R            C	 DD 4*08000000h+OFFSET l0295
    7608 17CC  20002464 R            C	 DD 4*08000000h+OFFSET l0296
Microsoft (R) Macro Assembler Version 5.10                  11/16/97 16:56:0
                                                             Page     1-146


    7609 17D0  2000246C R            C	 DD 4*08000000h+OFFSET l0297
    7610 17D4  20002474 R            C	 DD 4*08000000h+OFFSET l0298
    7611 17D8  2000247C R            C	 DD 4*08000000h+OFFSET l0299
    7612 17DC  20002484 R            C	 DD 4*08000000h+OFFSET l0300
    7613 17E0  2000248C R            C	 DD 4*08000000h+OFFSET l0301
    7614 17E4  20002494 R            C	 DD 4*08000000h+OFFSET l0302
    7615 17E8  2000249C R            C	 DD 4*08000000h+OFFSET l0303
    7616 17EC  200024A4 R            C	 DD 4*08000000h+OFFSET l0304
    7617 17F0  200024AC R            C	 DD 4*08000000h+OFFSET l0305
    7618 17F4  200024B4 R            C	 DD 4*08000000h+OFFSET l0306
    7619 17F8  200024BC R            C	 DD 4*08000000h+OFFSET l0307
    7620 17FC  200024C4 R            C	 DD 4*08000000h+OFFSET l0308
    7621 1800  200024CC R            C	 DD 4*08000000h+OFFSET l0309
    7622 1804  200024D4 R            C	 DD 4*08000000h+OFFSET l0310
    7623 1808  200024DC R            C	 DD 4*08000000h+OFFSET l0311
    7624 180C  200024E4 R            C	 DD 4*08000000h+OFFSET l0312
    7625 1810  200024EC R            C	 DD 4*08000000h+OFFSET l0313
    7626 1814  200024F4 R            C	 DD 4*08000000h+OFFSET l0314
    7627 1818  200024FC R            C	 DD 4*08000000h+OFFSET l0315
    7628 181C  20002504 R            C	 DD 4*08000000h+OFFSET l0316
    7629 1820  2000250C R            C	 DD 4*08000000h+OFFSET l0317
    7630 1824  20002514 R            C	 DD 4*08000000h+OFFSET l0318
    7631 1828  2000251C R            C	 DD 4*08000000h+OFFSET l0319
    7632 182C  20002524 R            C	 DD 4*08000000h+OFFSET l0320
    7633 1830  2000252C R            C	 DD 4*08000000h+OFFSET l0321
    7634 1834  20002534 R            C	 DD 4*08000000h+OFFSET l0322
    7635 1838  2000253C R            C	 DD 4*08000000h+OFFSET l0323
    7636 183C  20002544 R            C	 DD 4*08000000h+OFFSET l0324
    7637 1840  2000254C R            C	 DD 4*08000000h+OFFSET l0325
    7638 1844  20002554 R            C	 DD 4*08000000h+OFFSET l0326
    7639 1848  2000255C R            C	 DD 4*08000000h+OFFSET l0327
    7640 184C  20002564 R            C	 DD 4*08000000h+OFFSET l0328
    7641 1850  2000256C R            C	 DD 4*08000000h+OFFSET l0329
    7642 1854  20002574 R            C	 DD 4*08000000h+OFFSET l0330
    7643 1858  2000257C R            C	 DD 4*08000000h+OFFSET l0331
    7644 185C  20002584 R            C	 DD 4*08000000h+OFFSET l0332
    7645 1860  2000258C R            C	 DD 4*08000000h+OFFSET l0333
    7646 1864  20002594 R            C	 DD 4*08000000h+OFFSET l0334
    7647 1868  2000259C R            C	 DD 4*08000000h+OFFSET l0335
    7648 186C  200025A4 R            C	 DD 4*08000000h+OFFSET l0336
    7649 1870  200025AC R            C	 DD 4*08000000h+OFFSET l0337
    7650 1874  200025B4 R            C	 DD 4*08000000h+OFFSET l0338
    7651 1878  200025BC R            C	 DD 4*08000000h+OFFSET l0339
    7652 187C  200025C4 R            C	 DD 4*08000000h+OFFSET l0340
    7653 1880  200025CC R            C	 DD 4*08000000h+OFFSET l0341
    7654 1884  200025D4 R            C	 DD 4*08000000h+OFFSET l0342
    7655 1888  200025DC R            C	 DD 4*08000000h+OFFSET l0343
    7656 188C  200025E4 R            C	 DD 4*08000000h+OFFSET l0344
    7657 1890  200025EC R            C	 DD 4*08000000h+OFFSET l0345
    7658 1894  200025F4 R            C	 DD 4*08000000h+OFFSET l0346
    7659 1898  200025FC R            C	 DD 4*08000000h+OFFSET l0347
    7660 189C  20002604 R            C	 DD 4*08000000h+OFFSET l0348
    7661 18A0  2000260C R            C	 DD 4*08000000h+OFFSET l0349
    7662 18A4  20002614 R            C	 DD 4*08000000h+OFFSET l0350
Microsoft (R) Macro Assembler Version 5.10                  11/16/97 16:56:0
                                                             Page     1-147


    7663 18A8  2000261C R            C	 DD 4*08000000h+OFFSET l0351
    7664 18AC  20002624 R            C	 DD 4*08000000h+OFFSET l0352
    7665 18B0  2000262C R            C	 DD 4*08000000h+OFFSET l0353
    7666 18B4  20002634 R            C	 DD 4*08000000h+OFFSET l0354
    7667 18B8  2000263C R            C	 DD 4*08000000h+OFFSET l0355
    7668 18BC  20002644 R            C	 DD 4*08000000h+OFFSET l0356
    7669 18C0  2000264C R            C	 DD 4*08000000h+OFFSET l0357
    7670 18C4  20002654 R            C	 DD 4*08000000h+OFFSET l0358
    7671 18C8  2000265C R            C	 DD 4*08000000h+OFFSET l0359
    7672 18CC  20002664 R            C	 DD 4*08000000h+OFFSET l0360
    7673 18D0  2000266C R            C	 DD 4*08000000h+OFFSET l0361
    7674 18D4  20002674 R            C	 DD 4*08000000h+OFFSET l0362
    7675 18D8  2000267C R            C	 DD 4*08000000h+OFFSET l0363
    7676 18DC  20002684 R            C	 DD 4*08000000h+OFFSET l0364
    7677 18E0  2000268C R            C	 DD 4*08000000h+OFFSET l0365
    7678 18E4  20002694 R            C	 DD 4*08000000h+OFFSET l0366
    7679 18E8  2000269C R            C	 DD 4*08000000h+OFFSET l0367
    7680 18EC  200026A4 R            C	 DD 4*08000000h+OFFSET l0368
    7681 18F0  200026AC R            C	 DD 4*08000000h+OFFSET l0369
    7682 18F4  200026B4 R            C	 DD 4*08000000h+OFFSET l0370
    7683 18F8  200026BC R            C	 DD 4*08000000h+OFFSET l0371
    7684 18FC  200026C4 R            C	 DD 4*08000000h+OFFSET l0372
    7685 1900  200026CC R            C	 DD 4*08000000h+OFFSET l0373
    7686 1904  200026D4 R            C	 DD 4*08000000h+OFFSET l0374
    7687 1908  200026DC R            C	 DD 4*08000000h+OFFSET l0375
    7688 190C  200026E4 R            C	 DD 4*08000000h+OFFSET l0376
    7689 1910  200026EC R            C	 DD 4*08000000h+OFFSET l0377
    7690 1914  200026F4 R            C	 DD 4*08000000h+OFFSET l0378
    7691 1918  200026FC R            C	 DD 4*08000000h+OFFSET l0379
    7692 191C  20002704 R            C	 DD 4*08000000h+OFFSET l0380
    7693 1920  2000270C R            C	 DD 4*08000000h+OFFSET l0381
    7694 1924  20002714 R            C	 DD 4*08000000h+OFFSET l0382
    7695 1928  2000271C R            C	 DD 4*08000000h+OFFSET l0383
    7696 192C  20002724 R            C	 DD 4*08000000h+OFFSET l0384
    7697 1930  2000272C R            C	 DD 4*08000000h+OFFSET l0385
    7698 1934  20002734 R            C	 DD 4*08000000h+OFFSET l0386
    7699 1938  2000273C R            C	 DD 4*08000000h+OFFSET l0387
    7700 193C  20002744 R            C	 DD 4*08000000h+OFFSET l0388
    7701 1940  2000274C R            C	 DD 4*08000000h+OFFSET l0389
    7702 1944  20002754 R            C	 DD 4*08000000h+OFFSET l0390
    7703 1948  2000275C R            C	 DD 4*08000000h+OFFSET l0391
    7704 194C  20002764 R            C	 DD 4*08000000h+OFFSET l0392
    7705 1950  2000276C R            C	 DD 4*08000000h+OFFSET l0393
    7706 1954  20002774 R            C	 DD 4*08000000h+OFFSET l0394
    7707 1958  2000277C R            C	 DD 4*08000000h+OFFSET l0395
    7708 195C  20002784 R            C	 DD 4*08000000h+OFFSET l0396
    7709 1960  2000278C R            C	 DD 4*08000000h+OFFSET l0397
    7710 1964  20002794 R            C	 DD 4*08000000h+OFFSET l0398
    7711 1968  2000279C R            C	 DD 4*08000000h+OFFSET l0399
    7712 196C  200027A4 R            C	 DD 4*08000000h+OFFSET l0400
    7713 1970  200027AC R            C	 DD 4*08000000h+OFFSET l0401
    7714 1974  200027B4 R            C	 DD 4*08000000h+OFFSET l0402
    7715 1978  200027BC R            C	 DD 4*08000000h+OFFSET l0403
    7716 197C  200027C4 R            C	 DD 4*08000000h+OFFSET l0404
Microsoft (R) Macro Assembler Version 5.10                  11/16/97 16:56:0
                                                             Page     1-148


    7717 1980  200027CC R            C	 DD 4*08000000h+OFFSET l0405
    7718 1984  200027D4 R            C	 DD 4*08000000h+OFFSET l0406
    7719 1988  200027DC R            C	 DD 4*08000000h+OFFSET l0407
    7720 198C  200027E4 R            C	 DD 4*08000000h+OFFSET l0408
    7721 1990  200027EC R            C	 DD 4*08000000h+OFFSET l0409
    7722 1994  200027F4 R            C	 DD 4*08000000h+OFFSET l0410
    7723 1998  200027FC R            C	 DD 4*08000000h+OFFSET l0411
    7724 199C  20002804 R            C	 DD 4*08000000h+OFFSET l0412
    7725 19A0  2000280C R            C	 DD 4*08000000h+OFFSET l0413
    7726 19A4  20002814 R            C	 DD 4*08000000h+OFFSET l0414
    7727 19A8  2000281C R            C	 DD 4*08000000h+OFFSET l0415
    7728 19AC  20002824 R            C	 DD 4*08000000h+OFFSET l0416
    7729 19B0  2000282C R            C	 DD 4*08000000h+OFFSET l0417
    7730 19B4  20002834 R            C	 DD 4*08000000h+OFFSET l0418
    7731 19B8  2000283C R            C	 DD 4*08000000h+OFFSET l0419
    7732 19BC  20002844 R            C	 DD 4*08000000h+OFFSET l0420
    7733 19C0  2000284C R            C	 DD 4*08000000h+OFFSET l0421
    7734 19C4  20002854 R            C	 DD 4*08000000h+OFFSET l0422
    7735 19C8  2000285C R            C	 DD 4*08000000h+OFFSET l0423
    7736 19CC  20002864 R            C	 DD 4*08000000h+OFFSET l0424
    7737 19D0  2000286C R            C	 DD 4*08000000h+OFFSET l0425
    7738 19D4  20002874 R            C	 DD 4*08000000h+OFFSET l0426
    7739 19D8  2000287C R            C	 DD 4*08000000h+OFFSET l0427
    7740 19DC  20002884 R            C	 DD 4*08000000h+OFFSET l0428
    7741 19E0  2000288C R            C	 DD 4*08000000h+OFFSET l0429
    7742 19E4  20002894 R            C	 DD 4*08000000h+OFFSET l0430
    7743 19E8  2000289C R            C	 DD 4*08000000h+OFFSET l0431
    7744 19EC  200028A4 R            C	 DD 4*08000000h+OFFSET l0432
    7745 19F0  200028AC R            C	 DD 4*08000000h+OFFSET l0433
    7746 19F4  200028B4 R            C	 DD 4*08000000h+OFFSET l0434
    7747 19F8  200028BC R            C	 DD 4*08000000h+OFFSET l0435
    7748 19FC  200028C4 R            C	 DD 4*08000000h+OFFSET l0436
    7749 1A00  200028CC R            C	 DD 4*08000000h+OFFSET l0437
    7750 1A04  200028D4 R            C	 DD 4*08000000h+OFFSET l0438
    7751 1A08  200028DC R            C	 DD 4*08000000h+OFFSET l0439
    7752 1A0C  200028E4 R            C	 DD 4*08000000h+OFFSET l0440
    7753 1A10  200028EC R            C	 DD 4*08000000h+OFFSET l0441
    7754 1A14  200028F4 R            C	 DD 4*08000000h+OFFSET l0442
    7755 1A18  200028FC R            C	 DD 4*08000000h+OFFSET l0443
    7756 1A1C  20002904 R            C	 DD 4*08000000h+OFFSET l0444
    7757 1A20  2000290C R            C	 DD 4*08000000h+OFFSET l0445
    7758 1A24  20002914 R            C	 DD 4*08000000h+OFFSET l0446
    7759 1A28  2000291C R            C	 DD 4*08000000h+OFFSET l0447
    7760 1A2C  20002924 R            C	 DD 4*08000000h+OFFSET l0448
    7761 1A30  2000292C R            C	 DD 4*08000000h+OFFSET l0449
    7762 1A34  20002934 R            C	 DD 4*08000000h+OFFSET l0450
    7763 1A38  2000293C R            C	 DD 4*08000000h+OFFSET l0451
    7764 1A3C  20002944 R            C	 DD 4*08000000h+OFFSET l0452
    7765 1A40  2000294C R            C	 DD 4*08000000h+OFFSET l0453
    7766 1A44  20002954 R            C	 DD 4*08000000h+OFFSET l0454
    7767 1A48  2000295C R            C	 DD 4*08000000h+OFFSET l0455
    7768 1A4C  20002964 R            C	 DD 4*08000000h+OFFSET l0456
    7769 1A50  2000296C R            C	 DD 4*08000000h+OFFSET l0457
    7770 1A54  20002974 R            C	 DD 4*08000000h+OFFSET l0458
Microsoft (R) Macro Assembler Version 5.10                  11/16/97 16:56:0
                                                             Page     1-149


    7771 1A58  2000297C R            C	 DD 4*08000000h+OFFSET l0459
    7772 1A5C  20002984 R            C	 DD 4*08000000h+OFFSET l0460
    7773 1A60  2000298C R            C	 DD 4*08000000h+OFFSET l0461
    7774 1A64  20002994 R            C	 DD 4*08000000h+OFFSET l0462
    7775 1A68  2000299C R            C	 DD 4*08000000h+OFFSET l0463
    7776 1A6C  200029A4 R            C	 DD 4*08000000h+OFFSET l0464
    7777 1A70  200029AC R            C	 DD 4*08000000h+OFFSET l0465
    7778 1A74  200029B4 R            C	 DD 4*08000000h+OFFSET l0466
    7779 1A78  200029BC R            C	 DD 4*08000000h+OFFSET l0467
    7780 1A7C  200029C4 R            C	 DD 4*08000000h+OFFSET l0468
    7781 1A80  200029CC R            C	 DD 4*08000000h+OFFSET l0469
    7782 1A84  200029D4 R            C	 DD 4*08000000h+OFFSET l0470
    7783 1A88  200029DC R            C	 DD 4*08000000h+OFFSET l0471
    7784 1A8C  200029E4 R            C	 DD 4*08000000h+OFFSET l0472
    7785 1A90  200029EC R            C	 DD 4*08000000h+OFFSET l0473
    7786 1A94  200029F4 R            C	 DD 4*08000000h+OFFSET l0474
    7787 1A98  200029FC R            C	 DD 4*08000000h+OFFSET l0475
    7788 1A9C  20002A04 R            C	 DD 4*08000000h+OFFSET l0476
    7789 1AA0  20002A0C R            C	 DD 4*08000000h+OFFSET l0477
    7790 1AA4  20002A14 R            C	 DD 4*08000000h+OFFSET l0478
    7791 1AA8  20002A1C R            C	 DD 4*08000000h+OFFSET l0479
    7792 1AAC  20002A24 R            C	 DD 4*08000000h+OFFSET l0480
    7793 1AB0  20002A2C R            C	 DD 4*08000000h+OFFSET l0481
    7794 1AB4  20002A34 R            C	 DD 4*08000000h+OFFSET l0482
    7795 1AB8  20002A3C R            C	 DD 4*08000000h+OFFSET l0483
    7796 1ABC  20002A44 R            C	 DD 4*08000000h+OFFSET l0484
    7797 1AC0  20002A4C R            C	 DD 4*08000000h+OFFSET l0485
    7798 1AC4  20002A54 R            C	 DD 4*08000000h+OFFSET l0486
    7799 1AC8  20002A5C R            C	 DD 4*08000000h+OFFSET l0487
    7800 1ACC  20002A64 R            C	 DD 4*08000000h+OFFSET l0488
    7801 1AD0  20002A6C R            C	 DD 4*08000000h+OFFSET l0489
    7802 1AD4  20002A74 R            C	 DD 4*08000000h+OFFSET l0490
    7803 1AD8  20002A7C R            C	 DD 4*08000000h+OFFSET l0491
    7804 1ADC  20002A84 R            C	 DD 4*08000000h+OFFSET l0492
    7805 1AE0  20002A8C R            C	 DD 4*08000000h+OFFSET l0493
    7806 1AE4  20002A94 R            C	 DD 4*08000000h+OFFSET l0494
    7807 1AE8  20002A9C R            C	 DD 4*08000000h+OFFSET l0495
    7808 1AEC  20002AA4 R            C	 DD 4*08000000h+OFFSET l0496
    7809 1AF0  20002AAC R            C	 DD 4*08000000h+OFFSET l0497
    7810 1AF4  20002AB4 R            C	 DD 4*08000000h+OFFSET l0498
    7811 1AF8  20002ABC R            C	 DD 4*08000000h+OFFSET l0499
    7812 1AFC  20002AC4 R            C	 DD 4*08000000h+OFFSET l0500
    7813 1B00  20002ACC R            C	 DD 4*08000000h+OFFSET l0501
    7814 1B04  20002AD4 R            C	 DD 4*08000000h+OFFSET l0502
    7815 1B08  20002ADC R            C	 DD 4*08000000h+OFFSET l0503
    7816 1B0C  20002AE4 R            C	 DD 4*08000000h+OFFSET l0504
    7817 1B10  20002AEC R            C	 DD 4*08000000h+OFFSET l0505
    7818 1B14  20002AF4 R            C	 DD 4*08000000h+OFFSET l0506
    7819 1B18  20002AFC R            C	 DD 4*08000000h+OFFSET l0507
    7820 1B1C  20002B04 R            C	 DD 4*08000000h+OFFSET l0508
    7821 1B20  20002B0C R            C	 DD 4*08000000h+OFFSET l0509
    7822 1B24  20002B14 R            C	 DD 4*08000000h+OFFSET l0510
    7823 1B28  20002B1C R            C	 DD 4*08000000h+OFFSET l0511
    7824 1B2C  20002B24 R            C	 DD 4*08000000h+OFFSET l0512
Microsoft (R) Macro Assembler Version 5.10                  11/16/97 16:56:0
                                                             Page     1-150


    7825 1B30  20002B2C R            C	 DD 4*08000000h+OFFSET l0513
    7826 1B34  20002B34 R            C	 DD 4*08000000h+OFFSET l0514
    7827 1B38  20002B3C R            C	 DD 4*08000000h+OFFSET l0515
    7828 1B3C  20002B44 R            C	 DD 4*08000000h+OFFSET l0516
    7829 1B40  20002B4C R            C	 DD 4*08000000h+OFFSET l0517
    7830 1B44  20002B54 R            C	 DD 4*08000000h+OFFSET l0518
    7831 1B48  20002B5C R            C	 DD 4*08000000h+OFFSET l0519
    7832 1B4C  20002B64 R            C	 DD 4*08000000h+OFFSET l0520
    7833 1B50  20002B6C R            C	 DD 4*08000000h+OFFSET l0521
    7834 1B54  20002B74 R            C	 DD 4*08000000h+OFFSET l0522
    7835 1B58  20002B84 R            C	 DD 4*08000000h+OFFSET l0523
    7836 1B5C  20002B98 R            C	 DD 4*08000000h+OFFSET l0524
    7837 1B60  20002BA8 R            C	 DD 4*08000000h+OFFSET l0525
    7838 1B64  20002BB4 R            C	 DD 4*08000000h+OFFSET l0526
    7839 1B68  20002BC4 R            C	 DD 4*08000000h+OFFSET l0527
    7840 1B6C  20002BD4 R            C	 DD 4*08000000h+OFFSET l0528
    7841 1B70  20002BE8 R            C	 DD 4*08000000h+OFFSET l0529
    7842 1B74  20002BF8 R            C	 DD 4*08000000h+OFFSET l0530
    7843 1B78  20002C08 R            C	 DD 4*08000000h+OFFSET l0531
    7844 1B7C  20002C18 R            C	 DD 4*08000000h+OFFSET l0532
    7845 1B80  20002C2C R            C	 DD 4*08000000h+OFFSET l0533
    7846 1B84  20002C40 R            C	 DD 4*08000000h+OFFSET l0534
    7847 1B88  20002C54 R            C	 DD 4*08000000h+OFFSET l0535
    7848 1B8C  20002C68 R            C	 DD 4*08000000h+OFFSET l0536
    7849 1B90  20002C7C R            C	 DD 4*08000000h+OFFSET l0537
    7850 1B94  20002C88 R            C	 DD 4*08000000h+OFFSET l0538
    7851 1B98  20002C9C R            C	 DD 4*08000000h+OFFSET l0539
    7852 1B9C  20002CB0 R            C	 DD 4*08000000h+OFFSET l0540
    7853 1BA0  20002CC8 R            C	 DD 4*08000000h+OFFSET l0541
    7854 1BA4  20002CE0 R            C	 DD 4*08000000h+OFFSET l0542
    7855 1BA8  20002CF0 R            C	 DD 4*08000000h+OFFSET l0543
    7856 1BAC  20002D04 R            C	 DD 4*08000000h+OFFSET l0544
    7857 1BB0  20002D10 R            C	 DD 4*08000000h+OFFSET l0545
    7858 1BB4  20002D20 R            C	 DD 4*08000000h+OFFSET l0546
    7859 1BB8  20002D38 R            C	 DD 4*08000000h+OFFSET l0547
    7860 1BBC  20002D50 R            C	 DD 4*08000000h+OFFSET l0548
    7861 1BC0  20002D60 R            C	 DD 4*08000000h+OFFSET l0549
    7862 1BC4  20002D74 R            C	 DD 4*08000000h+OFFSET l0550
    7863 1BC8  20002D88 R            C	 DD 4*08000000h+OFFSET l0551
    7864 1BCC  20002D9C R            C	 DD 4*08000000h+OFFSET l0552
    7865 1BD0  20002DA8 R            C	 DD 4*08000000h+OFFSET l0553
    7866 1BD4  20002DBC R            C	 DD 4*08000000h+OFFSET l0554
    7867 1BD8  20002DCC R            C	 DD 4*08000000h+OFFSET l0555
    7868 1BDC  20002DE4 R            C	 DD 4*08000000h+OFFSET l0556
    7869 1BE0  20002DFC R            C	 DD 4*08000000h+OFFSET l0557
    7870 1BE4  20002E14 R            C	 DD 4*08000000h+OFFSET l0558
    7871 1BE8  20002E2C R            C	 DD 4*08000000h+OFFSET l0559
    7872 1BEC  20002E38 R            C	 DD 4*08000000h+OFFSET l0560
    7873 1BF0  20002E48 R            C	 DD 4*08000000h+OFFSET l0561
    7874 1BF4  20002E58 R            C	 DD 4*08000000h+OFFSET l0562
    7875 1BF8  20002E68 R            C	 DD 4*08000000h+OFFSET l0563
    7876 1BFC  20002E78 R            C	 DD 4*08000000h+OFFSET l0564
    7877 1C00  20002E84 R            C	 DD 4*08000000h+OFFSET l0565
    7878 1C04  20002E90 R            C	 DD 4*08000000h+OFFSET l0566
Microsoft (R) Macro Assembler Version 5.10                  11/16/97 16:56:0
                                                             Page     1-151


    7879 1C08  20002EA8 R            C	 DD 4*08000000h+OFFSET l0567
    7880 1C0C  20002EC4 R            C	 DD 4*08000000h+OFFSET l0568
    7881 1C10  20002ED4 R            C	 DD 4*08000000h+OFFSET l0569
    7882 1C14  20002EE4 R            C	 DD 4*08000000h+OFFSET l0570
    7883 1C18  20002EF8 R            C	 DD 4*08000000h+OFFSET l0571
    7884 1C1C  20002F08 R            C	 DD 4*08000000h+OFFSET l0572
    7885 1C20  20002F18 R            C	 DD 4*08000000h+OFFSET l0573
    7886 1C24  20002F30 R            C	 DD 4*08000000h+OFFSET l0574
    7887 1C28  20002F3C R            C	 DD 4*08000000h+OFFSET l0575
    7888 1C2C  20002F4C R            C	 DD 4*08000000h+OFFSET l0576
    7889 1C30  20002F58 R            C	 DD 4*08000000h+OFFSET l0577
    7890 1C34  20002F68 R            C	 DD 4*08000000h+OFFSET l0578
    7891 1C38  20002F74 R            C	 DD 4*08000000h+OFFSET l0579
    7892 1C3C  20002F84 R            C	 DD 4*08000000h+OFFSET l0580
    7893 1C40  20002F90 R            C	 DD 4*08000000h+OFFSET l0581
    7894 1C44  20002FA0 R            C	 DD 4*08000000h+OFFSET l0582
    7895 1C48  20002FB4 R            C	 DD 4*08000000h+OFFSET l0583
    7896 1C4C  20002FC8 R            C	 DD 4*08000000h+OFFSET l0584
    7897 1C50  20002FDC R            C	 DD 4*08000000h+OFFSET l0585
    7898 1C54  20002FF0 R            C	 DD 4*08000000h+OFFSET l0586
    7899 1C58  20003000 R            C	 DD 4*08000000h+OFFSET l0587
    7900 1C5C  20003018 R            C	 DD 4*08000000h+OFFSET l0588
    7901 1C60  2000302C R            C	 DD 4*08000000h+OFFSET l0589
    7902 1C64  2000303C R            C	 DD 4*08000000h+OFFSET l0590
    7903 1C68  20003050 R            C	 DD 4*08000000h+OFFSET l0591
    7904 1C6C  2000305C R            C	 DD 4*08000000h+OFFSET l0592
    7905 1C70  20003068 R            C	 DD 4*08000000h+OFFSET l0593
    7906 1C74  20003078 R            C	 DD 4*08000000h+OFFSET l0594
    7907 1C78  20003088 R            C	 DD 4*08000000h+OFFSET l0595
    7908 1C7C  200030A4 R            C	 DD 4*08000000h+OFFSET l0596
    7909 1C80  200030B4 R            C	 DD 4*08000000h+OFFSET l0597
    7910 1C84  200030D0 R            C	 DD 4*08000000h+OFFSET l0598
    7911 1C88  200030E4 R            C	 DD 4*08000000h+OFFSET l0599
    7912 1C8C  200030F0 R            C	 DD 4*08000000h+OFFSET l0600
    7913 1C90  20003100 R            C	 DD 4*08000000h+OFFSET l0601
    7914 1C94  20003114 R            C	 DD 4*08000000h+OFFSET l0602
    7915 1C98  20003120 R            C	 DD 4*08000000h+OFFSET l0603
    7916 1C9C  20003130 R            C	 DD 4*08000000h+OFFSET l0604
    7917 1CA0  20003140 R            C	 DD 4*08000000h+OFFSET l0605
    7918 1CA4  2000315C R            C	 DD 4*08000000h+OFFSET l0606
    7919 1CA8  2000316C R            C	 DD 4*08000000h+OFFSET l0607
    7920 1CAC  2000317C R            C	 DD 4*08000000h+OFFSET l0608
    7921 1CB0  20003194 R            C	 DD 4*08000000h+OFFSET l0609
    7922 1CB4  200031A8 R            C	 DD 4*08000000h+OFFSET l0610
    7923 1CB8  200031B4 R            C	 DD 4*08000000h+OFFSET l0611
    7924 1CBC  200031C4 R            C	 DD 4*08000000h+OFFSET l0612
    7925 1CC0  200031D0 R            C	 DD 4*08000000h+OFFSET l0613
    7926 1CC4  200031E4 R            C	 DD 4*08000000h+OFFSET l0614
    7927 1CC8  200031F0 R            C	 DD 4*08000000h+OFFSET l0615
    7928 1CCC  20003200 R            C	 DD 4*08000000h+OFFSET l0616
    7929 1CD0  20003214 R            C	 DD 4*08000000h+OFFSET l0617
    7930 1CD4  20003228 R            C	 DD 4*08000000h+OFFSET l0618
    7931 1CD8  20003248 R            C	 DD 4*08000000h+OFFSET l0619
    7932 1CDC  20003254 R            C	 DD 4*08000000h+OFFSET l0620
Microsoft (R) Macro Assembler Version 5.10                  11/16/97 16:56:0
                                                             Page     1-152


    7933 1CE0  20003260 R            C	 DD 4*08000000h+OFFSET l0621
    7934 1CE4  20003274 R            C	 DD 4*08000000h+OFFSET l0622
    7935 1CE8  20003290 R            C	 DD 4*08000000h+OFFSET l0623
    7936 1CEC  2000329C R            C	 DD 4*08000000h+OFFSET l0624
    7937 1CF0  200032AC R            C	 DD 4*08000000h+OFFSET l0625
    7938 1CF4  200032C4 R            C	 DD 4*08000000h+OFFSET l0626
    7939 1CF8  200032DC R            C	 DD 4*08000000h+OFFSET l0627
    7940 1CFC  200032F0 R            C	 DD 4*08000000h+OFFSET l0628
    7941 1D00  2000330C R            C	 DD 4*08000000h+OFFSET l0629
    7942 1D04  20003320 R            C	 DD 4*08000000h+OFFSET l0630
    7943 1D08  20003334 R            C	 DD 4*08000000h+OFFSET l0631
    7944 1D0C  20003348 R            C	 DD 4*08000000h+OFFSET l0632
    7945 1D10  20003354 R            C	 DD 4*08000000h+OFFSET l0633
    7946 1D14  20003360 R            C	 DD 4*08000000h+OFFSET l0634
    7947 1D18  20003378 R            C	 DD 4*08000000h+OFFSET l0635
    7948 1D1C  2000338C R            C	 DD 4*08000000h+OFFSET l0636
    7949 1D20  200033A0 R            C	 DD 4*08000000h+OFFSET l0637
    7950 1D24  200033AC R            C	 DD 4*08000000h+OFFSET l0638
    7951 1D28  200033C0 R            C	 DD 4*08000000h+OFFSET l0639
    7952 1D2C  200033D4 R            C	 DD 4*08000000h+OFFSET l0640
    7953 1D30  200033E8 R            C	 DD 4*08000000h+OFFSET l0641
    7954 1D34  20003400 R            C	 DD 4*08000000h+OFFSET l0642
    7955 1D38  20003418 R            C	 DD 4*08000000h+OFFSET l0643
    7956 1D3C  20003430 R            C	 DD 4*08000000h+OFFSET l0644
    7957 1D40  20003448 R            C	 DD 4*08000000h+OFFSET l0645
    7958 1D44  20003454 R            C	 DD 4*08000000h+OFFSET l0646
    7959 1D48  20003464 R            C	 DD 4*08000000h+OFFSET l0647
    7960 1D4C  20003478 R            C	 DD 4*08000000h+OFFSET l0648
    7961 1D50  20003494 R            C	 DD 4*08000000h+OFFSET l0649
    7962 1D54  200034A0 R            C	 DD 4*08000000h+OFFSET l0650
    7963 1D58  200034B0 R            C	 DD 4*08000000h+OFFSET l0651
    7964 1D5C  200034C8 R            C	 DD 4*08000000h+OFFSET l0652
    7965 1D60  200034D8 R            C	 DD 4*08000000h+OFFSET l0653
    7966 1D64  200034E4 R            C	 DD 4*08000000h+OFFSET l0654
    7967 1D68  200034F8 R            C	 DD 4*08000000h+OFFSET l0655
    7968 1D6C  20003504 R            C	 DD 4*08000000h+OFFSET l0656
    7969 1D70  20003510 R            C	 DD 4*08000000h+OFFSET l0657
    7970 1D74  2000351C R            C	 DD 4*08000000h+OFFSET l0658
    7971 1D78  2000352C R            C	 DD 4*08000000h+OFFSET l0659
    7972 1D7C  20003538 R            C	 DD 4*08000000h+OFFSET l0660
    7973 1D80  2000354C R            C	 DD 4*08000000h+OFFSET l0661
    7974 1D84  20003554 R            C	 DD 4*08000000h+OFFSET l0662
    7975 1D88  20003568 R            C	 DD 4*08000000h+OFFSET l0663
    7976 1D8C  20003574 R            C	 DD 4*08000000h+OFFSET l0664
    7977 1D90  2000358C R            C	 DD 4*08000000h+OFFSET l0665
    7978 1D94  2000359C R            C	 DD 4*08000000h+OFFSET l0666
    7979 1D98  200035B4 R            C	 DD 4*08000000h+OFFSET l0667
    7980 1D9C  200035C0 R            C	 DD 4*08000000h+OFFSET l0668
    7981 1DA0  200035CC R            C	 DD 4*08000000h+OFFSET l0669
    7982 1DA4  200035D8 R            C	 DD 4*08000000h+OFFSET l0670
    7983 1DA8  200035E4 R            C	 DD 4*08000000h+OFFSET l0671
    7984 1DAC  200035F0 R            C	 DD 4*08000000h+OFFSET l0672
    7985 1DB0  20003600 R            C	 DD 4*08000000h+OFFSET l0673
    7986 1DB4  20003618 R            C	 DD 4*08000000h+OFFSET l0674
Microsoft (R) Macro Assembler Version 5.10                  11/16/97 16:56:0
                                                             Page     1-153


    7987 1DB8  20003630 R            C	 DD 4*08000000h+OFFSET l0675
    7988 1DBC  2000363C R            C	 DD 4*08000000h+OFFSET l0676
    7989 1DC0  20003648 R            C	 DD 4*08000000h+OFFSET l0677
    7990 1DC4  20003654 R            C	 DD 4*08000000h+OFFSET l0678
    7991 1DC8  20003660 R            C	 DD 4*08000000h+OFFSET l0679
    7992 1DCC  20003680 R            C	 DD 4*08000000h+OFFSET l0680
    7993 1DD0  2000369C R            C	 DD 4*08000000h+OFFSET l0681
    7994 1DD4  200036C0 R            C	 DD 4*08000000h+OFFSET l0682
    7995 1DD8  200036D4 R            C	 DD 4*08000000h+OFFSET l0683
    7996 1DDC  200036E8 R            C	 DD 4*08000000h+OFFSET l0684
    7997 1DE0  200036FC R            C	 DD 4*08000000h+OFFSET l0685
    7998 1DE4  20003710 R            C	 DD 4*08000000h+OFFSET l0686
    7999 1DE8  20003724 R            C	 DD 4*08000000h+OFFSET l0687
    8000 1DEC  20003738 R            C	 DD 4*08000000h+OFFSET l0688
    8001 1DF0  2000374C R            C	 DD 4*08000000h+OFFSET l0689
    8002 1DF4  20003760 R            C	 DD 4*08000000h+OFFSET l0690
    8003 1DF8  20003774 R            C	 DD 4*08000000h+OFFSET l0691
    8004 1DFC  20003788 R            C	 DD 4*08000000h+OFFSET l0692
    8005 1E00  2000379C R            C	 DD 4*08000000h+OFFSET l0693
    8006 1E04  200037B0 R            C	 DD 4*08000000h+OFFSET l0694
    8007 1E08  200037C4 R            C	 DD 4*08000000h+OFFSET l0695
    8008 1E0C  200037D0 R            C	 DD 4*08000000h+OFFSET l0696
    8009 1E10  200037DC R            C	 DD 4*08000000h+OFFSET l0697
    8010 1E14  200037EC R            C	 DD 4*08000000h+OFFSET l0698
    8011 1E18  200037F8 R            C	 DD 4*08000000h+OFFSET l0699
    8012 1E1C  2000380C R            C	 DD 4*08000000h+OFFSET l0700
    8013 1E20  2000381C R            C	 DD 4*08000000h+OFFSET l0701
    8014 1E24  2000382C R            C	 DD 4*08000000h+OFFSET l0702
    8015 1E28  2000383C R            C	 DD 4*08000000h+OFFSET l0703
    8016 1E2C  20003848 R            C	 DD 4*08000000h+OFFSET l0704
    8017 1E30  2000385C R            C	 DD 4*08000000h+OFFSET l0705
    8018 1E34  20003870 R            C	 DD 4*08000000h+OFFSET l0706
    8019 1E38  20003884 R            C	 DD 4*08000000h+OFFSET l0707
    8020 1E3C  20003890 R            C	 DD 4*08000000h+OFFSET l0708
    8021 1E40  2000389C R            C	 DD 4*08000000h+OFFSET l0709
    8022 1E44  200038A8 R            C	 DD 4*08000000h+OFFSET l0710
    8023 1E48  200038B4 R            C	 DD 4*08000000h+OFFSET l0711
    8024 1E4C  200038C0 R            C	 DD 4*08000000h+OFFSET l0712
    8025 1E50  200038CC R            C	 DD 4*08000000h+OFFSET l0713
    8026 1E54  200038D8 R            C	 DD 4*08000000h+OFFSET l0714
    8027 1E58  200038E4 R            C	 DD 4*08000000h+OFFSET l0715
    8028 1E5C  200038F0 R            C	 DD 4*08000000h+OFFSET l0716
    8029 1E60  200038FC R            C	 DD 4*08000000h+OFFSET l0717
    8030 1E64  20003910 R            C	 DD 4*08000000h+OFFSET l0718
    8031 1E68  20003920 R            C	 DD 4*08000000h+OFFSET l0719
    8032 1E6C  20003930 R            C	 DD 4*08000000h+OFFSET l0720
    8033 1E70  2000393C R            C	 DD 4*08000000h+OFFSET l0721
    8034 1E74  2000394C R            C	 DD 4*08000000h+OFFSET l0722
    8035 1E78  20003964 R            C	 DD 4*08000000h+OFFSET l0723
    8036 1E7C  20003970 R            C	 DD 4*08000000h+OFFSET l0724
    8037 1E80  20003980 R            C	 DD 4*08000000h+OFFSET l0725
    8038 1E84  20003990 R            C	 DD 4*08000000h+OFFSET l0726
    8039 1E88  200039A0 R            C	 DD 4*08000000h+OFFSET l0727
    8040 1E8C  200039B0 R            C	 DD 4*08000000h+OFFSET l0728
Microsoft (R) Macro Assembler Version 5.10                  11/16/97 16:56:0
                                                             Page     1-154


    8041 1E90  200039C0 R            C	 DD 4*08000000h+OFFSET l0729
    8042 1E94  200039D0 R            C	 DD 4*08000000h+OFFSET l0730
    8043 1E98  200039DC R            C	 DD 4*08000000h+OFFSET l0731
    8044 1E9C  200039F0 R            C	 DD 4*08000000h+OFFSET l0732
    8045 1EA0  200039FC R            C	 DD 4*08000000h+OFFSET l0733
    8046 1EA4  20003A08 R            C	 DD 4*08000000h+OFFSET l0734
    8047 1EA8  20003A18 R            C	 DD 4*08000000h+OFFSET l0735
    8048 1EAC  20003A24 R            C	 DD 4*08000000h+OFFSET l0736
    8049 1EB0  20003A30 R            C	 DD 4*08000000h+OFFSET l0737
    8050 1EB4  20003A3C R            C	 DD 4*08000000h+OFFSET l0738
    8051 1EB8  20003A50 R            C	 DD 4*08000000h+OFFSET l0739
    8052 1EBC  20003A60 R            C	 DD 4*08000000h+OFFSET l0740
    8053 1EC0  20003A70 R            C	 DD 4*08000000h+OFFSET l0741
    8054 1EC4  20003A7C R            C	 DD 4*08000000h+OFFSET l0742
    8055 1EC8  20003A88 R            C	 DD 4*08000000h+OFFSET l0743
    8056 1ECC  20003A98 R            C	 DD 4*08000000h+OFFSET l0744
    8057 1ED0  20003AAC R            C	 DD 4*08000000h+OFFSET l0745
    8058 1ED4  20003AB8 R            C	 DD 4*08000000h+OFFSET l0746
    8059 1ED8  20003AC4 R            C	 DD 4*08000000h+OFFSET l0747
    8060 1EDC  20003AD0 R            C	 DD 4*08000000h+OFFSET l0748
    8061 1EE0  20003ADC R            C	 DD 4*08000000h+OFFSET l0749
    8062 1EE4  20003AE8 R            C	 DD 4*08000000h+OFFSET l0750
    8063 1EE8  20003AFC R            C	 DD 4*08000000h+OFFSET l0751
    8064 1EEC  20003B14 R            C	 DD 4*08000000h+OFFSET l0752
    8065 1EF0  20003B2C R            C	 DD 4*08000000h+OFFSET l0753
    8066 1EF4  20003B40 R            C	 DD 4*08000000h+OFFSET l0754
    8067 1EF8  20003B50 R            C	 DD 4*08000000h+OFFSET l0755
    8068 1EFC  20003B68 R            C	 DD 4*08000000h+OFFSET l0756
    8069 1F00  20003B84 R            C	 DD 4*08000000h+OFFSET l0757
    8070 1F04  20003BA8 R            C	 DD 4*08000000h+OFFSET l0758
    8071 1F08  20003BC8 R            C	 DD 4*08000000h+OFFSET l0759
    8072 1F0C  20003BD8 R            C	 DD 4*08000000h+OFFSET l0760
    8073 1F10  20003BEC R            C	 DD 4*08000000h+OFFSET l0761
    8074 1F14  20003BFC R            C	 DD 4*08000000h+OFFSET l0762
    8075 1F18  9C40[                 C	  DD 40000 DUP (?) 
    8076	   ????????          C	
    8077			 ]   C	
    8078			     C	
    8079				  INCLUDE KSTRUCTS.ASM
    8080			     C	 PUBLIC argumentblock
    8081			     C	 ALIGN 4
    8082 00029018                    C	argumentblock  DB  64 DUP (0)
    8083	   0040[             C	
    8084	       00            C	
    8085			 ]   C	
    8086			     C	
    8087			     C	 PUBLIC tokenbuffer
    8088			     C	 ALIGN 4
    8089 00029058                    C	tokenbuffer  DB  20004 DUP (0)
    8090	   4E24[             C	
    8091	       00            C	
    8092			 ]   C	
    8093			     C	
    8094			     C	 PUBLIC bndstk
Microsoft (R) Macro Assembler Version 5.10                  11/16/97 16:56:0
                                                             Page     1-155


    8095			     C	 ALIGN 4
    8096 0002DE7C                    C	bndstk  DB  8004 DUP (0)
    8097	   1F44[             C	
    8098	       00            C	
    8099			 ]   C	
    8100			     C	
    8101			     C	 PUBLIC catchstack
    8102			     C	 ALIGN 4
    8103 0002FDC0                    C	catchstack  DB  6404 DUP (0)
    8104	   1904[             C	
    8105	       00            C	
    8106			 ]   C	
    8107			     C	
    8108			     C	 PUBLIC hashtable
    8109			     C	 ALIGN 4
    8110 000316C4                    C	hashtable  DB  36028 DUP (0)
    8111	   8CBC[             C	
    8112	       00            C	
    8113			 ]   C	
    8114			     C	
    8115			     C	 PUBLIC onewordbuffer
    8116			     C	 ALIGN 4
    8117 0003A380                    C	onewordbuffer  DB  8 DUP (0)
    8118	   0008[             C	
    8119	       00            C	
    8120			 ]   C	
    8121			     C	
    8122			     C	 PUBLIC saveargc
    8123			     C	 ALIGN 4
    8124 0003A388                    C	saveargc  DB  8 DUP (0)
    8125	   0008[             C	
    8126	       00            C	
    8127			 ]   C	
    8128			     C	
    8129			     C	 PUBLIC saveargv
    8130			     C	 ALIGN 4
    8131 0003A390                    C	saveargv  DB  8 DUP (0)
    8132	   0008[             C	
    8133	       00            C	
    8134			 ]   C	
    8135			     C	
    8136			     C	 PUBLIC datebuffer
    8137			     C	 ALIGN 4
    8138 0003A398                    C	datebuffer  DB  8 DUP (0)
    8139	   0008[             C	
    8140	       00            C	
    8141			 ]   C	
    8142			     C	
    8143 0003A3A0			_DATA   ends
    8144				   END  
Microsoft (R) Macro Assembler Version 5.10                  11/16/97 16:56:0
                                                             Symbols-1


Segments and Groups:

                N a m e         	Size	Length	 Align	Combine Class

DGROUP . . . . . . . . . . . . .  	GROUP
  _DATA  . . . . . . . . . . . .  	32 Bit	0003A3A0 DWORD	PUBLIC	'DATA'
  _BSS . . . . . . . . . . . . .  	32 Bit	0000	DWORD	PUBLIC	'BSS'
_TEXT  . . . . . . . . . . . . .  	32 Bit	3C0E	DWORD	PUBLIC	'CODE'

Symbols:            

                N a m e         	Type	 Value	 Attr

argumentblock  . . . . . . . . .  	L BYTE	00029018 _DATA	Global	Length = 0040
atsoc  . . . . . . . . . . . . .  	L NEAR	1869	_TEXT	Global

binaryclose  . . . . . . . . . .  	L NEAR	04FA	_TEXT	Global
binaryopenread . . . . . . . . .  	L NEAR	0492	_TEXT	Global
binaryread . . . . . . . . . . .  	L NEAR	04D1	_TEXT	Global
binaryreadblock  . . . . . . . .  	L NEAR	04E0	_TEXT	Global
bittable . . . . . . . . . . . .  	L NEAR	2179	_TEXT	Global
bndstk . . . . . . . . . . . . .  	L BYTE	0002DE7C _DATA	Global	Length = 1F44

catchstack . . . . . . . . . . .  	L BYTE	0002FDC0 _DATA	Global	Length = 1904
codeaddressp . . . . . . . . . .  	L NEAR	2292	_TEXT	Global
compiledcallinginterpreted . . .  	L NEAR	221C	_TEXT	Global
cons . . . . . . . . . . . . . .  	L NEAR	1771	_TEXT	Global
copystringtofrom . . . . . . . .  	L NEAR	16E0	_TEXT	Global

datebuffer . . . . . . . . . . .  	L BYTE	0003A398 _DATA	Global	Length = 0008
delbps . . . . . . . . . . . . .  	L NEAR	0CEC	_TEXT	Global

external_strlen  . . . . . . . .  	L NEAR	03EA	_TEXT	Global

faslin . . . . . . . . . . . . .  	L NEAR	0AD1	_TEXT	Global
fflush . . . . . . . . . . . . .  	L NEAR	2021	_TEXT	Global
fgetc  . . . . . . . . . . . . .  	L NEAR	1FF4	_TEXT	Global
fgets  . . . . . . . . . . . . .  	L NEAR	2003	_TEXT	Global
firstkernel  . . . . . . . . . .  	L NEAR	0004	_TEXT	Global
fluid  . . . . . . . . . . . . .  	L NEAR	19AF	_TEXT	Global
fputc  . . . . . . . . . . . . .  	L NEAR	1FE5	_TEXT	Global
fread  . . . . . . . . . . . . .  	L NEAR	1FD6	_TEXT	Global
fwrite . . . . . . . . . . . . .  	L NEAR	2012	_TEXT	Global

gtbps  . . . . . . . . . . . . .  	L NEAR	1238	_TEXT	Global
gtconststr . . . . . . . . . . .  	L NEAR	1461	_TEXT	Global
gtheap . . . . . . . . . . . . .  	L NEAR	133A	_TEXT	Global
gtid . . . . . . . . . . . . . .  	L NEAR	13E3	_TEXT	Global
gtwrds . . . . . . . . . . . . .  	L NEAR	1435	_TEXT	Global

hashtable  . . . . . . . . . . .  	L BYTE	000316C4 _DATA	Global	Length = 8CBC

initcode . . . . . . . . . . . .  	L NEAR	236D	_TEXT	Global
Microsoft (R) Macro Assembler Version 5.10                  11/16/97 16:56:0
                                                             Symbols-2


intern . . . . . . . . . . . . .  	L NEAR	06EA	_TEXT	Global
interrogate  . . . . . . . . . .  	L NEAR	17A5	_TEXT	Global

l0001  . . . . . . . . . . . . .  	L NEAR	0009	_TEXT	Global
l0002  . . . . . . . . . . . . .  	L NEAR	0085	_TEXT	Global
l0003  . . . . . . . . . . . . .  	L NEAR	010C	_TEXT	Global
l0004  . . . . . . . . . . . . .  	L NEAR	0174	_TEXT	Global
l0005  . . . . . . . . . . . . .  	L NEAR	01FF	_TEXT
l0006  . . . . . . . . . . . . .  	L NEAR	0244	_TEXT
l0007  . . . . . . . . . . . . .  	L NEAR	024C	_TEXT	Global
l0008  . . . . . . . . . . . . .  	L NEAR	025F	_TEXT
l0009  . . . . . . . . . . . . .  	L NEAR	0271	_TEXT
l0010  . . . . . . . . . . . . .  	L NEAR	0287	_TEXT
l0011  . . . . . . . . . . . . .  	L NEAR	0319	_TEXT
l0012  . . . . . . . . . . . . .  	L NEAR	0328	_TEXT	Global
l0013  . . . . . . . . . . . . .  	L NEAR	035A	_TEXT	Global
l0014  . . . . . . . . . . . . .  	L NEAR	0364	_TEXT	Global
l0015  . . . . . . . . . . . . .  	L NEAR	036A	_TEXT
l0016  . . . . . . . . . . . . .  	L NEAR	0386	_TEXT
l0017  . . . . . . . . . . . . .  	L NEAR	039A	_TEXT	Global
l0018  . . . . . . . . . . . . .  	L NEAR	03F1	_TEXT
l0019  . . . . . . . . . . . . .  	L NEAR	0410	_TEXT
l0020  . . . . . . . . . . . . .  	L NEAR	0416	_TEXT
l0021  . . . . . . . . . . . . .  	L NEAR	041E	_TEXT	Global
l0022  . . . . . . . . . . . . .  	L NEAR	0428	_TEXT	Global
l0023  . . . . . . . . . . . . .  	L NEAR	043F	_TEXT	Global
l0024  . . . . . . . . . . . . .  	L NEAR	044E	_TEXT	Global
l0025  . . . . . . . . . . . . .  	L NEAR	045E	_TEXT
l0026  . . . . . . . . . . . . .  	L NEAR	0466	_TEXT
l0027  . . . . . . . . . . . . .  	L NEAR	04CC	_TEXT
l0028  . . . . . . . . . . . . .  	L NEAR	0509	_TEXT	Global
l0029  . . . . . . . . . . . . .  	L NEAR	052A	_TEXT
l0030  . . . . . . . . . . . . .  	L NEAR	0547	_TEXT
l0031  . . . . . . . . . . . . .  	L NEAR	0565	_TEXT
l0032  . . . . . . . . . . . . .  	L NEAR	0587	_TEXT
l0033  . . . . . . . . . . . . .  	L NEAR	05C5	_TEXT
l0034  . . . . . . . . . . . . .  	L NEAR	0600	_TEXT
l0035  . . . . . . . . . . . . .  	L NEAR	0612	_TEXT	Global
l0036  . . . . . . . . . . . . .  	L NEAR	0658	_TEXT
l0037  . . . . . . . . . . . . .  	L NEAR	069B	_TEXT
l0038  . . . . . . . . . . . . .  	L NEAR	06B1	_TEXT
l0039  . . . . . . . . . . . . .  	L NEAR	06D8	_TEXT
l0040  . . . . . . . . . . . . .  	L NEAR	06F5	_TEXT
l0041  . . . . . . . . . . . . .  	L NEAR	0707	_TEXT	Global
l0042  . . . . . . . . . . . . .  	L NEAR	0764	_TEXT
l0043  . . . . . . . . . . . . .  	L NEAR	0856	_TEXT
l0044  . . . . . . . . . . . . .  	L NEAR	07B8	_TEXT
l0045  . . . . . . . . . . . . .  	L NEAR	07F2	_TEXT
l0046  . . . . . . . . . . . . .  	L NEAR	085A	_TEXT
l0047  . . . . . . . . . . . . .  	L NEAR	0876	_TEXT	Global
l0048  . . . . . . . . . . . . .  	L NEAR	08AC	_TEXT
l0049  . . . . . . . . . . . . .  	L NEAR	08E8	_TEXT
l0050  . . . . . . . . . . . . .  	L NEAR	08DF	_TEXT
l0051  . . . . . . . . . . . . .  	L NEAR	08E3	_TEXT
Microsoft (R) Macro Assembler Version 5.10                  11/16/97 16:56:0
                                                             Symbols-3


l0052  . . . . . . . . . . . . .  	L NEAR	09A3	_TEXT
l0053  . . . . . . . . . . . . .  	L NEAR	0921	_TEXT
l0054  . . . . . . . . . . . . .  	L NEAR	0964	_TEXT
l0055  . . . . . . . . . . . . .  	L NEAR	0979	_TEXT
l0056  . . . . . . . . . . . . .  	L NEAR	0980	_TEXT
l0057  . . . . . . . . . . . . .  	L NEAR	09AB	_TEXT	Global
l0058  . . . . . . . . . . . . .  	L NEAR	0AA5	_TEXT
l0059  . . . . . . . . . . . . .  	L NEAR	0AA9	_TEXT
l0060  . . . . . . . . . . . . .  	L NEAR	0A1B	_TEXT	Global
l0061  . . . . . . . . . . . . .  	L NEAR	0A5A	_TEXT
l0062  . . . . . . . . . . . . .  	L NEAR	0A67	_TEXT
l0063  . . . . . . . . . . . . .  	L NEAR	0ABB	_TEXT
l0064  . . . . . . . . . . . . .  	L NEAR	0B77	_TEXT
l0065  . . . . . . . . . . . . .  	L NEAR	0CDF	_TEXT
l0066  . . . . . . . . . . . . .  	L NEAR	0C85	_TEXT
l0067  . . . . . . . . . . . . .  	L NEAR	0CA0	_TEXT
l0068  . . . . . . . . . . . . .  	L NEAR	0CF6	_TEXT	Global
l0069  . . . . . . . . . . . . .  	L NEAR	0D25	_TEXT
l0070  . . . . . . . . . . . . .  	L NEAR	0D3C	_TEXT
l0071  . . . . . . . . . . . . .  	L NEAR	0DEB	_TEXT
l0072  . . . . . . . . . . . . .  	L NEAR	0D93	_TEXT
l0073  . . . . . . . . . . . . .  	L NEAR	0DCB	_TEXT
l0074  . . . . . . . . . . . . .  	L NEAR	0DAF	_TEXT
l0075  . . . . . . . . . . . . .  	L NEAR	0DE2	_TEXT
l0076  . . . . . . . . . . . . .  	L NEAR	0DF3	_TEXT	Global
l0077  . . . . . . . . . . . . .  	L NEAR	0E2E	_TEXT
l0078  . . . . . . . . . . . . .  	L NEAR	0E57	_TEXT
l0079  . . . . . . . . . . . . .  	L NEAR	0EEA	_TEXT
l0080  . . . . . . . . . . . . .  	L NEAR	0E96	_TEXT
l0081  . . . . . . . . . . . . .  	L NEAR	0ECE	_TEXT
l0082  . . . . . . . . . . . . .  	L NEAR	0EB2	_TEXT
l0083  . . . . . . . . . . . . .  	L NEAR	0EF2	_TEXT	Global
l0084  . . . . . . . . . . . . .  	L NEAR	0F35	_TEXT	Global
l0085  . . . . . . . . . . . . .  	L NEAR	0F8B	_TEXT	Global
l0086  . . . . . . . . . . . . .  	L NEAR	0FA2	_TEXT
l0087  . . . . . . . . . . . . .  	L NEAR	108D	_TEXT
l0088  . . . . . . . . . . . . .  	L NEAR	1020	_TEXT
l0089  . . . . . . . . . . . . .  	L NEAR	0FCC	_TEXT
l0090  . . . . . . . . . . . . .  	L NEAR	1010	_TEXT
l0091  . . . . . . . . . . . . .  	L NEAR	1002	_TEXT
l0092  . . . . . . . . . . . . .  	L NEAR	1059	_TEXT
l0093  . . . . . . . . . . . . .  	L NEAR	1048	_TEXT
l0094  . . . . . . . . . . . . .  	L NEAR	1088	_TEXT
l0095  . . . . . . . . . . . . .  	L NEAR	1081	_TEXT
l0096  . . . . . . . . . . . . .  	L NEAR	1095	_TEXT	Global
l0097  . . . . . . . . . . . . .  	L NEAR	109F	_TEXT	Global
l0098  . . . . . . . . . . . . .  	L NEAR	10B8	_TEXT	Global
l0099  . . . . . . . . . . . . .  	L NEAR	1112	_TEXT
l0100  . . . . . . . . . . . . .  	L NEAR	11AC	_TEXT
l0101  . . . . . . . . . . . . .  	L NEAR	11D5	_TEXT
l0102  . . . . . . . . . . . . .  	L NEAR	11F5	_TEXT	Global
l0103  . . . . . . . . . . . . .  	L NEAR	1210	_TEXT
l0104  . . . . . . . . . . . . .  	L NEAR	123F	_TEXT
l0105  . . . . . . . . . . . . .  	L NEAR	1258	_TEXT
Microsoft (R) Macro Assembler Version 5.10                  11/16/97 16:56:0
                                                             Symbols-4


l0106  . . . . . . . . . . . . .  	L NEAR	128B	_TEXT
l0107  . . . . . . . . . . . . .  	L NEAR	1302	_TEXT
l0108  . . . . . . . . . . . . .  	L NEAR	12EF	_TEXT
l0109  . . . . . . . . . . . . .  	L NEAR	1306	_TEXT
l0110  . . . . . . . . . . . . .  	L NEAR	1326	_TEXT	Global
l0111  . . . . . . . . . . . . .  	L NEAR	1350	_TEXT
l0112  . . . . . . . . . . . . .  	L NEAR	135F	_TEXT	Global
l0113  . . . . . . . . . . . . .  	L NEAR	1390	_TEXT
l0114  . . . . . . . . . . . . .  	L NEAR	1391	_TEXT
l0115  . . . . . . . . . . . . .  	L NEAR	13B7	_TEXT	Global
l0116  . . . . . . . . . . . . .  	L NEAR	13C7	_TEXT
l0117  . . . . . . . . . . . . .  	L NEAR	1418	_TEXT
l0118  . . . . . . . . . . . . .  	L NEAR	14A0	_TEXT
l0119  . . . . . . . . . . . . .  	L NEAR	1511	_TEXT
l0120  . . . . . . . . . . . . .  	L NEAR	154D	_TEXT
l0121  . . . . . . . . . . . . .  	L NEAR	159B	_TEXT
l0122  . . . . . . . . . . . . .  	L NEAR	15B1	_TEXT	Global
l0123  . . . . . . . . . . . . .  	L NEAR	15D7	_TEXT
l0124  . . . . . . . . . . . . .  	L NEAR	15EF	_TEXT
l0125  . . . . . . . . . . . . .  	L NEAR	161D	_TEXT
l0126  . . . . . . . . . . . . .  	L NEAR	1617	_TEXT
l0127  . . . . . . . . . . . . .  	L NEAR	1625	_TEXT	Global
l0128  . . . . . . . . . . . . .  	L NEAR	1675	_TEXT
l0129  . . . . . . . . . . . . .  	L NEAR	16D8	_TEXT
l0130  . . . . . . . . . . . . .  	L NEAR	167D	_TEXT
l0131  . . . . . . . . . . . . .  	L NEAR	1695	_TEXT
l0132  . . . . . . . . . . . . .  	L NEAR	16D2	_TEXT
l0133  . . . . . . . . . . . . .  	L NEAR	1721	_TEXT
l0134  . . . . . . . . . . . . .  	L NEAR	173E	_TEXT
l0135  . . . . . . . . . . . . .  	L NEAR	1765	_TEXT
l0136  . . . . . . . . . . . . .  	L NEAR	17D6	_TEXT	Global
l0137  . . . . . . . . . . . . .  	L NEAR	182B	_TEXT
l0138  . . . . . . . . . . . . .  	L NEAR	185D	_TEXT
l0139  . . . . . . . . . . . . .  	L NEAR	1869	_TEXT
l0140  . . . . . . . . . . . . .  	L NEAR	187D	_TEXT
l0141  . . . . . . . . . . . . .  	L NEAR	18A8	_TEXT
l0142  . . . . . . . . . . . . .  	L NEAR	18B4	_TEXT	Global
l0143  . . . . . . . . . . . . .  	L NEAR	18CB	_TEXT	Global
l0144  . . . . . . . . . . . . .  	L NEAR	18EB	_TEXT
l0145  . . . . . . . . . . . . .  	L NEAR	190F	_TEXT	Global
l0146  . . . . . . . . . . . . .  	L NEAR	194B	_TEXT
l0147  . . . . . . . . . . . . .  	L NEAR	195B	_TEXT
l0148  . . . . . . . . . . . . .  	L NEAR	19A2	_TEXT
l0149  . . . . . . . . . . . . .  	L NEAR	19ED	_TEXT
l0150  . . . . . . . . . . . . .  	L NEAR	19F2	_TEXT
l0151  . . . . . . . . . . . . .  	L NEAR	19F6	_TEXT
l0152  . . . . . . . . . . . . .  	L NEAR	1A10	_TEXT
l0153  . . . . . . . . . . . . .  	L NEAR	1A51	_TEXT
l0154  . . . . . . . . . . . . .  	L NEAR	1A46	_TEXT
l0155  . . . . . . . . . . . . .  	L NEAR	1A4B	_TEXT
l0156  . . . . . . . . . . . . .  	L NEAR	1A59	_TEXT	Global
l0157  . . . . . . . . . . . . .  	L NEAR	1A81	_TEXT	Global
l0158  . . . . . . . . . . . . .  	L NEAR	1AAD	_TEXT	Global
l0159  . . . . . . . . . . . . .  	L NEAR	1AC5	_TEXT
Microsoft (R) Macro Assembler Version 5.10                  11/16/97 16:56:0
                                                             Symbols-5


l0160  . . . . . . . . . . . . .  	L NEAR	1AD3	_TEXT	Global
l0161  . . . . . . . . . . . . .  	L NEAR	1AE0	_TEXT	Global
l0162  . . . . . . . . . . . . .  	L NEAR	1AED	_TEXT	Global
l0163  . . . . . . . . . . . . .  	L NEAR	1AFA	_TEXT	Global
l0164  . . . . . . . . . . . . .  	L NEAR	1B08	_TEXT	Global
l0165  . . . . . . . . . . . . .  	L NEAR	1B15	_TEXT	Global
l0166  . . . . . . . . . . . . .  	L NEAR	1B22	_TEXT	Global
l0167  . . . . . . . . . . . . .  	L NEAR	1B30	_TEXT	Global
l0168  . . . . . . . . . . . . .  	L NEAR	1B3E	_TEXT	Global
l0169  . . . . . . . . . . . . .  	L NEAR	1B4E	_TEXT	Global
l0170  . . . . . . . . . . . . .  	L NEAR	1B5D	_TEXT	Global
l0171  . . . . . . . . . . . . .  	L NEAR	1B6A	_TEXT	Global
l0172  . . . . . . . . . . . . .  	L NEAR	1B78	_TEXT	Global
l0173  . . . . . . . . . . . . .  	L NEAR	1B87	_TEXT	Global
l0174  . . . . . . . . . . . . .  	L NEAR	1B95	_TEXT	Global
l0175  . . . . . . . . . . . . .  	L NEAR	1BA3	_TEXT	Global
l0176  . . . . . . . . . . . . .  	L NEAR	1BB2	_TEXT	Global
l0177  . . . . . . . . . . . . .  	L NEAR	1BC1	_TEXT	Global
l0178  . . . . . . . . . . . . .  	L NEAR	1BCF	_TEXT	Global
l0179  . . . . . . . . . . . . .  	L NEAR	1BDE	_TEXT	Global
l0180  . . . . . . . . . . . . .  	L NEAR	1BEC	_TEXT	Global
l0181  . . . . . . . . . . . . .  	L NEAR	1BFB	_TEXT	Global
l0182  . . . . . . . . . . . . .  	L NEAR	1C09	_TEXT	Global
l0183  . . . . . . . . . . . . .  	L NEAR	1C18	_TEXT	Global
l0184  . . . . . . . . . . . . .  	L NEAR	1C28	_TEXT	Global
l0185  . . . . . . . . . . . . .  	L NEAR	1C38	_TEXT	Global
l0186  . . . . . . . . . . . . .  	L NEAR	1C48	_TEXT	Global
l0187  . . . . . . . . . . . . .  	L NEAR	1C58	_TEXT	Global
l0188  . . . . . . . . . . . . .  	L NEAR	1C69	_TEXT	Global
l0189  . . . . . . . . . . . . .  	L NEAR	1C7A	_TEXT	Global
l0190  . . . . . . . . . . . . .  	L NEAR	1C8A	_TEXT	Global
l0191  . . . . . . . . . . . . .  	L NEAR	1C99	_TEXT	Global
l0192  . . . . . . . . . . . . .  	L NEAR	1CA8	_TEXT	Global
l0193  . . . . . . . . . . . . .  	L NEAR	1CB7	_TEXT	Global
l0194  . . . . . . . . . . . . .  	L NEAR	1CC6	_TEXT	Global
l0195  . . . . . . . . . . . . .  	L NEAR	1CD5	_TEXT	Global
l0196  . . . . . . . . . . . . .  	L NEAR	1CE4	_TEXT	Global
l0197  . . . . . . . . . . . . .  	L NEAR	1CF3	_TEXT	Global
l0198  . . . . . . . . . . . . .  	L NEAR	1D02	_TEXT	Global
l0199  . . . . . . . . . . . . .  	L NEAR	1D11	_TEXT	Global
l0200  . . . . . . . . . . . . .  	L NEAR	1D20	_TEXT	Global
l0201  . . . . . . . . . . . . .  	L NEAR	1D2F	_TEXT	Global
l0202  . . . . . . . . . . . . .  	L NEAR	1D3F	_TEXT	Global
l0203  . . . . . . . . . . . . .  	L NEAR	1D4C	_TEXT	Global
l0204  . . . . . . . . . . . . .  	L NEAR	1D5B	_TEXT	Global
l0205  . . . . . . . . . . . . .  	L NEAR	1D6A	_TEXT	Global
l0206  . . . . . . . . . . . . .  	L NEAR	1D7B	_TEXT	Global
l0207  . . . . . . . . . . . . .  	L NEAR	1D89	_TEXT	Global
l0208  . . . . . . . . . . . . .  	L NEAR	1D97	_TEXT	Global
l0209  . . . . . . . . . . . . .  	L NEAR	1DA5	_TEXT	Global
l0210  . . . . . . . . . . . . .  	L NEAR	1DB2	_TEXT	Global
l0211  . . . . . . . . . . . . .  	L NEAR	1DC0	_TEXT	Global
l0212  . . . . . . . . . . . . .  	L NEAR	1DCF	_TEXT	Global
l0213  . . . . . . . . . . . . .  	L NEAR	1DDD	_TEXT	Global
Microsoft (R) Macro Assembler Version 5.10                  11/16/97 16:56:0
                                                             Symbols-6


l0214  . . . . . . . . . . . . .  	L NEAR	1DF5	_TEXT
l0215  . . . . . . . . . . . . .  	L NEAR	1E06	_TEXT	Global
l0216  . . . . . . . . . . . . .  	L NEAR	1E1E	_TEXT
l0217  . . . . . . . . . . . . .  	L NEAR	1E2D	_TEXT	Global
l0218  . . . . . . . . . . . . .  	L NEAR	1E45	_TEXT
l0219  . . . . . . . . . . . . .  	L NEAR	1E53	_TEXT	Global
l0220  . . . . . . . . . . . . .  	L NEAR	1E6B	_TEXT
l0221  . . . . . . . . . . . . .  	L NEAR	1E7B	_TEXT	Global
l0222  . . . . . . . . . . . . .  	L NEAR	1E93	_TEXT
l0223  . . . . . . . . . . . . .  	L NEAR	1EA4	_TEXT	Global
l0224  . . . . . . . . . . . . .  	L NEAR	1EBC	_TEXT
l0225  . . . . . . . . . . . . .  	L NEAR	1ECA	_TEXT	Global
l0226  . . . . . . . . . . . . .  	L NEAR	1ED8	_TEXT	Global
l0227  . . . . . . . . . . . . .  	L NEAR	1EE6	_TEXT	Global
l0228  . . . . . . . . . . . . .  	L NEAR	1EF4	_TEXT	Global
l0229  . . . . . . . . . . . . .  	L NEAR	1F03	_TEXT	Global
l0230  . . . . . . . . . . . . .  	L NEAR	1F11	_TEXT	Global
l0231  . . . . . . . . . . . . .  	L NEAR	1F21	_TEXT	Global
l0232  . . . . . . . . . . . . .  	L NEAR	1F2F	_TEXT	Global
l0233  . . . . . . . . . . . . .  	L NEAR	1F3D	_TEXT	Global
l0234  . . . . . . . . . . . . .  	L NEAR	1F4C	_TEXT	Global
l0235  . . . . . . . . . . . . .  	L NEAR	1F5B	_TEXT	Global
l0236  . . . . . . . . . . . . .  	L NEAR	1F69	_TEXT	Global
l0237  . . . . . . . . . . . . .  	L NEAR	1F79	_TEXT	Global
l0238  . . . . . . . . . . . . .  	L NEAR	1F8A	_TEXT	Global
l0239  . . . . . . . . . . . . .  	L NEAR	1F98	_TEXT	Global
l0240  . . . . . . . . . . . . .  	L NEAR	1FA9	_TEXT	Global
l0241  . . . . . . . . . . . . .  	L NEAR	1FB6	_TEXT	Global
l0242  . . . . . . . . . . . . .  	L NEAR	1FC7	_TEXT	Global
l0243  . . . . . . . . . . . . .  	L NEAR	2055	_TEXT
l0244  . . . . . . . . . . . . .  	L NEAR	2081	_TEXT	Global
l0245  . . . . . . . . . . . . .  	L NEAR	2097	_TEXT
l0246  . . . . . . . . . . . . .  	L NEAR	20C5	_TEXT
l0247  . . . . . . . . . . . . .  	L NEAR	20F5	_TEXT	Global
l0248  . . . . . . . . . . . . .  	L NEAR	2129	_TEXT
l0249  . . . . . . . . . . . . .  	L NEAR	2155	_TEXT	Global
l0250  . . . . . . . . . . . . .  	L NEAR	216B	_TEXT
l0251  . . . . . . . . . . . . .  	L NEAR	2173	_TEXT	Global
l0252  . . . . . . . . . . . . .  	L NEAR	21A6	_TEXT
l0253  . . . . . . . . . . . . .  	L NEAR	21AA	_TEXT
l0254  . . . . . . . . . . . . .  	L NEAR	21BD	_TEXT
l0255  . . . . . . . . . . . . .  	L NEAR	21E1	_TEXT	Global
l0256  . . . . . . . . . . . . .  	L NEAR	2239	_TEXT
l0257  . . . . . . . . . . . . .  	L NEAR	224F	_TEXT	Global
l0258  . . . . . . . . . . . . .  	L NEAR	22C9	_TEXT
l0259  . . . . . . . . . . . . .  	L NEAR	22CE	_TEXT
l0260  . . . . . . . . . . . . .  	L NEAR	2306	_TEXT
l0261  . . . . . . . . . . . . .  	L NEAR	2301	_TEXT
l0262  . . . . . . . . . . . . .  	L NEAR	2360	_TEXT
l0263  . . . . . . . . . . . . .  	L NEAR	232E	_TEXT
l0264  . . . . . . . . . . . . .  	L NEAR	2333	_TEXT
l0265  . . . . . . . . . . . . .  	L NEAR	235B	_TEXT
l0266  . . . . . . . . . . . . .  	L NEAR	2374	_TEXT	Global
l0267  . . . . . . . . . . . . .  	L NEAR	237C	_TEXT	Global
Microsoft (R) Macro Assembler Version 5.10                  11/16/97 16:56:0
                                                             Symbols-7


l0268  . . . . . . . . . . . . .  	L NEAR	2384	_TEXT	Global
l0269  . . . . . . . . . . . . .  	L NEAR	238C	_TEXT	Global
l0270  . . . . . . . . . . . . .  	L NEAR	2394	_TEXT	Global
l0271  . . . . . . . . . . . . .  	L NEAR	239C	_TEXT	Global
l0272  . . . . . . . . . . . . .  	L NEAR	23A4	_TEXT	Global
l0273  . . . . . . . . . . . . .  	L NEAR	23AC	_TEXT	Global
l0274  . . . . . . . . . . . . .  	L NEAR	23B4	_TEXT	Global
l0275  . . . . . . . . . . . . .  	L NEAR	23BC	_TEXT	Global
l0276  . . . . . . . . . . . . .  	L NEAR	23C4	_TEXT	Global
l0277  . . . . . . . . . . . . .  	L NEAR	23CC	_TEXT	Global
l0278  . . . . . . . . . . . . .  	L NEAR	23D4	_TEXT	Global
l0279  . . . . . . . . . . . . .  	L NEAR	23DC	_TEXT	Global
l0280  . . . . . . . . . . . . .  	L NEAR	23E4	_TEXT	Global
l0281  . . . . . . . . . . . . .  	L NEAR	23EC	_TEXT	Global
l0282  . . . . . . . . . . . . .  	L NEAR	23F4	_TEXT	Global
l0283  . . . . . . . . . . . . .  	L NEAR	23FC	_TEXT	Global
l0284  . . . . . . . . . . . . .  	L NEAR	2404	_TEXT	Global
l0285  . . . . . . . . . . . . .  	L NEAR	240C	_TEXT	Global
l0286  . . . . . . . . . . . . .  	L NEAR	2414	_TEXT	Global
l0287  . . . . . . . . . . . . .  	L NEAR	241C	_TEXT	Global
l0288  . . . . . . . . . . . . .  	L NEAR	2424	_TEXT	Global
l0289  . . . . . . . . . . . . .  	L NEAR	242C	_TEXT	Global
l0290  . . . . . . . . . . . . .  	L NEAR	2434	_TEXT	Global
l0291  . . . . . . . . . . . . .  	L NEAR	243C	_TEXT	Global
l0292  . . . . . . . . . . . . .  	L NEAR	2444	_TEXT	Global
l0293  . . . . . . . . . . . . .  	L NEAR	244C	_TEXT	Global
l0294  . . . . . . . . . . . . .  	L NEAR	2454	_TEXT	Global
l0295  . . . . . . . . . . . . .  	L NEAR	245C	_TEXT	Global
l0296  . . . . . . . . . . . . .  	L NEAR	2464	_TEXT	Global
l0297  . . . . . . . . . . . . .  	L NEAR	246C	_TEXT	Global
l0298  . . . . . . . . . . . . .  	L NEAR	2474	_TEXT	Global
l0299  . . . . . . . . . . . . .  	L NEAR	247C	_TEXT	Global
l0300  . . . . . . . . . . . . .  	L NEAR	2484	_TEXT	Global
l0301  . . . . . . . . . . . . .  	L NEAR	248C	_TEXT	Global
l0302  . . . . . . . . . . . . .  	L NEAR	2494	_TEXT	Global
l0303  . . . . . . . . . . . . .  	L NEAR	249C	_TEXT	Global
l0304  . . . . . . . . . . . . .  	L NEAR	24A4	_TEXT	Global
l0305  . . . . . . . . . . . . .  	L NEAR	24AC	_TEXT	Global
l0306  . . . . . . . . . . . . .  	L NEAR	24B4	_TEXT	Global
l0307  . . . . . . . . . . . . .  	L NEAR	24BC	_TEXT	Global
l0308  . . . . . . . . . . . . .  	L NEAR	24C4	_TEXT	Global
l0309  . . . . . . . . . . . . .  	L NEAR	24CC	_TEXT	Global
l0310  . . . . . . . . . . . . .  	L NEAR	24D4	_TEXT	Global
l0311  . . . . . . . . . . . . .  	L NEAR	24DC	_TEXT	Global
l0312  . . . . . . . . . . . . .  	L NEAR	24E4	_TEXT	Global
l0313  . . . . . . . . . . . . .  	L NEAR	24EC	_TEXT	Global
l0314  . . . . . . . . . . . . .  	L NEAR	24F4	_TEXT	Global
l0315  . . . . . . . . . . . . .  	L NEAR	24FC	_TEXT	Global
l0316  . . . . . . . . . . . . .  	L NEAR	2504	_TEXT	Global
l0317  . . . . . . . . . . . . .  	L NEAR	250C	_TEXT	Global
l0318  . . . . . . . . . . . . .  	L NEAR	2514	_TEXT	Global
l0319  . . . . . . . . . . . . .  	L NEAR	251C	_TEXT	Global
l0320  . . . . . . . . . . . . .  	L NEAR	2524	_TEXT	Global
l0321  . . . . . . . . . . . . .  	L NEAR	252C	_TEXT	Global
Microsoft (R) Macro Assembler Version 5.10                  11/16/97 16:56:0
                                                             Symbols-8


l0322  . . . . . . . . . . . . .  	L NEAR	2534	_TEXT	Global
l0323  . . . . . . . . . . . . .  	L NEAR	253C	_TEXT	Global
l0324  . . . . . . . . . . . . .  	L NEAR	2544	_TEXT	Global
l0325  . . . . . . . . . . . . .  	L NEAR	254C	_TEXT	Global
l0326  . . . . . . . . . . . . .  	L NEAR	2554	_TEXT	Global
l0327  . . . . . . . . . . . . .  	L NEAR	255C	_TEXT	Global
l0328  . . . . . . . . . . . . .  	L NEAR	2564	_TEXT	Global
l0329  . . . . . . . . . . . . .  	L NEAR	256C	_TEXT	Global
l0330  . . . . . . . . . . . . .  	L NEAR	2574	_TEXT	Global
l0331  . . . . . . . . . . . . .  	L NEAR	257C	_TEXT	Global
l0332  . . . . . . . . . . . . .  	L NEAR	2584	_TEXT	Global
l0333  . . . . . . . . . . . . .  	L NEAR	258C	_TEXT	Global
l0334  . . . . . . . . . . . . .  	L NEAR	2594	_TEXT	Global
l0335  . . . . . . . . . . . . .  	L NEAR	259C	_TEXT	Global
l0336  . . . . . . . . . . . . .  	L NEAR	25A4	_TEXT	Global
l0337  . . . . . . . . . . . . .  	L NEAR	25AC	_TEXT	Global
l0338  . . . . . . . . . . . . .  	L NEAR	25B4	_TEXT	Global
l0339  . . . . . . . . . . . . .  	L NEAR	25BC	_TEXT	Global
l0340  . . . . . . . . . . . . .  	L NEAR	25C4	_TEXT	Global
l0341  . . . . . . . . . . . . .  	L NEAR	25CC	_TEXT	Global
l0342  . . . . . . . . . . . . .  	L NEAR	25D4	_TEXT	Global
l0343  . . . . . . . . . . . . .  	L NEAR	25DC	_TEXT	Global
l0344  . . . . . . . . . . . . .  	L NEAR	25E4	_TEXT	Global
l0345  . . . . . . . . . . . . .  	L NEAR	25EC	_TEXT	Global
l0346  . . . . . . . . . . . . .  	L NEAR	25F4	_TEXT	Global
l0347  . . . . . . . . . . . . .  	L NEAR	25FC	_TEXT	Global
l0348  . . . . . . . . . . . . .  	L NEAR	2604	_TEXT	Global
l0349  . . . . . . . . . . . . .  	L NEAR	260C	_TEXT	Global
l0350  . . . . . . . . . . . . .  	L NEAR	2614	_TEXT	Global
l0351  . . . . . . . . . . . . .  	L NEAR	261C	_TEXT	Global
l0352  . . . . . . . . . . . . .  	L NEAR	2624	_TEXT	Global
l0353  . . . . . . . . . . . . .  	L NEAR	262C	_TEXT	Global
l0354  . . . . . . . . . . . . .  	L NEAR	2634	_TEXT	Global
l0355  . . . . . . . . . . . . .  	L NEAR	263C	_TEXT	Global
l0356  . . . . . . . . . . . . .  	L NEAR	2644	_TEXT	Global
l0357  . . . . . . . . . . . . .  	L NEAR	264C	_TEXT	Global
l0358  . . . . . . . . . . . . .  	L NEAR	2654	_TEXT	Global
l0359  . . . . . . . . . . . . .  	L NEAR	265C	_TEXT	Global
l0360  . . . . . . . . . . . . .  	L NEAR	2664	_TEXT	Global
l0361  . . . . . . . . . . . . .  	L NEAR	266C	_TEXT	Global
l0362  . . . . . . . . . . . . .  	L NEAR	2674	_TEXT	Global
l0363  . . . . . . . . . . . . .  	L NEAR	267C	_TEXT	Global
l0364  . . . . . . . . . . . . .  	L NEAR	2684	_TEXT	Global
l0365  . . . . . . . . . . . . .  	L NEAR	268C	_TEXT	Global
l0366  . . . . . . . . . . . . .  	L NEAR	2694	_TEXT	Global
l0367  . . . . . . . . . . . . .  	L NEAR	269C	_TEXT	Global
l0368  . . . . . . . . . . . . .  	L NEAR	26A4	_TEXT	Global
l0369  . . . . . . . . . . . . .  	L NEAR	26AC	_TEXT	Global
l0370  . . . . . . . . . . . . .  	L NEAR	26B4	_TEXT	Global
l0371  . . . . . . . . . . . . .  	L NEAR	26BC	_TEXT	Global
l0372  . . . . . . . . . . . . .  	L NEAR	26C4	_TEXT	Global
l0373  . . . . . . . . . . . . .  	L NEAR	26CC	_TEXT	Global
l0374  . . . . . . . . . . . . .  	L NEAR	26D4	_TEXT	Global
l0375  . . . . . . . . . . . . .  	L NEAR	26DC	_TEXT	Global
Microsoft (R) Macro Assembler Version 5.10                  11/16/97 16:56:0
                                                             Symbols-9


l0376  . . . . . . . . . . . . .  	L NEAR	26E4	_TEXT	Global
l0377  . . . . . . . . . . . . .  	L NEAR	26EC	_TEXT	Global
l0378  . . . . . . . . . . . . .  	L NEAR	26F4	_TEXT	Global
l0379  . . . . . . . . . . . . .  	L NEAR	26FC	_TEXT	Global
l0380  . . . . . . . . . . . . .  	L NEAR	2704	_TEXT	Global
l0381  . . . . . . . . . . . . .  	L NEAR	270C	_TEXT	Global
l0382  . . . . . . . . . . . . .  	L NEAR	2714	_TEXT	Global
l0383  . . . . . . . . . . . . .  	L NEAR	271C	_TEXT	Global
l0384  . . . . . . . . . . . . .  	L NEAR	2724	_TEXT	Global
l0385  . . . . . . . . . . . . .  	L NEAR	272C	_TEXT	Global
l0386  . . . . . . . . . . . . .  	L NEAR	2734	_TEXT	Global
l0387  . . . . . . . . . . . . .  	L NEAR	273C	_TEXT	Global
l0388  . . . . . . . . . . . . .  	L NEAR	2744	_TEXT	Global
l0389  . . . . . . . . . . . . .  	L NEAR	274C	_TEXT	Global
l0390  . . . . . . . . . . . . .  	L NEAR	2754	_TEXT	Global
l0391  . . . . . . . . . . . . .  	L NEAR	275C	_TEXT	Global
l0392  . . . . . . . . . . . . .  	L NEAR	2764	_TEXT	Global
l0393  . . . . . . . . . . . . .  	L NEAR	276C	_TEXT	Global
l0394  . . . . . . . . . . . . .  	L NEAR	2774	_TEXT	Global
l0395  . . . . . . . . . . . . .  	L NEAR	277C	_TEXT	Global
l0396  . . . . . . . . . . . . .  	L NEAR	2784	_TEXT	Global
l0397  . . . . . . . . . . . . .  	L NEAR	278C	_TEXT	Global
l0398  . . . . . . . . . . . . .  	L NEAR	2794	_TEXT	Global
l0399  . . . . . . . . . . . . .  	L NEAR	279C	_TEXT	Global
l0400  . . . . . . . . . . . . .  	L NEAR	27A4	_TEXT	Global
l0401  . . . . . . . . . . . . .  	L NEAR	27AC	_TEXT	Global
l0402  . . . . . . . . . . . . .  	L NEAR	27B4	_TEXT	Global
l0403  . . . . . . . . . . . . .  	L NEAR	27BC	_TEXT	Global
l0404  . . . . . . . . . . . . .  	L NEAR	27C4	_TEXT	Global
l0405  . . . . . . . . . . . . .  	L NEAR	27CC	_TEXT	Global
l0406  . . . . . . . . . . . . .  	L NEAR	27D4	_TEXT	Global
l0407  . . . . . . . . . . . . .  	L NEAR	27DC	_TEXT	Global
l0408  . . . . . . . . . . . . .  	L NEAR	27E4	_TEXT	Global
l0409  . . . . . . . . . . . . .  	L NEAR	27EC	_TEXT	Global
l0410  . . . . . . . . . . . . .  	L NEAR	27F4	_TEXT	Global
l0411  . . . . . . . . . . . . .  	L NEAR	27FC	_TEXT	Global
l0412  . . . . . . . . . . . . .  	L NEAR	2804	_TEXT	Global
l0413  . . . . . . . . . . . . .  	L NEAR	280C	_TEXT	Global
l0414  . . . . . . . . . . . . .  	L NEAR	2814	_TEXT	Global
l0415  . . . . . . . . . . . . .  	L NEAR	281C	_TEXT	Global
l0416  . . . . . . . . . . . . .  	L NEAR	2824	_TEXT	Global
l0417  . . . . . . . . . . . . .  	L NEAR	282C	_TEXT	Global
l0418  . . . . . . . . . . . . .  	L NEAR	2834	_TEXT	Global
l0419  . . . . . . . . . . . . .  	L NEAR	283C	_TEXT	Global
l0420  . . . . . . . . . . . . .  	L NEAR	2844	_TEXT	Global
l0421  . . . . . . . . . . . . .  	L NEAR	284C	_TEXT	Global
l0422  . . . . . . . . . . . . .  	L NEAR	2854	_TEXT	Global
l0423  . . . . . . . . . . . . .  	L NEAR	285C	_TEXT	Global
l0424  . . . . . . . . . . . . .  	L NEAR	2864	_TEXT	Global
l0425  . . . . . . . . . . . . .  	L NEAR	286C	_TEXT	Global
l0426  . . . . . . . . . . . . .  	L NEAR	2874	_TEXT	Global
l0427  . . . . . . . . . . . . .  	L NEAR	287C	_TEXT	Global
l0428  . . . . . . . . . . . . .  	L NEAR	2884	_TEXT	Global
l0429  . . . . . . . . . . . . .  	L NEAR	288C	_TEXT	Global
Microsoft (R) Macro Assembler Version 5.10                  11/16/97 16:56:0
                                                             Symbols-10


l0430  . . . . . . . . . . . . .  	L NEAR	2894	_TEXT	Global
l0431  . . . . . . . . . . . . .  	L NEAR	289C	_TEXT	Global
l0432  . . . . . . . . . . . . .  	L NEAR	28A4	_TEXT	Global
l0433  . . . . . . . . . . . . .  	L NEAR	28AC	_TEXT	Global
l0434  . . . . . . . . . . . . .  	L NEAR	28B4	_TEXT	Global
l0435  . . . . . . . . . . . . .  	L NEAR	28BC	_TEXT	Global
l0436  . . . . . . . . . . . . .  	L NEAR	28C4	_TEXT	Global
l0437  . . . . . . . . . . . . .  	L NEAR	28CC	_TEXT	Global
l0438  . . . . . . . . . . . . .  	L NEAR	28D4	_TEXT	Global
l0439  . . . . . . . . . . . . .  	L NEAR	28DC	_TEXT	Global
l0440  . . . . . . . . . . . . .  	L NEAR	28E4	_TEXT	Global
l0441  . . . . . . . . . . . . .  	L NEAR	28EC	_TEXT	Global
l0442  . . . . . . . . . . . . .  	L NEAR	28F4	_TEXT	Global
l0443  . . . . . . . . . . . . .  	L NEAR	28FC	_TEXT	Global
l0444  . . . . . . . . . . . . .  	L NEAR	2904	_TEXT	Global
l0445  . . . . . . . . . . . . .  	L NEAR	290C	_TEXT	Global
l0446  . . . . . . . . . . . . .  	L NEAR	2914	_TEXT	Global
l0447  . . . . . . . . . . . . .  	L NEAR	291C	_TEXT	Global
l0448  . . . . . . . . . . . . .  	L NEAR	2924	_TEXT	Global
l0449  . . . . . . . . . . . . .  	L NEAR	292C	_TEXT	Global
l0450  . . . . . . . . . . . . .  	L NEAR	2934	_TEXT	Global
l0451  . . . . . . . . . . . . .  	L NEAR	293C	_TEXT	Global
l0452  . . . . . . . . . . . . .  	L NEAR	2944	_TEXT	Global
l0453  . . . . . . . . . . . . .  	L NEAR	294C	_TEXT	Global
l0454  . . . . . . . . . . . . .  	L NEAR	2954	_TEXT	Global
l0455  . . . . . . . . . . . . .  	L NEAR	295C	_TEXT	Global
l0456  . . . . . . . . . . . . .  	L NEAR	2964	_TEXT	Global
l0457  . . . . . . . . . . . . .  	L NEAR	296C	_TEXT	Global
l0458  . . . . . . . . . . . . .  	L NEAR	2974	_TEXT	Global
l0459  . . . . . . . . . . . . .  	L NEAR	297C	_TEXT	Global
l0460  . . . . . . . . . . . . .  	L NEAR	2984	_TEXT	Global
l0461  . . . . . . . . . . . . .  	L NEAR	298C	_TEXT	Global
l0462  . . . . . . . . . . . . .  	L NEAR	2994	_TEXT	Global
l0463  . . . . . . . . . . . . .  	L NEAR	299C	_TEXT	Global
l0464  . . . . . . . . . . . . .  	L NEAR	29A4	_TEXT	Global
l0465  . . . . . . . . . . . . .  	L NEAR	29AC	_TEXT	Global
l0466  . . . . . . . . . . . . .  	L NEAR	29B4	_TEXT	Global
l0467  . . . . . . . . . . . . .  	L NEAR	29BC	_TEXT	Global
l0468  . . . . . . . . . . . . .  	L NEAR	29C4	_TEXT	Global
l0469  . . . . . . . . . . . . .  	L NEAR	29CC	_TEXT	Global
l0470  . . . . . . . . . . . . .  	L NEAR	29D4	_TEXT	Global
l0471  . . . . . . . . . . . . .  	L NEAR	29DC	_TEXT	Global
l0472  . . . . . . . . . . . . .  	L NEAR	29E4	_TEXT	Global
l0473  . . . . . . . . . . . . .  	L NEAR	29EC	_TEXT	Global
l0474  . . . . . . . . . . . . .  	L NEAR	29F4	_TEXT	Global
l0475  . . . . . . . . . . . . .  	L NEAR	29FC	_TEXT	Global
l0476  . . . . . . . . . . . . .  	L NEAR	2A04	_TEXT	Global
l0477  . . . . . . . . . . . . .  	L NEAR	2A0C	_TEXT	Global
l0478  . . . . . . . . . . . . .  	L NEAR	2A14	_TEXT	Global
l0479  . . . . . . . . . . . . .  	L NEAR	2A1C	_TEXT	Global
l0480  . . . . . . . . . . . . .  	L NEAR	2A24	_TEXT	Global
l0481  . . . . . . . . . . . . .  	L NEAR	2A2C	_TEXT	Global
l0482  . . . . . . . . . . . . .  	L NEAR	2A34	_TEXT	Global
l0483  . . . . . . . . . . . . .  	L NEAR	2A3C	_TEXT	Global
Microsoft (R) Macro Assembler Version 5.10                  11/16/97 16:56:0
                                                             Symbols-11


l0484  . . . . . . . . . . . . .  	L NEAR	2A44	_TEXT	Global
l0485  . . . . . . . . . . . . .  	L NEAR	2A4C	_TEXT	Global
l0486  . . . . . . . . . . . . .  	L NEAR	2A54	_TEXT	Global
l0487  . . . . . . . . . . . . .  	L NEAR	2A5C	_TEXT	Global
l0488  . . . . . . . . . . . . .  	L NEAR	2A64	_TEXT	Global
l0489  . . . . . . . . . . . . .  	L NEAR	2A6C	_TEXT	Global
l0490  . . . . . . . . . . . . .  	L NEAR	2A74	_TEXT	Global
l0491  . . . . . . . . . . . . .  	L NEAR	2A7C	_TEXT	Global
l0492  . . . . . . . . . . . . .  	L NEAR	2A84	_TEXT	Global
l0493  . . . . . . . . . . . . .  	L NEAR	2A8C	_TEXT	Global
l0494  . . . . . . . . . . . . .  	L NEAR	2A94	_TEXT	Global
l0495  . . . . . . . . . . . . .  	L NEAR	2A9C	_TEXT	Global
l0496  . . . . . . . . . . . . .  	L NEAR	2AA4	_TEXT	Global
l0497  . . . . . . . . . . . . .  	L NEAR	2AAC	_TEXT	Global
l0498  . . . . . . . . . . . . .  	L NEAR	2AB4	_TEXT	Global
l0499  . . . . . . . . . . . . .  	L NEAR	2ABC	_TEXT	Global
l0500  . . . . . . . . . . . . .  	L NEAR	2AC4	_TEXT	Global
l0501  . . . . . . . . . . . . .  	L NEAR	2ACC	_TEXT	Global
l0502  . . . . . . . . . . . . .  	L NEAR	2AD4	_TEXT	Global
l0503  . . . . . . . . . . . . .  	L NEAR	2ADC	_TEXT	Global
l0504  . . . . . . . . . . . . .  	L NEAR	2AE4	_TEXT	Global
l0505  . . . . . . . . . . . . .  	L NEAR	2AEC	_TEXT	Global
l0506  . . . . . . . . . . . . .  	L NEAR	2AF4	_TEXT	Global
l0507  . . . . . . . . . . . . .  	L NEAR	2AFC	_TEXT	Global
l0508  . . . . . . . . . . . . .  	L NEAR	2B04	_TEXT	Global
l0509  . . . . . . . . . . . . .  	L NEAR	2B0C	_TEXT	Global
l0510  . . . . . . . . . . . . .  	L NEAR	2B14	_TEXT	Global
l0511  . . . . . . . . . . . . .  	L NEAR	2B1C	_TEXT	Global
l0512  . . . . . . . . . . . . .  	L NEAR	2B24	_TEXT	Global
l0513  . . . . . . . . . . . . .  	L NEAR	2B2C	_TEXT	Global
l0514  . . . . . . . . . . . . .  	L NEAR	2B34	_TEXT	Global
l0515  . . . . . . . . . . . . .  	L NEAR	2B3C	_TEXT	Global
l0516  . . . . . . . . . . . . .  	L NEAR	2B44	_TEXT	Global
l0517  . . . . . . . . . . . . .  	L NEAR	2B4C	_TEXT	Global
l0518  . . . . . . . . . . . . .  	L NEAR	2B54	_TEXT	Global
l0519  . . . . . . . . . . . . .  	L NEAR	2B5C	_TEXT	Global
l0520  . . . . . . . . . . . . .  	L NEAR	2B64	_TEXT	Global
l0521  . . . . . . . . . . . . .  	L NEAR	2B6C	_TEXT	Global
l0522  . . . . . . . . . . . . .  	L NEAR	2B74	_TEXT	Global
l0523  . . . . . . . . . . . . .  	L NEAR	2B84	_TEXT	Global
l0524  . . . . . . . . . . . . .  	L NEAR	2B98	_TEXT	Global
l0525  . . . . . . . . . . . . .  	L NEAR	2BA8	_TEXT	Global
l0526  . . . . . . . . . . . . .  	L NEAR	2BB4	_TEXT	Global
l0527  . . . . . . . . . . . . .  	L NEAR	2BC4	_TEXT	Global
l0528  . . . . . . . . . . . . .  	L NEAR	2BD4	_TEXT	Global
l0529  . . . . . . . . . . . . .  	L NEAR	2BE8	_TEXT	Global
l0530  . . . . . . . . . . . . .  	L NEAR	2BF8	_TEXT	Global
l0531  . . . . . . . . . . . . .  	L NEAR	2C08	_TEXT	Global
l0532  . . . . . . . . . . . . .  	L NEAR	2C18	_TEXT	Global
l0533  . . . . . . . . . . . . .  	L NEAR	2C2C	_TEXT	Global
l0534  . . . . . . . . . . . . .  	L NEAR	2C40	_TEXT	Global
l0535  . . . . . . . . . . . . .  	L NEAR	2C54	_TEXT	Global
l0536  . . . . . . . . . . . . .  	L NEAR	2C68	_TEXT	Global
l0537  . . . . . . . . . . . . .  	L NEAR	2C7C	_TEXT	Global
Microsoft (R) Macro Assembler Version 5.10                  11/16/97 16:56:0
                                                             Symbols-12


l0538  . . . . . . . . . . . . .  	L NEAR	2C88	_TEXT	Global
l0539  . . . . . . . . . . . . .  	L NEAR	2C9C	_TEXT	Global
l0540  . . . . . . . . . . . . .  	L NEAR	2CB0	_TEXT	Global
l0541  . . . . . . . . . . . . .  	L NEAR	2CC8	_TEXT	Global
l0542  . . . . . . . . . . . . .  	L NEAR	2CE0	_TEXT	Global
l0543  . . . . . . . . . . . . .  	L NEAR	2CF0	_TEXT	Global
l0544  . . . . . . . . . . . . .  	L NEAR	2D04	_TEXT	Global
l0545  . . . . . . . . . . . . .  	L NEAR	2D10	_TEXT	Global
l0546  . . . . . . . . . . . . .  	L NEAR	2D20	_TEXT	Global
l0547  . . . . . . . . . . . . .  	L NEAR	2D38	_TEXT	Global
l0548  . . . . . . . . . . . . .  	L NEAR	2D50	_TEXT	Global
l0549  . . . . . . . . . . . . .  	L NEAR	2D60	_TEXT	Global
l0550  . . . . . . . . . . . . .  	L NEAR	2D74	_TEXT	Global
l0551  . . . . . . . . . . . . .  	L NEAR	2D88	_TEXT	Global
l0552  . . . . . . . . . . . . .  	L NEAR	2D9C	_TEXT	Global
l0553  . . . . . . . . . . . . .  	L NEAR	2DA8	_TEXT	Global
l0554  . . . . . . . . . . . . .  	L NEAR	2DBC	_TEXT	Global
l0555  . . . . . . . . . . . . .  	L NEAR	2DCC	_TEXT	Global
l0556  . . . . . . . . . . . . .  	L NEAR	2DE4	_TEXT	Global
l0557  . . . . . . . . . . . . .  	L NEAR	2DFC	_TEXT	Global
l0558  . . . . . . . . . . . . .  	L NEAR	2E14	_TEXT	Global
l0559  . . . . . . . . . . . . .  	L NEAR	2E2C	_TEXT	Global
l0560  . . . . . . . . . . . . .  	L NEAR	2E38	_TEXT	Global
l0561  . . . . . . . . . . . . .  	L NEAR	2E48	_TEXT	Global
l0562  . . . . . . . . . . . . .  	L NEAR	2E58	_TEXT	Global
l0563  . . . . . . . . . . . . .  	L NEAR	2E68	_TEXT	Global
l0564  . . . . . . . . . . . . .  	L NEAR	2E78	_TEXT	Global
l0565  . . . . . . . . . . . . .  	L NEAR	2E84	_TEXT	Global
l0566  . . . . . . . . . . . . .  	L NEAR	2E90	_TEXT	Global
l0567  . . . . . . . . . . . . .  	L NEAR	2EA8	_TEXT	Global
l0568  . . . . . . . . . . . . .  	L NEAR	2EC4	_TEXT	Global
l0569  . . . . . . . . . . . . .  	L NEAR	2ED4	_TEXT	Global
l0570  . . . . . . . . . . . . .  	L NEAR	2EE4	_TEXT	Global
l0571  . . . . . . . . . . . . .  	L NEAR	2EF8	_TEXT	Global
l0572  . . . . . . . . . . . . .  	L NEAR	2F08	_TEXT	Global
l0573  . . . . . . . . . . . . .  	L NEAR	2F18	_TEXT	Global
l0574  . . . . . . . . . . . . .  	L NEAR	2F30	_TEXT	Global
l0575  . . . . . . . . . . . . .  	L NEAR	2F3C	_TEXT	Global
l0576  . . . . . . . . . . . . .  	L NEAR	2F4C	_TEXT	Global
l0577  . . . . . . . . . . . . .  	L NEAR	2F58	_TEXT	Global
l0578  . . . . . . . . . . . . .  	L NEAR	2F68	_TEXT	Global
l0579  . . . . . . . . . . . . .  	L NEAR	2F74	_TEXT	Global
l0580  . . . . . . . . . . . . .  	L NEAR	2F84	_TEXT	Global
l0581  . . . . . . . . . . . . .  	L NEAR	2F90	_TEXT	Global
l0582  . . . . . . . . . . . . .  	L NEAR	2FA0	_TEXT	Global
l0583  . . . . . . . . . . . . .  	L NEAR	2FB4	_TEXT	Global
l0584  . . . . . . . . . . . . .  	L NEAR	2FC8	_TEXT	Global
l0585  . . . . . . . . . . . . .  	L NEAR	2FDC	_TEXT	Global
l0586  . . . . . . . . . . . . .  	L NEAR	2FF0	_TEXT	Global
l0587  . . . . . . . . . . . . .  	L NEAR	3000	_TEXT	Global
l0588  . . . . . . . . . . . . .  	L NEAR	3018	_TEXT	Global
l0589  . . . . . . . . . . . . .  	L NEAR	302C	_TEXT	Global
l0590  . . . . . . . . . . . . .  	L NEAR	303C	_TEXT	Global
l0591  . . . . . . . . . . . . .  	L NEAR	3050	_TEXT	Global
Microsoft (R) Macro Assembler Version 5.10                  11/16/97 16:56:0
                                                             Symbols-13


l0592  . . . . . . . . . . . . .  	L NEAR	305C	_TEXT	Global
l0593  . . . . . . . . . . . . .  	L NEAR	3068	_TEXT	Global
l0594  . . . . . . . . . . . . .  	L NEAR	3078	_TEXT	Global
l0595  . . . . . . . . . . . . .  	L NEAR	3088	_TEXT	Global
l0596  . . . . . . . . . . . . .  	L NEAR	30A4	_TEXT	Global
l0597  . . . . . . . . . . . . .  	L NEAR	30B4	_TEXT	Global
l0598  . . . . . . . . . . . . .  	L NEAR	30D0	_TEXT	Global
l0599  . . . . . . . . . . . . .  	L NEAR	30E4	_TEXT	Global
l0600  . . . . . . . . . . . . .  	L NEAR	30F0	_TEXT	Global
l0601  . . . . . . . . . . . . .  	L NEAR	3100	_TEXT	Global
l0602  . . . . . . . . . . . . .  	L NEAR	3114	_TEXT	Global
l0603  . . . . . . . . . . . . .  	L NEAR	3120	_TEXT	Global
l0604  . . . . . . . . . . . . .  	L NEAR	3130	_TEXT	Global
l0605  . . . . . . . . . . . . .  	L NEAR	3140	_TEXT	Global
l0606  . . . . . . . . . . . . .  	L NEAR	315C	_TEXT	Global
l0607  . . . . . . . . . . . . .  	L NEAR	316C	_TEXT	Global
l0608  . . . . . . . . . . . . .  	L NEAR	317C	_TEXT	Global
l0609  . . . . . . . . . . . . .  	L NEAR	3194	_TEXT	Global
l0610  . . . . . . . . . . . . .  	L NEAR	31A8	_TEXT	Global
l0611  . . . . . . . . . . . . .  	L NEAR	31B4	_TEXT	Global
l0612  . . . . . . . . . . . . .  	L NEAR	31C4	_TEXT	Global
l0613  . . . . . . . . . . . . .  	L NEAR	31D0	_TEXT	Global
l0614  . . . . . . . . . . . . .  	L NEAR	31E4	_TEXT	Global
l0615  . . . . . . . . . . . . .  	L NEAR	31F0	_TEXT	Global
l0616  . . . . . . . . . . . . .  	L NEAR	3200	_TEXT	Global
l0617  . . . . . . . . . . . . .  	L NEAR	3214	_TEXT	Global
l0618  . . . . . . . . . . . . .  	L NEAR	3228	_TEXT	Global
l0619  . . . . . . . . . . . . .  	L NEAR	3248	_TEXT	Global
l0620  . . . . . . . . . . . . .  	L NEAR	3254	_TEXT	Global
l0621  . . . . . . . . . . . . .  	L NEAR	3260	_TEXT	Global
l0622  . . . . . . . . . . . . .  	L NEAR	3274	_TEXT	Global
l0623  . . . . . . . . . . . . .  	L NEAR	3290	_TEXT	Global
l0624  . . . . . . . . . . . . .  	L NEAR	329C	_TEXT	Global
l0625  . . . . . . . . . . . . .  	L NEAR	32AC	_TEXT	Global
l0626  . . . . . . . . . . . . .  	L NEAR	32C4	_TEXT	Global
l0627  . . . . . . . . . . . . .  	L NEAR	32DC	_TEXT	Global
l0628  . . . . . . . . . . . . .  	L NEAR	32F0	_TEXT	Global
l0629  . . . . . . . . . . . . .  	L NEAR	330C	_TEXT	Global
l0630  . . . . . . . . . . . . .  	L NEAR	3320	_TEXT	Global
l0631  . . . . . . . . . . . . .  	L NEAR	3334	_TEXT	Global
l0632  . . . . . . . . . . . . .  	L NEAR	3348	_TEXT	Global
l0633  . . . . . . . . . . . . .  	L NEAR	3354	_TEXT	Global
l0634  . . . . . . . . . . . . .  	L NEAR	3360	_TEXT	Global
l0635  . . . . . . . . . . . . .  	L NEAR	3378	_TEXT	Global
l0636  . . . . . . . . . . . . .  	L NEAR	338C	_TEXT	Global
l0637  . . . . . . . . . . . . .  	L NEAR	33A0	_TEXT	Global
l0638  . . . . . . . . . . . . .  	L NEAR	33AC	_TEXT	Global
l0639  . . . . . . . . . . . . .  	L NEAR	33C0	_TEXT	Global
l0640  . . . . . . . . . . . . .  	L NEAR	33D4	_TEXT	Global
l0641  . . . . . . . . . . . . .  	L NEAR	33E8	_TEXT	Global
l0642  . . . . . . . . . . . . .  	L NEAR	3400	_TEXT	Global
l0643  . . . . . . . . . . . . .  	L NEAR	3418	_TEXT	Global
l0644  . . . . . . . . . . . . .  	L NEAR	3430	_TEXT	Global
l0645  . . . . . . . . . . . . .  	L NEAR	3448	_TEXT	Global
Microsoft (R) Macro Assembler Version 5.10                  11/16/97 16:56:0
                                                             Symbols-14


l0646  . . . . . . . . . . . . .  	L NEAR	3454	_TEXT	Global
l0647  . . . . . . . . . . . . .  	L NEAR	3464	_TEXT	Global
l0648  . . . . . . . . . . . . .  	L NEAR	3478	_TEXT	Global
l0649  . . . . . . . . . . . . .  	L NEAR	3494	_TEXT	Global
l0650  . . . . . . . . . . . . .  	L NEAR	34A0	_TEXT	Global
l0651  . . . . . . . . . . . . .  	L NEAR	34B0	_TEXT	Global
l0652  . . . . . . . . . . . . .  	L NEAR	34C8	_TEXT	Global
l0653  . . . . . . . . . . . . .  	L NEAR	34D8	_TEXT	Global
l0654  . . . . . . . . . . . . .  	L NEAR	34E4	_TEXT	Global
l0655  . . . . . . . . . . . . .  	L NEAR	34F8	_TEXT	Global
l0656  . . . . . . . . . . . . .  	L NEAR	3504	_TEXT	Global
l0657  . . . . . . . . . . . . .  	L NEAR	3510	_TEXT	Global
l0658  . . . . . . . . . . . . .  	L NEAR	351C	_TEXT	Global
l0659  . . . . . . . . . . . . .  	L NEAR	352C	_TEXT	Global
l0660  . . . . . . . . . . . . .  	L NEAR	3538	_TEXT	Global
l0661  . . . . . . . . . . . . .  	L NEAR	354C	_TEXT	Global
l0662  . . . . . . . . . . . . .  	L NEAR	3554	_TEXT	Global
l0663  . . . . . . . . . . . . .  	L NEAR	3568	_TEXT	Global
l0664  . . . . . . . . . . . . .  	L NEAR	3574	_TEXT	Global
l0665  . . . . . . . . . . . . .  	L NEAR	358C	_TEXT	Global
l0666  . . . . . . . . . . . . .  	L NEAR	359C	_TEXT	Global
l0667  . . . . . . . . . . . . .  	L NEAR	35B4	_TEXT	Global
l0668  . . . . . . . . . . . . .  	L NEAR	35C0	_TEXT	Global
l0669  . . . . . . . . . . . . .  	L NEAR	35CC	_TEXT	Global
l0670  . . . . . . . . . . . . .  	L NEAR	35D8	_TEXT	Global
l0671  . . . . . . . . . . . . .  	L NEAR	35E4	_TEXT	Global
l0672  . . . . . . . . . . . . .  	L NEAR	35F0	_TEXT	Global
l0673  . . . . . . . . . . . . .  	L NEAR	3600	_TEXT	Global
l0674  . . . . . . . . . . . . .  	L NEAR	3618	_TEXT	Global
l0675  . . . . . . . . . . . . .  	L NEAR	3630	_TEXT	Global
l0676  . . . . . . . . . . . . .  	L NEAR	363C	_TEXT	Global
l0677  . . . . . . . . . . . . .  	L NEAR	3648	_TEXT	Global
l0678  . . . . . . . . . . . . .  	L NEAR	3654	_TEXT	Global
l0679  . . . . . . . . . . . . .  	L NEAR	3660	_TEXT	Global
l0680  . . . . . . . . . . . . .  	L NEAR	3680	_TEXT	Global
l0681  . . . . . . . . . . . . .  	L NEAR	369C	_TEXT	Global
l0682  . . . . . . . . . . . . .  	L NEAR	36C0	_TEXT	Global
l0683  . . . . . . . . . . . . .  	L NEAR	36D4	_TEXT	Global
l0684  . . . . . . . . . . . . .  	L NEAR	36E8	_TEXT	Global
l0685  . . . . . . . . . . . . .  	L NEAR	36FC	_TEXT	Global
l0686  . . . . . . . . . . . . .  	L NEAR	3710	_TEXT	Global
l0687  . . . . . . . . . . . . .  	L NEAR	3724	_TEXT	Global
l0688  . . . . . . . . . . . . .  	L NEAR	3738	_TEXT	Global
l0689  . . . . . . . . . . . . .  	L NEAR	374C	_TEXT	Global
l0690  . . . . . . . . . . . . .  	L NEAR	3760	_TEXT	Global
l0691  . . . . . . . . . . . . .  	L NEAR	3774	_TEXT	Global
l0692  . . . . . . . . . . . . .  	L NEAR	3788	_TEXT	Global
l0693  . . . . . . . . . . . . .  	L NEAR	379C	_TEXT	Global
l0694  . . . . . . . . . . . . .  	L NEAR	37B0	_TEXT	Global
l0695  . . . . . . . . . . . . .  	L NEAR	37C4	_TEXT	Global
l0696  . . . . . . . . . . . . .  	L NEAR	37D0	_TEXT	Global
l0697  . . . . . . . . . . . . .  	L NEAR	37DC	_TEXT	Global
l0698  . . . . . . . . . . . . .  	L NEAR	37EC	_TEXT	Global
l0699  . . . . . . . . . . . . .  	L NEAR	37F8	_TEXT	Global
Microsoft (R) Macro Assembler Version 5.10                  11/16/97 16:56:0
                                                             Symbols-15


l0700  . . . . . . . . . . . . .  	L NEAR	380C	_TEXT	Global
l0701  . . . . . . . . . . . . .  	L NEAR	381C	_TEXT	Global
l0702  . . . . . . . . . . . . .  	L NEAR	382C	_TEXT	Global
l0703  . . . . . . . . . . . . .  	L NEAR	383C	_TEXT	Global
l0704  . . . . . . . . . . . . .  	L NEAR	3848	_TEXT	Global
l0705  . . . . . . . . . . . . .  	L NEAR	385C	_TEXT	Global
l0706  . . . . . . . . . . . . .  	L NEAR	3870	_TEXT	Global
l0707  . . . . . . . . . . . . .  	L NEAR	3884	_TEXT	Global
l0708  . . . . . . . . . . . . .  	L NEAR	3890	_TEXT	Global
l0709  . . . . . . . . . . . . .  	L NEAR	389C	_TEXT	Global
l0710  . . . . . . . . . . . . .  	L NEAR	38A8	_TEXT	Global
l0711  . . . . . . . . . . . . .  	L NEAR	38B4	_TEXT	Global
l0712  . . . . . . . . . . . . .  	L NEAR	38C0	_TEXT	Global
l0713  . . . . . . . . . . . . .  	L NEAR	38CC	_TEXT	Global
l0714  . . . . . . . . . . . . .  	L NEAR	38D8	_TEXT	Global
l0715  . . . . . . . . . . . . .  	L NEAR	38E4	_TEXT	Global
l0716  . . . . . . . . . . . . .  	L NEAR	38F0	_TEXT	Global
l0717  . . . . . . . . . . . . .  	L NEAR	38FC	_TEXT	Global
l0718  . . . . . . . . . . . . .  	L NEAR	3910	_TEXT	Global
l0719  . . . . . . . . . . . . .  	L NEAR	3920	_TEXT	Global
l0720  . . . . . . . . . . . . .  	L NEAR	3930	_TEXT	Global
l0721  . . . . . . . . . . . . .  	L NEAR	393C	_TEXT	Global
l0722  . . . . . . . . . . . . .  	L NEAR	394C	_TEXT	Global
l0723  . . . . . . . . . . . . .  	L NEAR	3964	_TEXT	Global
l0724  . . . . . . . . . . . . .  	L NEAR	3970	_TEXT	Global
l0725  . . . . . . . . . . . . .  	L NEAR	3980	_TEXT	Global
l0726  . . . . . . . . . . . . .  	L NEAR	3990	_TEXT	Global
l0727  . . . . . . . . . . . . .  	L NEAR	39A0	_TEXT	Global
l0728  . . . . . . . . . . . . .  	L NEAR	39B0	_TEXT	Global
l0729  . . . . . . . . . . . . .  	L NEAR	39C0	_TEXT	Global
l0730  . . . . . . . . . . . . .  	L NEAR	39D0	_TEXT	Global
l0731  . . . . . . . . . . . . .  	L NEAR	39DC	_TEXT	Global
l0732  . . . . . . . . . . . . .  	L NEAR	39F0	_TEXT	Global
l0733  . . . . . . . . . . . . .  	L NEAR	39FC	_TEXT	Global
l0734  . . . . . . . . . . . . .  	L NEAR	3A08	_TEXT	Global
l0735  . . . . . . . . . . . . .  	L NEAR	3A18	_TEXT	Global
l0736  . . . . . . . . . . . . .  	L NEAR	3A24	_TEXT	Global
l0737  . . . . . . . . . . . . .  	L NEAR	3A30	_TEXT	Global
l0738  . . . . . . . . . . . . .  	L NEAR	3A3C	_TEXT	Global
l0739  . . . . . . . . . . . . .  	L NEAR	3A50	_TEXT	Global
l0740  . . . . . . . . . . . . .  	L NEAR	3A60	_TEXT	Global
l0741  . . . . . . . . . . . . .  	L NEAR	3A70	_TEXT	Global
l0742  . . . . . . . . . . . . .  	L NEAR	3A7C	_TEXT	Global
l0743  . . . . . . . . . . . . .  	L NEAR	3A88	_TEXT	Global
l0744  . . . . . . . . . . . . .  	L NEAR	3A98	_TEXT	Global
l0745  . . . . . . . . . . . . .  	L NEAR	3AAC	_TEXT	Global
l0746  . . . . . . . . . . . . .  	L NEAR	3AB8	_TEXT	Global
l0747  . . . . . . . . . . . . .  	L NEAR	3AC4	_TEXT	Global
l0748  . . . . . . . . . . . . .  	L NEAR	3AD0	_TEXT	Global
l0749  . . . . . . . . . . . . .  	L NEAR	3ADC	_TEXT	Global
l0750  . . . . . . . . . . . . .  	L NEAR	3AE8	_TEXT	Global
l0751  . . . . . . . . . . . . .  	L NEAR	3AFC	_TEXT	Global
l0752  . . . . . . . . . . . . .  	L NEAR	3B14	_TEXT	Global
l0753  . . . . . . . . . . . . .  	L NEAR	3B2C	_TEXT	Global
Microsoft (R) Macro Assembler Version 5.10                  11/16/97 16:56:0
                                                             Symbols-16


l0754  . . . . . . . . . . . . .  	L NEAR	3B40	_TEXT	Global
l0755  . . . . . . . . . . . . .  	L NEAR	3B50	_TEXT	Global
l0756  . . . . . . . . . . . . .  	L NEAR	3B68	_TEXT	Global
l0757  . . . . . . . . . . . . .  	L NEAR	3B84	_TEXT	Global
l0758  . . . . . . . . . . . . .  	L NEAR	3BA8	_TEXT	Global
l0759  . . . . . . . . . . . . .  	L NEAR	3BC8	_TEXT	Global
l0760  . . . . . . . . . . . . .  	L NEAR	3BD8	_TEXT	Global
l0761  . . . . . . . . . . . . .  	L NEAR	3BEC	_TEXT	Global
l0762  . . . . . . . . . . . . .  	L NEAR	3BFC	_TEXT	Global
lastkernel . . . . . . . . . . .  	L NEAR	2368	_TEXT	Global

modify . . . . . . . . . . . . .  	L NEAR	17B5	_TEXT	Global

onewordbuffer  . . . . . . . . .  	L BYTE	0003A380 _DATA	Global	Length = 0008

plantcodepointer . . . . . . . .  	L NEAR	209F	_TEXT	Global
plantlambdalink  . . . . . . . .  	L NEAR	2104	_TEXT	Global
plantunbound . . . . . . . . . .  	L NEAR	2030	_TEXT	Global
put  . . . . . . . . . . . . . .  	L NEAR	17C7	_TEXT	Global
putd . . . . . . . . . . . . . .  	L NEAR	18E0	_TEXT	Global
putentry . . . . . . . . . . . .  	L NEAR	11B8	_TEXT	Global

saveargc . . . . . . . . . . . .  	L BYTE	0003A388 _DATA	Global	Length = 0008
saveargv . . . . . . . . . . . .  	L BYTE	0003A390 _DATA	Global	Length = 0008
stderror . . . . . . . . . . . .  	L NEAR	1A72	_TEXT	Global
subseq . . . . . . . . . . . . .  	L NEAR	14C8	_TEXT	Global
symfnc . . . . . . . . . . . . .  	L DWORD	07CC	_DATA	Global
symnam . . . . . . . . . . . . .  	L DWORD	1754	_DATA	Global
symprp . . . . . . . . . . . . .  	L DWORD	0F90	_DATA	Global
symval . . . . . . . . . . . . .  	L DWORD	0008	_DATA	Global

tokenbuffer  . . . . . . . . . .  	L BYTE	00029058 _DATA	Global	Length = 4E24

undefinedfunction  . . . . . . .  	L NEAR	21B7	_TEXT	Global

@Cpu . . . . . . . . . . . . . .  	TEXT  3343		
@FileName  . . . . . . . . . . .  	TEXT  main		
@Version . . . . . . . . . . . .  	TEXT  510		
_HASHTABLE . . . . . . . . . . .  	L DWORD	0004	_DATA	Global
_SYMNAM  . . . . . . . . . . . .  	L DWORD	0000	_DATA	Global
__getw . . . . . . . . . . . . .  	L NEAR	0000	_TEXT	External
__infbitlength_  . . . . . . . .  	L DWORD	047C	_DATA	Global
__putw . . . . . . . . . . . . .  	L NEAR	0000	_TEXT	External
_allocatemorebps . . . . . . . .  	L NEAR	0000	_TEXT	External
_alterheapsize . . . . . . . . .  	L NEAR	0000	_TEXT	External
_bndstkptr . . . . . . . . . . .  	L DWORD	0458	_DATA	Global
_bndstkupperbound  . . . . . . .  	L DWORD	0454	_DATA	Global
_bpslowerbound . . . . . . . . .  	L DWORD	0484	_DATA	Global
_bruch_bruch . . . . . . . . . .  	L DWORD	04CC	_DATA	Global
_clearerr  . . . . . . . . . . .  	L NEAR	0000	_TEXT	External
_ctime . . . . . . . . . . . . .  	L NEAR	0000	_TEXT	External
_datetag . . . . . . . . . . . .  	L NEAR	0000	_TEXT	External
_echooff . . . . . . . . . . . .  	L NEAR	0000	_TEXT	External
_echoon  . . . . . . . . . . . .  	L NEAR	0000	_TEXT	External
Microsoft (R) Macro Assembler Version 5.10                  11/16/97 16:56:0
                                                             Symbols-17


_expand_file_name  . . . . . . .  	L NEAR	0000	_TEXT	External
_external_alarm  . . . . . . . .  	L NEAR	0000	_TEXT	External
_external_charsininputbuffer . .  	L NEAR	0000	_TEXT	External
_external_exit . . . . . . . . .  	L NEAR	0000	_TEXT	External
_external_getenv . . . . . . . .  	L NEAR	0000	_TEXT	External
_external_link . . . . . . . . .  	L NEAR	0000	_TEXT	External
_external_pwd  . . . . . . . . .  	L NEAR	0000	_TEXT	External
_external_setenv . . . . . . . .  	L NEAR	0000	_TEXT	External
_external_stat . . . . . . . . .  	L NEAR	0000	_TEXT	External
_external_system . . . . . . . .  	L NEAR	0000	_TEXT	External
_external_timc . . . . . . . . .  	L NEAR	0000	_TEXT	External
_external_time . . . . . . . . .  	L NEAR	0000	_TEXT	External
_external_ualarm . . . . . . . .  	L NEAR	0000	_TEXT	External
_external_unlink . . . . . . . .  	L NEAR	0000	_TEXT	External
_external_user_homedir_string  .  	L NEAR	0000	_TEXT	External
_fclose  . . . . . . . . . . . .  	L NEAR	0000	_TEXT	External
_flushstdoutputbuffer  . . . . .  	L NEAR	0000	_TEXT	External
_fopen . . . . . . . . . . . . .  	L NEAR	0000	_TEXT	External
_fseek . . . . . . . . . . . . .  	L NEAR	0000	_TEXT	External
_gcarraylowerbound . . . . . . .  	L DWORD	0468	_DATA	Global
_gcarrayupperbound . . . . . . .  	L DWORD	046C	_DATA	Global
_get_file_status . . . . . . . .  	L NEAR	0000	_TEXT	External
_getpid  . . . . . . . . . . . .  	L NEAR	0000	_TEXT	External
_heaplast  . . . . . . . . . . .  	L DWORD	0470	_DATA	Global
_heaplowerbound  . . . . . . . .  	L DWORD	045C	_DATA	Global
_heaptrapbound . . . . . . . . .  	L DWORD	0474	_DATA	Global
_heapupperbound  . . . . . . . .  	L DWORD	0478	_DATA	Global
_ieee_flags  . . . . . . . . . .  	L NEAR	0000	_TEXT	External
_ieee_handler  . . . . . . . . .  	L NEAR	0000	_TEXT	External
_lastbps . . . . . . . . . . . .  	L DWORD	0480	_DATA	Global
_mainstartinitialize . . . . . .  	L DWORD	0498	_DATA	Global
_nextbps . . . . . . . . . . . .  	L DWORD	049C	_DATA	Global
_old_symfnc  . . . . . . . . . .  	L DWORD	04E4	_DATA	Global
_old_symprp  . . . . . . . . . .  	L DWORD	04EC	_DATA	Global
_old_symval  . . . . . . . . . .  	L DWORD	04DC	_DATA	Global
_oldheaplast . . . . . . . . . .  	L DWORD	0488	_DATA	Global
_oldheaplowerbound . . . . . . .  	L DWORD	048C	_DATA	Global
_oldheaptrapbound  . . . . . . .  	L DWORD	0490	_DATA	Global
_oldheapupperbound . . . . . . .  	L DWORD	0494	_DATA	Global
_os_cleanup_hook . . . . . . . .  	L NEAR	0000	_TEXT	External
_os_startup_hook . . . . . . . .  	L NEAR	0000	_TEXT	External
_profil  . . . . . . . . . . . .  	L NEAR	0000	_TEXT	External
_psl_call  . . . . . . . . . . .  	L NEAR	0338	_TEXT	Global
_psl_callback1 . . . . . . . . .  	L DWORD	0434	_DATA	Global
_psl_callback2 . . . . . . . . .  	L DWORD	0438	_DATA	Global
_psl_callback3 . . . . . . . . .  	L DWORD	043C	_DATA	Global
_psl_callback4 . . . . . . . . .  	L DWORD	0440	_DATA	Global
_psl_main  . . . . . . . . . . .  	L NEAR	028F	_TEXT	Global
_psll_call . . . . . . . . . . .  	L NEAR	0000	_TEXT	External
_setlinebuf  . . . . . . . . . .  	L NEAR	0000	_TEXT	External
_signal  . . . . . . . . . . . .  	L NEAR	0000	_TEXT	External
_sigrelse  . . . . . . . . . . .  	L NEAR	0000	_TEXT	External
_sleep . . . . . . . . . . . . .  	L NEAR	0000	_TEXT	External
_stacklowerbound . . . . . . . .  	L DWORD	0518	_DATA	Global
Microsoft (R) Macro Assembler Version 5.10                  11/16/97 16:56:0
                                                             Symbols-18


_stackupperbound . . . . . . . .  	L DWORD	0448	_DATA	Global
_sun3_sigset . . . . . . . . . .  	L NEAR	0000	_TEXT	External
_unexec  . . . . . . . . . . . .  	L NEAR	0000	_TEXT	External
_unixcd  . . . . . . . . . . . .  	L NEAR	0000	_TEXT	External
_unixcleario . . . . . . . . . .  	L NEAR	0000	_TEXT	External
_unixeof . . . . . . . . . . . .  	L DWORD	04B0	_DATA	Global
_unixfflush  . . . . . . . . . .  	L NEAR	0000	_TEXT	External
_unixfgetc . . . . . . . . . . .  	L NEAR	0000	_TEXT	External
_unixfgets . . . . . . . . . . .  	L NEAR	0000	_TEXT	External
_unixfputc . . . . . . . . . . .  	L NEAR	0000	_TEXT	External
_unixfread . . . . . . . . . . .  	L NEAR	0000	_TEXT	External
_unixfwrite  . . . . . . . . . .  	L NEAR	0000	_TEXT	External
_unixnull  . . . . . . . . . . .  	L DWORD	04AC	_DATA	Global
_unixopen  . . . . . . . . . . .  	L NEAR	0000	_TEXT	External
_unixputc  . . . . . . . . . . .  	L NEAR	0000	_TEXT	External
_unixputn  . . . . . . . . . . .  	L NEAR	0000	_TEXT	External
_unixputs  . . . . . . . . . . .  	L NEAR	0000	_TEXT	External
_unixstderr  . . . . . . . . . .  	L DWORD	04A8	_DATA	Global
_unixstdin . . . . . . . . . . .  	L DWORD	04A0	_DATA	Global
_unixstdout  . . . . . . . . . .  	L DWORD	04A4	_DATA	Global
_unixtty . . . . . . . . . . . .  	L DWORD	04B4	_DATA	Global
_uxacos  . . . . . . . . . . . .  	L NEAR	0000	_TEXT	External
_uxasin  . . . . . . . . . . . .  	L NEAR	0000	_TEXT	External
_uxassign  . . . . . . . . . . .  	L NEAR	0000	_TEXT	External
_uxatan  . . . . . . . . . . . .  	L NEAR	0000	_TEXT	External
_uxatan2 . . . . . . . . . . . .  	L NEAR	0000	_TEXT	External
_uxcos . . . . . . . . . . . . .  	L NEAR	0000	_TEXT	External
_uxdifference  . . . . . . . . .  	L NEAR	0000	_TEXT	External
_uxdoubletofloat . . . . . . . .  	L NEAR	0000	_TEXT	External
_uxexp . . . . . . . . . . . . .  	L NEAR	0000	_TEXT	External
_uxfix . . . . . . . . . . . . .  	L NEAR	0000	_TEXT	External
_uxfloat . . . . . . . . . . . .  	L NEAR	0000	_TEXT	External
_uxfloattodouble . . . . . . . .  	L NEAR	0000	_TEXT	External
_uxgreaterp  . . . . . . . . . .  	L NEAR	0000	_TEXT	External
_uxlessp . . . . . . . . . . . .  	L NEAR	0000	_TEXT	External
_uxlog . . . . . . . . . . . . .  	L NEAR	0000	_TEXT	External
_uxplus2 . . . . . . . . . . . .  	L NEAR	0000	_TEXT	External
_uxquotient  . . . . . . . . . .  	L NEAR	0000	_TEXT	External
_uxsin . . . . . . . . . . . . .  	L NEAR	0000	_TEXT	External
_uxsqrt  . . . . . . . . . . . .  	L NEAR	0000	_TEXT	External
_uxtan . . . . . . . . . . . . .  	L NEAR	0000	_TEXT	External
_uxtimes2  . . . . . . . . . . .  	L NEAR	0000	_TEXT	External
_uxwritefloat  . . . . . . . . .  	L NEAR	0000	_TEXT	External
_whatsup . . . . . . . . . . . .  	L NEAR	0000	_TEXT	External

Microsoft (R) Macro Assembler Version 5.10                  11/16/97 16:56:0
                                                             Symbols-19



   7810 Source  Lines
   7810 Total   Lines
    941 Symbols

  45192 + 274850 Bytes symbol space free

   2451 Warning Errors
      0 Severe  Errors
