 bpsl

 Timestamp is 56a1fccf (Fri Jan 22 09:56:31 2016)

 Preferred load address is 00400000

 Start         Length     Name                   Class
 0001:00000000 0001e940H .text                   CODE
 0002:00000000 00000194H .idata$5                DATA
 0002:00000194 00000004H .CRT$XCA                DATA
 0002:00000198 00000004H .CRT$XCZ                DATA
 0002:0000019c 00000004H .CRT$XIA                DATA
 0002:000001a0 00000018H .CRT$XIC                DATA
 0002:000001b8 00000004H .CRT$XIY                DATA
 0002:000001bc 00000004H .CRT$XIZ                DATA
 0002:000001c0 00000004H .CRT$XPA                DATA
 0002:000001c4 00000004H .CRT$XPX                DATA
 0002:000001c8 00000004H .CRT$XPXA               DATA
 0002:000001cc 00000004H .CRT$XPZ                DATA
 0002:000001d0 00000004H .CRT$XTA                DATA
 0002:000001d4 00000004H .CRT$XTZ                DATA
 0002:000001e0 00009e7dH .rdata                  DATA
 0002:0000a060 00000004H .rtc$IAA                DATA
 0002:0000a064 00000004H .rtc$IZZ                DATA
 0002:0000a068 00000004H .rtc$TAA                DATA
 0002:0000a06c 00000004H .rtc$TZZ                DATA
 0002:0000a070 00000724H .xdata$x                DATA
 0002:0000a794 00000028H .idata$2                DATA
 0002:0000a7bc 00000014H .idata$3                DATA
 0002:0000a7d0 00000194H .idata$4                DATA
 0002:0000a964 0000074eH .idata$6                DATA
 0002:0000b0b2 00000000H .edata                  DATA
 0003:00000000 001523bcH .data                   DATA
 0003:001523c0 077fb4b8H .bss                    DATA

  Address         Publics by Value              Rva+Base       Lib:Object

 0000:00000000       __except_list              00000000     <absolute>
 0000:00000000       ___safe_se_handler_table   00000000     <absolute>
 0000:00000000       ___safe_se_handler_count   00000000     <absolute>
 0000:00000000       ___ImageBase               00400000     <linker-defined>
 0001:00000004       firstkernel                00401004     main.obj
 0001:00000009       l0001                      00401009     main.obj
 0001:00000085       l0002                      00401085     main.obj
 0001:0000010c       l0003                      0040110c     main.obj
 0001:0000017d       l0004                      0040117d     main.obj
 0001:0000024e       l0007                      0040124e     main.obj
 0001:0000028a       _psl_main                  0040128a     main.obj
 0001:0000032d       l0012                      0040132d     main.obj
 0001:0000033d       _psl_call                  0040133d     main.obj
 0001:0000035f       l0013                      0040135f     main.obj
 0001:00000369       l0014                      00401369     main.obj
 0001:0000040f       l0026                      0040140f     main.obj
 0001:000005f6       external_strlen            004015f6     main.obj
 0001:00000623       l0030                      00401623     main.obj
 0001:0000062d       l0031                      0040162d     main.obj
 0001:00000644       l0032                      00401644     main.obj
 0001:00000653       l0033                      00401653     main.obj
 0001:00000697       binaryopenread             00401697     main.obj
 0001:000006d2       binaryread                 004016d2     main.obj
 0001:000006e1       binaryreadblock            004016e1     main.obj
 0001:000006fb       binaryclose                004016fb     main.obj
 0001:0000070a       l0037                      0040170a     main.obj
 0001:00000807       l0044                      00401807     main.obj
 0001:000008cc       intern                     004018cc     main.obj
 0001:000008e9       l0050                      004018e9     main.obj
 0001:00000a75       l0059                      00401a75     main.obj
 0001:00000b87       l0069                      00401b87     main.obj
 0001:00000c05       l0072                      00401c05     main.obj
 0001:00000cad       faslin                     00401cad     main.obj
 0001:00000ebd       delbps                     00401ebd     main.obj
 0001:00000ec7       l0080                      00401ec7     main.obj
 0001:00000fab       l0088                      00401fab     main.obj
 0001:00001097       l0095                      00402097     main.obj
 0001:000010da       l0096                      004020da     main.obj
 0001:00001130       l0097                      00402130     main.obj
 0001:00001207       l0108                      00402207     main.obj
 0001:00001211       l0109                      00402211     main.obj
 0001:0000122a       l0110                      0040222a     main.obj
 0001:0000132a       putentry                   0040232a     main.obj
 0001:00001367       l0114                      00402367     main.obj
 0001:000013aa       gtbps                      004023aa     main.obj
 0001:00001480       l0122                      00402480     main.obj
 0001:00001494       gtheap                     00402494     main.obj
 0001:000014b5       l0124                      004024b5     main.obj
 0001:00001509       l0127                      00402509     main.obj
 0001:00001535       gtid                       00402535     main.obj
 0001:0000157f       gtwrds                     0040257f     main.obj
 0001:000015ab       gtconststr                 004025ab     main.obj
 0001:00001612       subseq                     00402612     main.obj
 0001:000016f3       l0134                      004026f3     main.obj
 0001:00001759       l0139                      00402759     main.obj
 0001:000017ff       copystringtofrom           004027ff     main.obj
 0001:00001888       cons                       00402888     main.obj
 0001:000018bc       interrogate                004028bc     main.obj
 0001:000018cc       modify                     004028cc     main.obj
 0001:000018de       put                        004028de     main.obj
 0001:000018ed       l0148                      004028ed     main.obj
 0001:00001979       atsoc                      00402979     main.obj
 0001:000019b8       l0154                      004029b8     main.obj
 0001:000019cf       l0155                      004029cf     main.obj
 0001:000019e4       putd                       004029e4     main.obj
 0001:00001a13       l0157                      00402a13     main.obj
 0001:00001aa3       fluid                      00402aa3     main.obj
 0001:00001b38       l0168                      00402b38     main.obj
 0001:00001b51       stderror                   00402b51     main.obj
 0001:00001b60       l0169                      00402b60     main.obj
 0001:00001b8c       l0170                      00402b8c     main.obj
 0001:00001bae       l0172                      00402bae     main.obj
 0001:00001bbb       l0173                      00402bbb     main.obj
 0001:00001bc8       l0174                      00402bc8     main.obj
 0001:00001bd5       l0175                      00402bd5     main.obj
 0001:00001be3       l0176                      00402be3     main.obj
 0001:00001bf0       l0177                      00402bf0     main.obj
 0001:00001bfd       l0178                      00402bfd     main.obj
 0001:00001c0b       l0179                      00402c0b     main.obj
 0001:00001c19       l0180                      00402c19     main.obj
 0001:00001c26       l0181                      00402c26     main.obj
 0001:00001c36       l0182                      00402c36     main.obj
 0001:00001c45       l0183                      00402c45     main.obj
 0001:00001c52       l0184                      00402c52     main.obj
 0001:00001c5f       l0185                      00402c5f     main.obj
 0001:00001c6d       l0186                      00402c6d     main.obj
 0001:00001c7c       l0187                      00402c7c     main.obj
 0001:00001c8a       l0188                      00402c8a     main.obj
 0001:00001c98       l0189                      00402c98     main.obj
 0001:00001ca7       l0190                      00402ca7     main.obj
 0001:00001cb6       l0191                      00402cb6     main.obj
 0001:00001cc4       l0192                      00402cc4     main.obj
 0001:00001cd3       l0193                      00402cd3     main.obj
 0001:00001ce1       l0194                      00402ce1     main.obj
 0001:00001cf0       l0195                      00402cf0     main.obj
 0001:00001cfe       l0196                      00402cfe     main.obj
 0001:00001d0d       l0197                      00402d0d     main.obj
 0001:00001d1b       l0198                      00402d1b     main.obj
 0001:00001d2a       l0199                      00402d2a     main.obj
 0001:00001d3a       l0200                      00402d3a     main.obj
 0001:00001d4a       l0201                      00402d4a     main.obj
 0001:00001d5a       l0202                      00402d5a     main.obj
 0001:00001d6a       l0203                      00402d6a     main.obj
 0001:00001d7b       l0204                      00402d7b     main.obj
 0001:00001d8c       l0205                      00402d8c     main.obj
 0001:00001d9c       l0206                      00402d9c     main.obj
 0001:00001dab       l0207                      00402dab     main.obj
 0001:00001dba       l0208                      00402dba     main.obj
 0001:00001dc9       l0209                      00402dc9     main.obj
 0001:00001dd8       l0210                      00402dd8     main.obj
 0001:00001de7       l0211                      00402de7     main.obj
 0001:00001df6       l0212                      00402df6     main.obj
 0001:00001e05       l0213                      00402e05     main.obj
 0001:00001e14       l0214                      00402e14     main.obj
 0001:00001e23       l0215                      00402e23     main.obj
 0001:00001e32       l0216                      00402e32     main.obj
 0001:00001e41       l0217                      00402e41     main.obj
 0001:00001e51       l0218                      00402e51     main.obj
 0001:00001e62       l0219                      00402e62     main.obj
 0001:00001e6f       l0220                      00402e6f     main.obj
 0001:00001e7e       l0221                      00402e7e     main.obj
 0001:00001e8d       l0222                      00402e8d     main.obj
 0001:00001e9e       l0223                      00402e9e     main.obj
 0001:00001eac       l0224                      00402eac     main.obj
 0001:00001eba       l0225                      00402eba     main.obj
 0001:00001ec8       l0226                      00402ec8     main.obj
 0001:00001ed5       l0227                      00402ed5     main.obj
 0001:00001ee3       l0228                      00402ee3     main.obj
 0001:00001ef2       l0229                      00402ef2     main.obj
 0001:00001f00       l0230                      00402f00     main.obj
 0001:00001f25       l0232                      00402f25     main.obj
 0001:00001f48       l0234                      00402f48     main.obj
 0001:00001f6a       l0236                      00402f6a     main.obj
 0001:00001f8e       l0238                      00402f8e     main.obj
 0001:00001fb3       l0240                      00402fb3     main.obj
 0001:00001fd5       l0242                      00402fd5     main.obj
 0001:00001fe3       l0243                      00402fe3     main.obj
 0001:00001ff1       l0244                      00402ff1     main.obj
 0001:00001fff       l0245                      00402fff     main.obj
 0001:0000200d       l0246                      0040300d     main.obj
 0001:0000201c       l0247                      0040301c     main.obj
 0001:0000202a       l0248                      0040302a     main.obj
 0001:0000203a       l0249                      0040303a     main.obj
 0001:00002048       l0250                      00403048     main.obj
 0001:00002056       l0251                      00403056     main.obj
 0001:00002065       l0252                      00403065     main.obj
 0001:00002074       l0253                      00403074     main.obj
 0001:00002082       l0254                      00403082     main.obj
 0001:00002092       l0255                      00403092     main.obj
 0001:000020a3       l0256                      004030a3     main.obj
 0001:000020b1       l0257                      004030b1     main.obj
 0001:000020c0       l0258                      004030c0     main.obj
 0001:000020ce       l0259                      004030ce     main.obj
 0001:000020df       l0260                      004030df     main.obj
 0001:000020ec       l0261                      004030ec     main.obj
 0001:000020fd       l0262                      004030fd     main.obj
 0001:0000210c       fread                      0040310c     main.obj
 0001:0000211b       fputc                      0040311b     main.obj
 0001:0000212a       fgetc                      0040312a     main.obj
 0001:00002139       fgets                      00403139     main.obj
 0001:00002148       fwrite                     00403148     main.obj
 0001:00002157       fflush                     00403157     main.obj
 0001:00002166       plantunbound               00403166     main.obj
 0001:000021b3       l0264                      004031b3     main.obj
 0001:000021d1       plantcodepointer           004031d1     main.obj
 0001:00002223       l0267                      00403223     main.obj
 0001:00002232       plantlambdalink            00403232     main.obj
 0001:0000227f       l0269                      0040327f     main.obj
 0001:0000229d       l0271                      0040329d     main.obj
 0001:000022a3       bittable                   004032a3     main.obj
 0001:000022da       undefinedfunction          004032da     main.obj
 0001:00002304       l0275                      00403304     main.obj
 0001:0000233f       compiledcallinginterpreted 0040333f     main.obj
 0001:00002372       l0277                      00403372     main.obj
 0001:000023b5       codeaddressp               004033b5     main.obj
 0001:00002463       lastkernel                 00403463     main.obj
 0001:00002468       initcode                   00403468     main.obj
 0001:00002470       l0286                      00403470     main.obj
 0001:00002478       l0287                      00403478     main.obj
 0001:00002480       l0288                      00403480     main.obj
 0001:00002488       l0289                      00403488     main.obj
 0001:00002490       l0290                      00403490     main.obj
 0001:00002498       l0291                      00403498     main.obj
 0001:000024a0       l0292                      004034a0     main.obj
 0001:000024a8       l0293                      004034a8     main.obj
 0001:000024b0       l0294                      004034b0     main.obj
 0001:000024b8       l0295                      004034b8     main.obj
 0001:000024c0       l0296                      004034c0     main.obj
 0001:000024c8       l0297                      004034c8     main.obj
 0001:000024d0       l0298                      004034d0     main.obj
 0001:000024d8       l0299                      004034d8     main.obj
 0001:000024e0       l0300                      004034e0     main.obj
 0001:000024e8       l0301                      004034e8     main.obj
 0001:000024f0       l0302                      004034f0     main.obj
 0001:000024f8       l0303                      004034f8     main.obj
 0001:00002500       l0304                      00403500     main.obj
 0001:00002508       l0305                      00403508     main.obj
 0001:00002510       l0306                      00403510     main.obj
 0001:00002518       l0307                      00403518     main.obj
 0001:00002520       l0308                      00403520     main.obj
 0001:00002528       l0309                      00403528     main.obj
 0001:00002530       l0310                      00403530     main.obj
 0001:00002538       l0311                      00403538     main.obj
 0001:00002540       l0312                      00403540     main.obj
 0001:00002548       l0313                      00403548     main.obj
 0001:00002550       l0314                      00403550     main.obj
 0001:00002558       l0315                      00403558     main.obj
 0001:00002560       l0316                      00403560     main.obj
 0001:00002568       l0317                      00403568     main.obj
 0001:00002570       l0318                      00403570     main.obj
 0001:00002578       l0319                      00403578     main.obj
 0001:00002580       l0320                      00403580     main.obj
 0001:00002588       l0321                      00403588     main.obj
 0001:00002590       l0322                      00403590     main.obj
 0001:00002598       l0323                      00403598     main.obj
 0001:000025a0       l0324                      004035a0     main.obj
 0001:000025a8       l0325                      004035a8     main.obj
 0001:000025b0       l0326                      004035b0     main.obj
 0001:000025b8       l0327                      004035b8     main.obj
 0001:000025c0       l0328                      004035c0     main.obj
 0001:000025c8       l0329                      004035c8     main.obj
 0001:000025d0       l0330                      004035d0     main.obj
 0001:000025d8       l0331                      004035d8     main.obj
 0001:000025e0       l0332                      004035e0     main.obj
 0001:000025e8       l0333                      004035e8     main.obj
 0001:000025f0       l0334                      004035f0     main.obj
 0001:000025f8       l0335                      004035f8     main.obj
 0001:00002600       l0336                      00403600     main.obj
 0001:00002608       l0337                      00403608     main.obj
 0001:00002610       l0338                      00403610     main.obj
 0001:00002618       l0339                      00403618     main.obj
 0001:00002620       l0340                      00403620     main.obj
 0001:00002628       l0341                      00403628     main.obj
 0001:00002630       l0342                      00403630     main.obj
 0001:00002638       l0343                      00403638     main.obj
 0001:00002640       l0344                      00403640     main.obj
 0001:00002648       l0345                      00403648     main.obj
 0001:00002650       l0346                      00403650     main.obj
 0001:00002658       l0347                      00403658     main.obj
 0001:00002660       l0348                      00403660     main.obj
 0001:00002668       l0349                      00403668     main.obj
 0001:00002670       l0350                      00403670     main.obj
 0001:00002678       l0351                      00403678     main.obj
 0001:00002680       l0352                      00403680     main.obj
 0001:00002688       l0353                      00403688     main.obj
 0001:00002690       l0354                      00403690     main.obj
 0001:00002698       l0355                      00403698     main.obj
 0001:000026a0       l0356                      004036a0     main.obj
 0001:000026a8       l0357                      004036a8     main.obj
 0001:000026b0       l0358                      004036b0     main.obj
 0001:000026b8       l0359                      004036b8     main.obj
 0001:000026c0       l0360                      004036c0     main.obj
 0001:000026c8       l0361                      004036c8     main.obj
 0001:000026d0       l0362                      004036d0     main.obj
 0001:000026d8       l0363                      004036d8     main.obj
 0001:000026e0       l0364                      004036e0     main.obj
 0001:000026e8       l0365                      004036e8     main.obj
 0001:000026f0       l0366                      004036f0     main.obj
 0001:000026f8       l0367                      004036f8     main.obj
 0001:00002700       l0368                      00403700     main.obj
 0001:00002708       l0369                      00403708     main.obj
 0001:00002710       l0370                      00403710     main.obj
 0001:00002718       l0371                      00403718     main.obj
 0001:00002720       l0372                      00403720     main.obj
 0001:00002728       l0373                      00403728     main.obj
 0001:00002730       l0374                      00403730     main.obj
 0001:00002738       l0375                      00403738     main.obj
 0001:00002740       l0376                      00403740     main.obj
 0001:00002748       l0377                      00403748     main.obj
 0001:00002750       l0378                      00403750     main.obj
 0001:00002758       l0379                      00403758     main.obj
 0001:00002760       l0380                      00403760     main.obj
 0001:00002768       l0381                      00403768     main.obj
 0001:00002770       l0382                      00403770     main.obj
 0001:00002778       l0383                      00403778     main.obj
 0001:00002780       l0384                      00403780     main.obj
 0001:00002788       l0385                      00403788     main.obj
 0001:00002790       l0386                      00403790     main.obj
 0001:00002798       l0387                      00403798     main.obj
 0001:000027a0       l0388                      004037a0     main.obj
 0001:000027a8       l0389                      004037a8     main.obj
 0001:000027b0       l0390                      004037b0     main.obj
 0001:000027b8       l0391                      004037b8     main.obj
 0001:000027c0       l0392                      004037c0     main.obj
 0001:000027c8       l0393                      004037c8     main.obj
 0001:000027d0       l0394                      004037d0     main.obj
 0001:000027d8       l0395                      004037d8     main.obj
 0001:000027e0       l0396                      004037e0     main.obj
 0001:000027e8       l0397                      004037e8     main.obj
 0001:000027f0       l0398                      004037f0     main.obj
 0001:000027f8       l0399                      004037f8     main.obj
 0001:00002800       l0400                      00403800     main.obj
 0001:00002808       l0401                      00403808     main.obj
 0001:00002810       l0402                      00403810     main.obj
 0001:00002818       l0403                      00403818     main.obj
 0001:00002820       l0404                      00403820     main.obj
 0001:00002828       l0405                      00403828     main.obj
 0001:00002830       l0406                      00403830     main.obj
 0001:00002838       l0407                      00403838     main.obj
 0001:00002840       l0408                      00403840     main.obj
 0001:00002848       l0409                      00403848     main.obj
 0001:00002850       l0410                      00403850     main.obj
 0001:00002858       l0411                      00403858     main.obj
 0001:00002860       l0412                      00403860     main.obj
 0001:00002868       l0413                      00403868     main.obj
 0001:00002870       l0414                      00403870     main.obj
 0001:00002878       l0415                      00403878     main.obj
 0001:00002880       l0416                      00403880     main.obj
 0001:00002888       l0417                      00403888     main.obj
 0001:00002890       l0418                      00403890     main.obj
 0001:00002898       l0419                      00403898     main.obj
 0001:000028a0       l0420                      004038a0     main.obj
 0001:000028a8       l0421                      004038a8     main.obj
 0001:000028b0       l0422                      004038b0     main.obj
 0001:000028b8       l0423                      004038b8     main.obj
 0001:000028c0       l0424                      004038c0     main.obj
 0001:000028c8       l0425                      004038c8     main.obj
 0001:000028d0       l0426                      004038d0     main.obj
 0001:000028d8       l0427                      004038d8     main.obj
 0001:000028e0       l0428                      004038e0     main.obj
 0001:000028e8       l0429                      004038e8     main.obj
 0001:000028f0       l0430                      004038f0     main.obj
 0001:000028f8       l0431                      004038f8     main.obj
 0001:00002900       l0432                      00403900     main.obj
 0001:00002908       l0433                      00403908     main.obj
 0001:00002910       l0434                      00403910     main.obj
 0001:00002918       l0435                      00403918     main.obj
 0001:00002920       l0436                      00403920     main.obj
 0001:00002928       l0437                      00403928     main.obj
 0001:00002930       l0438                      00403930     main.obj
 0001:00002938       l0439                      00403938     main.obj
 0001:00002940       l0440                      00403940     main.obj
 0001:00002948       l0441                      00403948     main.obj
 0001:00002950       l0442                      00403950     main.obj
 0001:00002958       l0443                      00403958     main.obj
 0001:00002960       l0444                      00403960     main.obj
 0001:00002968       l0445                      00403968     main.obj
 0001:00002970       l0446                      00403970     main.obj
 0001:00002978       l0447                      00403978     main.obj
 0001:00002980       l0448                      00403980     main.obj
 0001:00002988       l0449                      00403988     main.obj
 0001:00002990       l0450                      00403990     main.obj
 0001:00002998       l0451                      00403998     main.obj
 0001:000029a0       l0452                      004039a0     main.obj
 0001:000029a8       l0453                      004039a8     main.obj
 0001:000029b0       l0454                      004039b0     main.obj
 0001:000029b8       l0455                      004039b8     main.obj
 0001:000029c0       l0456                      004039c0     main.obj
 0001:000029c8       l0457                      004039c8     main.obj
 0001:000029d0       l0458                      004039d0     main.obj
 0001:000029d8       l0459                      004039d8     main.obj
 0001:000029e0       l0460                      004039e0     main.obj
 0001:000029e8       l0461                      004039e8     main.obj
 0001:000029f0       l0462                      004039f0     main.obj
 0001:000029f8       l0463                      004039f8     main.obj
 0001:00002a00       l0464                      00403a00     main.obj
 0001:00002a08       l0465                      00403a08     main.obj
 0001:00002a10       l0466                      00403a10     main.obj
 0001:00002a18       l0467                      00403a18     main.obj
 0001:00002a20       l0468                      00403a20     main.obj
 0001:00002a28       l0469                      00403a28     main.obj
 0001:00002a30       l0470                      00403a30     main.obj
 0001:00002a38       l0471                      00403a38     main.obj
 0001:00002a40       l0472                      00403a40     main.obj
 0001:00002a48       l0473                      00403a48     main.obj
 0001:00002a50       l0474                      00403a50     main.obj
 0001:00002a58       l0475                      00403a58     main.obj
 0001:00002a60       l0476                      00403a60     main.obj
 0001:00002a68       l0477                      00403a68     main.obj
 0001:00002a70       l0478                      00403a70     main.obj
 0001:00002a78       l0479                      00403a78     main.obj
 0001:00002a80       l0480                      00403a80     main.obj
 0001:00002a88       l0481                      00403a88     main.obj
 0001:00002a90       l0482                      00403a90     main.obj
 0001:00002a98       l0483                      00403a98     main.obj
 0001:00002aa0       l0484                      00403aa0     main.obj
 0001:00002aa8       l0485                      00403aa8     main.obj
 0001:00002ab0       l0486                      00403ab0     main.obj
 0001:00002ab8       l0487                      00403ab8     main.obj
 0001:00002ac0       l0488                      00403ac0     main.obj
 0001:00002ac8       l0489                      00403ac8     main.obj
 0001:00002ad0       l0490                      00403ad0     main.obj
 0001:00002ad8       l0491                      00403ad8     main.obj
 0001:00002ae0       l0492                      00403ae0     main.obj
 0001:00002ae8       l0493                      00403ae8     main.obj
 0001:00002af0       l0494                      00403af0     main.obj
 0001:00002af8       l0495                      00403af8     main.obj
 0001:00002b00       l0496                      00403b00     main.obj
 0001:00002b08       l0497                      00403b08     main.obj
 0001:00002b10       l0498                      00403b10     main.obj
 0001:00002b18       l0499                      00403b18     main.obj
 0001:00002b20       l0500                      00403b20     main.obj
 0001:00002b28       l0501                      00403b28     main.obj
 0001:00002b30       l0502                      00403b30     main.obj
 0001:00002b38       l0503                      00403b38     main.obj
 0001:00002b40       l0504                      00403b40     main.obj
 0001:00002b48       l0505                      00403b48     main.obj
 0001:00002b50       l0506                      00403b50     main.obj
 0001:00002b58       l0507                      00403b58     main.obj
 0001:00002b60       l0508                      00403b60     main.obj
 0001:00002b68       l0509                      00403b68     main.obj
 0001:00002b70       l0510                      00403b70     main.obj
 0001:00002b78       l0511                      00403b78     main.obj
 0001:00002b80       l0512                      00403b80     main.obj
 0001:00002b88       l0513                      00403b88     main.obj
 0001:00002b90       l0514                      00403b90     main.obj
 0001:00002b98       l0515                      00403b98     main.obj
 0001:00002ba0       l0516                      00403ba0     main.obj
 0001:00002ba8       l0517                      00403ba8     main.obj
 0001:00002bb0       l0518                      00403bb0     main.obj
 0001:00002bb8       l0519                      00403bb8     main.obj
 0001:00002bc0       l0520                      00403bc0     main.obj
 0001:00002bc8       l0521                      00403bc8     main.obj
 0001:00002bd0       l0522                      00403bd0     main.obj
 0001:00002bd8       l0523                      00403bd8     main.obj
 0001:00002be0       l0524                      00403be0     main.obj
 0001:00002be8       l0525                      00403be8     main.obj
 0001:00002bf0       l0526                      00403bf0     main.obj
 0001:00002bf8       l0527                      00403bf8     main.obj
 0001:00002c00       l0528                      00403c00     main.obj
 0001:00002c08       l0529                      00403c08     main.obj
 0001:00002c10       l0530                      00403c10     main.obj
 0001:00002c18       l0531                      00403c18     main.obj
 0001:00002c20       l0532                      00403c20     main.obj
 0001:00002c28       l0533                      00403c28     main.obj
 0001:00002c30       l0534                      00403c30     main.obj
 0001:00002c38       l0535                      00403c38     main.obj
 0001:00002c40       l0536                      00403c40     main.obj
 0001:00002c48       l0537                      00403c48     main.obj
 0001:00002c50       l0538                      00403c50     main.obj
 0001:00002c58       l0539                      00403c58     main.obj
 0001:00002c60       l0540                      00403c60     main.obj
 0001:00002c68       l0541                      00403c68     main.obj
 0001:00002c70       l0542                      00403c70     main.obj
 0001:00002c80       l0543                      00403c80     main.obj
 0001:00002c94       l0544                      00403c94     main.obj
 0001:00002ca4       l0545                      00403ca4     main.obj
 0001:00002cb0       l0546                      00403cb0     main.obj
 0001:00002cc0       l0547                      00403cc0     main.obj
 0001:00002cd0       l0548                      00403cd0     main.obj
 0001:00002ce4       l0549                      00403ce4     main.obj
 0001:00002cf4       l0550                      00403cf4     main.obj
 0001:00002d04       l0551                      00403d04     main.obj
 0001:00002d14       l0552                      00403d14     main.obj
 0001:00002d28       l0553                      00403d28     main.obj
 0001:00002d3c       l0554                      00403d3c     main.obj
 0001:00002d50       l0555                      00403d50     main.obj
 0001:00002d64       l0556                      00403d64     main.obj
 0001:00002d78       l0557                      00403d78     main.obj
 0001:00002d84       l0558                      00403d84     main.obj
 0001:00002d98       l0559                      00403d98     main.obj
 0001:00002dac       l0560                      00403dac     main.obj
 0001:00002dc4       l0561                      00403dc4     main.obj
 0001:00002ddc       l0562                      00403ddc     main.obj
 0001:00002dec       l0563                      00403dec     main.obj
 0001:00002e00       l0564                      00403e00     main.obj
 0001:00002e0c       l0565                      00403e0c     main.obj
 0001:00002e1c       l0566                      00403e1c     main.obj
 0001:00002e34       l0567                      00403e34     main.obj
 0001:00002e4c       l0568                      00403e4c     main.obj
 0001:00002e5c       l0569                      00403e5c     main.obj
 0001:00002e70       l0570                      00403e70     main.obj
 0001:00002e84       l0571                      00403e84     main.obj
 0001:00002e98       l0572                      00403e98     main.obj
 0001:00002ea4       l0573                      00403ea4     main.obj
 0001:00002eb8       l0574                      00403eb8     main.obj
 0001:00002ec8       l0575                      00403ec8     main.obj
 0001:00002ee0       l0576                      00403ee0     main.obj
 0001:00002ef8       l0577                      00403ef8     main.obj
 0001:00002f10       l0578                      00403f10     main.obj
 0001:00002f28       l0579                      00403f28     main.obj
 0001:00002f34       l0580                      00403f34     main.obj
 0001:00002f44       l0581                      00403f44     main.obj
 0001:00002f54       l0582                      00403f54     main.obj
 0001:00002f64       l0583                      00403f64     main.obj
 0001:00002f74       l0584                      00403f74     main.obj
 0001:00002f80       l0585                      00403f80     main.obj
 0001:00002f8c       l0586                      00403f8c     main.obj
 0001:00002fa4       l0587                      00403fa4     main.obj
 0001:00002fc0       l0588                      00403fc0     main.obj
 0001:00002fd0       l0589                      00403fd0     main.obj
 0001:00002fe0       l0590                      00403fe0     main.obj
 0001:00002ff4       l0591                      00403ff4     main.obj
 0001:00003004       l0592                      00404004     main.obj
 0001:00003014       l0593                      00404014     main.obj
 0001:0000302c       l0594                      0040402c     main.obj
 0001:00003038       l0595                      00404038     main.obj
 0001:00003048       l0596                      00404048     main.obj
 0001:00003054       l0597                      00404054     main.obj
 0001:00003064       l0598                      00404064     main.obj
 0001:00003070       l0599                      00404070     main.obj
 0001:00003080       l0600                      00404080     main.obj
 0001:0000308c       l0601                      0040408c     main.obj
 0001:0000309c       l0602                      0040409c     main.obj
 0001:000030a8       l0603                      004040a8     main.obj
 0001:000030b8       l0604                      004040b8     main.obj
 0001:000030cc       l0605                      004040cc     main.obj
 0001:000030e0       l0606                      004040e0     main.obj
 0001:000030f4       l0607                      004040f4     main.obj
 0001:00003108       l0608                      00404108     main.obj
 0001:00003118       l0609                      00404118     main.obj
 0001:00003130       l0610                      00404130     main.obj
 0001:00003144       l0611                      00404144     main.obj
 0001:00003154       l0612                      00404154     main.obj
 0001:00003168       l0613                      00404168     main.obj
 0001:00003174       l0614                      00404174     main.obj
 0001:00003180       l0615                      00404180     main.obj
 0001:00003190       l0616                      00404190     main.obj
 0001:000031a0       l0617                      004041a0     main.obj
 0001:000031b0       l0618                      004041b0     main.obj
 0001:000031cc       l0619                      004041cc     main.obj
 0001:000031dc       l0620                      004041dc     main.obj
 0001:000031f0       l0621                      004041f0     main.obj
 0001:0000320c       l0622                      0040420c     main.obj
 0001:0000321c       l0623                      0040421c     main.obj
 0001:00003228       l0624                      00404228     main.obj
 0001:00003238       l0625                      00404238     main.obj
 0001:00003244       l0626                      00404244     main.obj
 0001:00003258       l0627                      00404258     main.obj
 0001:00003264       l0628                      00404264     main.obj
 0001:00003274       l0629                      00404274     main.obj
 0001:00003290       l0630                      00404290     main.obj
 0001:000032a0       l0631                      004042a0     main.obj
 0001:000032b0       l0632                      004042b0     main.obj
 0001:000032c8       l0633                      004042c8     main.obj
 0001:000032dc       l0634                      004042dc     main.obj
 0001:000032e8       l0635                      004042e8     main.obj
 0001:000032f8       l0636                      004042f8     main.obj
 0001:00003304       l0637                      00404304     main.obj
 0001:00003318       l0638                      00404318     main.obj
 0001:00003324       l0639                      00404324     main.obj
 0001:00003334       l0640                      00404334     main.obj
 0001:00003348       l0641                      00404348     main.obj
 0001:0000335c       l0642                      0040435c     main.obj
 0001:0000337c       l0643                      0040437c     main.obj
 0001:00003388       l0644                      00404388     main.obj
 0001:00003394       l0645                      00404394     main.obj
 0001:000033a8       l0646                      004043a8     main.obj
 0001:000033c4       l0647                      004043c4     main.obj
 0001:000033d0       l0648                      004043d0     main.obj
 0001:000033e0       l0649                      004043e0     main.obj
 0001:000033f8       l0650                      004043f8     main.obj
 0001:00003410       l0651                      00404410     main.obj
 0001:00003424       l0652                      00404424     main.obj
 0001:00003440       l0653                      00404440     main.obj
 0001:00003454       l0654                      00404454     main.obj
 0001:00003468       l0655                      00404468     main.obj
 0001:0000347c       l0656                      0040447c     main.obj
 0001:00003488       l0657                      00404488     main.obj
 0001:00003494       l0658                      00404494     main.obj
 0001:000034ac       l0659                      004044ac     main.obj
 0001:000034c0       l0660                      004044c0     main.obj
 0001:000034d4       l0661                      004044d4     main.obj
 0001:000034e0       l0662                      004044e0     main.obj
 0001:000034f4       l0663                      004044f4     main.obj
 0001:00003508       l0664                      00404508     main.obj
 0001:0000351c       l0665                      0040451c     main.obj
 0001:00003534       l0666                      00404534     main.obj
 0001:0000354c       l0667                      0040454c     main.obj
 0001:00003564       l0668                      00404564     main.obj
 0001:0000357c       l0669                      0040457c     main.obj
 0001:00003588       l0670                      00404588     main.obj
 0001:00003598       l0671                      00404598     main.obj
 0001:000035ac       l0672                      004045ac     main.obj
 0001:000035c8       l0673                      004045c8     main.obj
 0001:000035d4       l0674                      004045d4     main.obj
 0001:000035e4       l0675                      004045e4     main.obj
 0001:000035fc       l0676                      004045fc     main.obj
 0001:0000360c       l0677                      0040460c     main.obj
 0001:00003618       l0678                      00404618     main.obj
 0001:0000362c       l0679                      0040462c     main.obj
 0001:00003638       l0680                      00404638     main.obj
 0001:00003644       l0681                      00404644     main.obj
 0001:00003650       l0682                      00404650     main.obj
 0001:00003660       l0683                      00404660     main.obj
 0001:0000366c       l0684                      0040466c     main.obj
 0001:00003680       l0685                      00404680     main.obj
 0001:00003688       l0686                      00404688     main.obj
 0001:0000369c       l0687                      0040469c     main.obj
 0001:000036a8       l0688                      004046a8     main.obj
 0001:000036c0       l0689                      004046c0     main.obj
 0001:000036d0       l0690                      004046d0     main.obj
 0001:000036e8       l0691                      004046e8     main.obj
 0001:000036f4       l0692                      004046f4     main.obj
 0001:00003700       l0693                      00404700     main.obj
 0001:0000370c       l0694                      0040470c     main.obj
 0001:00003718       l0695                      00404718     main.obj
 0001:00003724       l0696                      00404724     main.obj
 0001:00003734       l0697                      00404734     main.obj
 0001:0000374c       l0698                      0040474c     main.obj
 0001:00003764       l0699                      00404764     main.obj
 0001:00003770       l0700                      00404770     main.obj
 0001:0000377c       l0701                      0040477c     main.obj
 0001:00003788       l0702                      00404788     main.obj
 0001:00003794       l0703                      00404794     main.obj
 0001:000037b4       l0704                      004047b4     main.obj
 0001:000037d0       l0705                      004047d0     main.obj
 0001:000037f4       l0706                      004047f4     main.obj
 0001:00003808       l0707                      00404808     main.obj
 0001:0000381c       l0708                      0040481c     main.obj
 0001:00003834       l0709                      00404834     main.obj
 0001:00003848       l0710                      00404848     main.obj
 0001:0000385c       l0711                      0040485c     main.obj
 0001:00003874       l0712                      00404874     main.obj
 0001:00003888       l0713                      00404888     main.obj
 0001:0000389c       l0714                      0040489c     main.obj
 0001:000038b0       l0715                      004048b0     main.obj
 0001:000038c4       l0716                      004048c4     main.obj
 0001:000038d8       l0717                      004048d8     main.obj
 0001:000038ec       l0718                      004048ec     main.obj
 0001:00003900       l0719                      00404900     main.obj
 0001:00003914       l0720                      00404914     main.obj
 0001:00003928       l0721                      00404928     main.obj
 0001:0000393c       l0722                      0040493c     main.obj
 0001:00003950       l0723                      00404950     main.obj
 0001:0000395c       l0724                      0040495c     main.obj
 0001:00003968       l0725                      00404968     main.obj
 0001:00003978       l0726                      00404978     main.obj
 0001:00003984       l0727                      00404984     main.obj
 0001:00003998       l0728                      00404998     main.obj
 0001:000039a8       l0729                      004049a8     main.obj
 0001:000039b8       l0730                      004049b8     main.obj
 0001:000039c8       l0731                      004049c8     main.obj
 0001:000039d4       l0732                      004049d4     main.obj
 0001:000039e8       l0733                      004049e8     main.obj
 0001:00003a00       l0734                      00404a00     main.obj
 0001:00003a18       l0735                      00404a18     main.obj
 0001:00003a24       l0736                      00404a24     main.obj
 0001:00003a30       l0737                      00404a30     main.obj
 0001:00003a3c       l0738                      00404a3c     main.obj
 0001:00003a48       l0739                      00404a48     main.obj
 0001:00003a54       l0740                      00404a54     main.obj
 0001:00003a60       l0741                      00404a60     main.obj
 0001:00003a6c       l0742                      00404a6c     main.obj
 0001:00003a78       l0743                      00404a78     main.obj
 0001:00003a84       l0744                      00404a84     main.obj
 0001:00003a94       l0745                      00404a94     main.obj
 0001:00003aac       l0746                      00404aac     main.obj
 0001:00003ac0       l0747                      00404ac0     main.obj
 0001:00003ad0       l0748                      00404ad0     main.obj
 0001:00003ae0       l0749                      00404ae0     main.obj
 0001:00003aec       l0750                      00404aec     main.obj
 0001:00003b04       l0751                      00404b04     main.obj
 0001:00003b10       l0752                      00404b10     main.obj
 0001:00003b20       l0753                      00404b20     main.obj
 0001:00003b30       l0754                      00404b30     main.obj
 0001:00003b40       l0755                      00404b40     main.obj
 0001:00003b50       l0756                      00404b50     main.obj
 0001:00003b60       l0757                      00404b60     main.obj
 0001:00003b70       l0758                      00404b70     main.obj
 0001:00003b7c       l0759                      00404b7c     main.obj
 0001:00003b90       l0760                      00404b90     main.obj
 0001:00003ba8       l0761                      00404ba8     main.obj
 0001:00003bb4       l0762                      00404bb4     main.obj
 0001:00003bc0       l0763                      00404bc0     main.obj
 0001:00003bd0       l0764                      00404bd0     main.obj
 0001:00003bdc       l0765                      00404bdc     main.obj
 0001:00003be8       l0766                      00404be8     main.obj
 0001:00003bf4       l0767                      00404bf4     main.obj
 0001:00003c08       l0768                      00404c08     main.obj
 0001:00003c18       l0769                      00404c18     main.obj
 0001:00003c28       l0770                      00404c28     main.obj
 0001:00003c34       l0771                      00404c34     main.obj
 0001:00003c40       l0772                      00404c40     main.obj
 0001:00003c4c       l0773                      00404c4c     main.obj
 0001:00003c58       l0774                      00404c58     main.obj
 0001:00003c68       l0775                      00404c68     main.obj
 0001:00003c7c       l0776                      00404c7c     main.obj
 0001:00003c88       l0777                      00404c88     main.obj
 0001:00003c94       l0778                      00404c94     main.obj
 0001:00003ca0       l0779                      00404ca0     main.obj
 0001:00003cac       l0780                      00404cac     main.obj
 0001:00003cb8       l0781                      00404cb8     main.obj
 0001:00003ccc       l0782                      00404ccc     main.obj
 0001:00003ce4       l0783                      00404ce4     main.obj
 0001:00003cfc       l0784                      00404cfc     main.obj
 0001:00003d10       l0785                      00404d10     main.obj
 0001:00003d20       l0786                      00404d20     main.obj
 0001:00003d38       l0787                      00404d38     main.obj
 0001:00003d54       l0788                      00404d54     main.obj
 0001:00003d78       l0789                      00404d78     main.obj
 0001:00003d98       l0790                      00404d98     main.obj
 0001:00003da8       l0791                      00404da8     main.obj
 0001:00003dbc       l0792                      00404dbc     main.obj
 0001:00003dcc       l0793                      00404dcc     main.obj
 0001:00003de0       _setupbpsandheap           00404de0 f   bpsheap.obj
 0001:00004970       _setupbps                  00405970 f   bpsheap.obj
 0001:000049a0       _allocatemorebps           004059a0 f   bpsheap.obj
 0001:000049b0       _getheap                   004059b0 f   bpsheap.obj
 0001:00004ac0       _alterheapsize             00405ac0 f   bpsheap.obj
 0001:00004ad0       _unexec                    00405ad0 f   bpsheap.obj
 0001:00004ae0       _get_imagefilepath         00405ae0 f   bpsheap.obj
 0001:00004af0       _echooff                   00405af0 f   echo.obj
 0001:00004b00       _echoon                    00405b00 f   echo.obj
 0001:00004b10       _external_charsininputbuffer 00405b10 f   echo.obj
 0001:00004b20       _flushstdoutputbuffer      00405b20 f   echo.obj
 0001:00004b40       _external_user_homedir_string 00405b40 f   echo.obj
 0001:00004b50       _EXTERNAL_ANYUSER_HOMEDIR_STRING 00405b50 f   echo.obj
 0001:00004b60       _win_file_status           00405b60 f   file-sta.obj
 0001:00004bc0       _get_file_status           00405bc0 f   file-sta.obj
 0001:00004be0       _uxfloat                   00405be0 f   float.obj
 0001:00004bf0       _uxfix                     00405bf0 f   float.obj
 0001:00004c00       _uxassign                  00405c00 f   float.obj
 0001:00004c20       _uxplus2                   00405c20 f   float.obj
 0001:00004c40       _uxdifference              00405c40 f   float.obj
 0001:00004c60       _uxtimes2                  00405c60 f   float.obj
 0001:00004c80       _uxquotient                00405c80 f   float.obj
 0001:00004ca0       _uxgreaterp                00405ca0 f   float.obj
 0001:00004cc0       _uxlessp                   00405cc0 f   float.obj
 0001:00004ce0       _uxwritefloat              00405ce0 f   float.obj
 0001:00004dd0       _uuxdoubletofloat          00405dd0 f   float.obj
 0001:00004de0       _uuxfloattodouble          00405de0 f   float.obj
 0001:00004df0       _uuxsin                    00405df0 f   float.obj
 0001:00004e40       _uuxcos                    00405e40 f   float.obj
 0001:00004e90       _uuxtan                    00405e90 f   float.obj
 0001:00004ee0       _uuxasin                   00405ee0 f   float.obj
 0001:00004f30       _uuxacos                   00405f30 f   float.obj
 0001:00004f80       _uuxatan                   00405f80 f   float.obj
 0001:00004fd0       _uuxsqrt                   00405fd0 f   float.obj
 0001:00005020       _uuxexp                    00406020 f   float.obj
 0001:00005070       _uuxlog                    00406070 f   float.obj
 0001:000050c0       _uuxatan2                  004060c0 f   float.obj
 0001:00005130       _p_clearerr                00406130 f   misc.obj
 0001:00005150       _lmul                      00406150 f   misc.obj
 0001:00005160       _lldiv                     00406160 f   misc.obj
 0001:00005180       _lrem                      00406180 f   misc.obj
 0001:00005190       _setlinebuf                00406190 f   misc.obj
 0001:000051b0       _profil                    004061b0 f   misc.obj
 0001:000051d0       _main                      004061d0 f   os-hooks.obj
 0001:000053c0       _close_all                 004063c0 f   os-hooks.obj
 0001:000053f0       _os_startup_hook           004063f0 f   os-hooks.obj
 0001:00005410       _os_cleanup_hook           00406410 f   os-hooks.obj
 0001:00005430       _get_execfilepath          00406430 f   os-hooks.obj
 0001:00005440       _clear_iob                 00406440 f   os-hooks.obj
 0001:00005450       _clear_dtabsize            00406450 f   os-hooks.obj
 0001:00005460       _init_fp                   00406460 f   os-hooks.obj
 0001:00005490       _external_alarm            00406490 f   pslextra.obj
 0001:000054a0       _external_ualarm           004064a0 f   pslextra.obj
 0001:000054b0       _external_time             004064b0 f   pslextra.obj
 0001:000054f0       _external_stat             004064f0 f   pslextra.obj
 0001:00005530       _external_mkdir            00406530 f   pslextra.obj
 0001:00005550       _external_rmdir            00406550 f   pslextra.obj
 0001:00005570       _external_link             00406570 f   pslextra.obj
 0001:00005580       _external_unlink           00406580 f   pslextra.obj
 0001:000055a0       _external_strlen           004065a0 f   pslextra.obj
 0001:000055c0       _external_getenv           004065c0 f   pslextra.obj
 0001:000055e0       _external_setenv           004065e0 f   pslextra.obj
 0001:000055f0       _block_copy                004065f0 f   pslextra.obj
 0001:00005630       _unixreadrecord            00406630 f   pslextra.obj
 0001:000056a0       _unixwriterecord           004066a0 f   pslextra.obj
 0001:000056f0       _sleep                     004066f0 f   pslextra.obj
 0001:00005710       _fork                      00406710 f   pslextra.obj
 0001:00005720       _sbrk                      00406720 f   pslextra.obj
 0001:00005730       _cremainder                00406730 f   pslextra.obj
 0001:00005750       _cquotient                 00406750 f   pslextra.obj
 0001:000057b0       _get_registry_value        004067b0 f   pslextra.obj
 0001:000058e0       _external_pwd              004068e0 f   pwd-fn.obj
 0001:00005900       _c_terminal_interrupt      00406900 f   sigs.obj
 0001:00005950       _c_signal                  00406950 f   sigs.obj
 0001:00005970       _sun3_sigset               00406970 f   sigs.obj
 0001:000059b0       _sigrelse                  004069b0 f   sigs.obj
 0001:000059d0       _ieee_handler              004069d0 f   sigs.obj
 0001:000059e0       _ualarm                    004069e0 f   sigs.obj
 0001:000059f0       _ieee_flags                004069f0 f   sigs.obj
 0001:00005a00       _unixinitio                00406a00 f   unix-io.obj
 0001:00005a60       _wputs                     00406a60 f   unix-io.obj
 0001:00005ad0       _my_gets                   00406ad0 f   unix-io.obj
 0001:00005b10       _my_puts                   00406b10 f   unix-io.obj
 0001:00005b70       _unixputc                  00406b70 f   unix-io.obj
 0001:00005bb0       _unixputs                  00406bb0 f   unix-io.obj
 0001:00005c00       _unixputn                  00406c00 f   unix-io.obj
 0001:00005c40       _unixfread                 00406c40 f   unix-io.obj
 0001:00005d20       _isapipe                   00406d20 f   unix-io.obj
 0001:00005d70       _unixfputc                 00406d70 f   unix-io.obj
 0001:00005df0       _unixfgetc                 00406df0 f   unix-io.obj
 0001:00005e20       _unixfgets                 00406e20 f   unix-io.obj
 0001:00005e80       _unixfwrite                00406e80 f   unix-io.obj
 0001:00005f20       _unixfflush                00406f20 f   unix-io.obj
 0001:00005f80       _unixcleario               00406f80 f   unix-io.obj
 0001:00005f90       _expand_file_name          00406f90 f   unix-io.obj
 0001:00006110       _unixopen                  00407110 f   unix-io.obj
 0001:00006140       _unixcd                    00407140 f   unix-io.obj
 0001:00006160       _external_system           00407160 f   unix-io.obj
 0001:00006180       _external_exit             00407180 f   unix-io.obj
 0001:000061c0       _copy_argv                 004071c0 f   unix-io.obj
 0001:00006200       _external_fullpath         00407200 f   unix-io.obj
 0001:00006220       _unixgetw                  00407220 f   unix-io.obj
 0001:00006290       _unixputw                  00407290 f   unix-io.obj
 0001:000062b0       _popen                     004072b0 f   unix-io.obj
 0001:000062d0       _pclose                    004072d0 f   unix-io.obj
 0001:000062f0       _unixsocketopen            004072f0 f   pslsocke.obj
 0001:00006300       _getsocket                 00407300 f   pslsocke.obj
 0001:00006310       _writesocket               00407310 f   pslsocke.obj
 0001:00006320       _unixclosesocket           00407320 f   pslsocke.obj
 0001:00006330       _getpid                    00407330 f   pslsocke.obj
 0001:00006340       _external_timc             00407340 f   pslsocke.obj
 0001:00006350       _whatsup                   00407350 f   pslsocke.obj
 0001:00006380       _who                       00407380 f   pipe-s.obj
 0001:000063a0       _pmelden                   004073a0 f   pipe-s.obj
 0001:00006400       _my_rpc                    00407400 f   pipe-s.obj
 0001:00006430       _my_popen_slave            00407430 f   pipe-s.obj
 0001:00006490       _my_pexit                  00407490 f   pipe-s.obj
 0001:000064c0       _my_pwrite                 004074c0 f   pipe-s.obj
 0001:00006540       _my_pread                  00407540 f   pipe-s.obj
 0001:00006590       _my_psend                  00407590 f   pipe-s.obj
 0001:00006600       _my_preceive               00407600 f   pipe-s.obj
 0001:00006740       _my_peek                   00407740 f   pipe-s.obj
 0001:00006860       _myWriteToNamedPipe        00407860 f   pipe-s.obj
 0001:000068a0       _myReadFromNamedPipe       004078a0 f   pipe-s.obj
 0001:000068e0       _my_plocalcall             004078e0 f   pslave.obj
 0001:000069a0       _stringp                   004079a0 f   pslave.obj
 0001:000069c0       _my_plocp                  004079c0 f   pslave.obj
 0001:00006a80       _psll_call1                00407a80 f   pslave.obj
 0001:00006c90       _psll_call                 00407c90 f   pslave.obj
 0001:00006cd0       _notify_wpipe              00407cd0 f   pslave.obj
 0001:00006d00       _delete_wpipe              00407d00 f   pslave.obj
 0001:00006d30       _pipe_write                00407d30 f   pslave.obj
 0001:00006d60       _local_puts                00407d60 f   pslave.obj
 0001:00006d80       _datetag                   00407d80 f   datetag.obj
 0001:00006d8a       __fsopen                   00407d8a f   LIBCMT:fopen.obj
 0001:00006e46       _fopen                     00407e46 f   LIBCMT:fopen.obj
 0001:00006e5d       __fclose_nolock            00407e5d f   LIBCMT:fclose.obj
 0001:00006eca       _fclose                    00407eca f   LIBCMT:fclose.obj
 0001:00006f3e       __fseek_nolock             00407f3e f   LIBCMT:fseek.obj
 0001:00006fc8       _fseek                     00407fc8 f   LIBCMT:fseek.obj
 0001:00007044       _clearerr_s                00408044 f   LIBCMT:clearerr.obj
 0001:000070e8       _clearerr                  004080e8 f   LIBCMT:clearerr.obj
 0001:000070f3       __getw                     004080f3 f   LIBCMT:getw.obj
 0001:000071a3       __putw                     004081a3 f   LIBCMT:putw.obj
 0001:0000724b       __initp_misc_winsig        0040824b f   LIBCMT:winsig.obj
 0001:0000733c       ___get_sigabrt             0040833c f   LIBCMT:winsig.obj
 0001:00007349       ___pxcptinfoptrs           00408349 f   LIBCMT:winsig.obj
 0001:00007352       _signal                    00408352 f   LIBCMT:winsig.obj
 0001:00007592       _raise                     00408592 f   LIBCMT:winsig.obj
 0001:00007735       __fullpath                 00408735 f   LIBCMT:fullpath.obj
 0001:00007830       _strcmp                    00408830 f   LIBCMT:strcmp.obj
 0001:000078b8       __fread_nolock_s           004088b8 f   LIBCMT:fread.obj
 0001:00007a74       _fread_s                   00408a74 f   LIBCMT:fread.obj
 0001:00007b02       _fread                     00408b02 f   LIBCMT:fread.obj
 0001:00007b1f       __get_sys_err_msg          00408b1f f i LIBCMT:perror.obj
 0001:00007b47       _perror                    00408b47 f   LIBCMT:perror.obj
 0001:00007bd5       _printf                    00408bd5 f   LIBCMT:printf.obj
 0001:00007c7c       __get_printf_count_output  00408c7c f   LIBCMT:printf.obj
 0001:00007c92       __getenv_helper_nolock     00408c92 f   LIBCMT:getenv.obj
 0001:00007d19       _getenv                    00408d19 f   LIBCMT:getenv.obj
 0001:00007d93       __dupenv_s                 00408d93 f   LIBCMT:getenv.obj
 0001:00007e6a       _malloc                    00408e6a f   LIBCMT:malloc.obj
 0001:00007efe       ___crtCorExitProcess       00408efe f   LIBCMT:crt0dat.obj
 0001:00007f29       ___crtExitProcess          00408f29 f   LIBCMT:crt0dat.obj
 0001:00007f41       __lockexit                 00408f41 f   LIBCMT:crt0dat.obj
 0001:00007f4a       __unlockexit               00408f4a f   LIBCMT:crt0dat.obj
 0001:00007f53       __init_pointers            00408f53 f   LIBCMT:crt0dat.obj
 0001:00007f86       __initterm_e               00408f86 f   LIBCMT:crt0dat.obj
 0001:00007faa       __cinit                    00408faa f   LIBCMT:crt0dat.obj
 0001:00008181       _exit                      00409181 f   LIBCMT:crt0dat.obj
 0001:00008197       __exit                     00409197 f   LIBCMT:crt0dat.obj
 0001:000081ad       __cexit                    004091ad f   LIBCMT:crt0dat.obj
 0001:000081bc       __c_exit                   004091bc f   LIBCMT:crt0dat.obj
 0001:000081cb       __amsg_exit                004091cb f   LIBCMT:crt0dat.obj
 0001:000081e9       _sprintf                   004091e9 f   LIBCMT:sprintf.obj
 0001:000082db       _sscanf                    004092db f   LIBCMT:sscanf.obj
 0001:000082fd       __cfltcvt_init             004092fd f   LIBCMT:_fpinit_.obj
 0001:0000835d       __fpmath                   0040935d f   LIBCMT:_fpinit_.obj
 0001:00008376       @__security_check_cookie@4 00409376 f   LIBCMT:secchk.obj
 0001:00008385       __flush                    00409385 f   LIBCMT:fflush.obj
 0001:000083ed       __fflush_nolock            004093ed f   LIBCMT:fflush.obj
 0001:0000850f       _fflush                    0040950f f   LIBCMT:fflush.obj
 0001:00008562       __flushall                 00409562 f   LIBCMT:fflush.obj
 0001:0000856b       ___iob_func                0040956b f   LIBCMT:_file.obj
 0001:00008571       ___initstdio               00409571 f   LIBCMT:_file.obj
 0001:00008622       ___endstdio                00409622 f   LIBCMT:_file.obj
 0001:00008642       __lock_file                00409642 f   LIBCMT:_file.obj
 0001:00008683       __lock_file2               00409683 f   LIBCMT:_file.obj
 0001:000086b5       __unlock_file              004096b5 f   LIBCMT:_file.obj
 0001:000086f1       __unlock_file2             004096f1 f   LIBCMT:_file.obj
 0001:00008720       __ftol2_sse                00409720 f   LIBCMT:ftol2.obj
 0001:00008729       __ftol2_pentium4           00409729 f   LIBCMT:ftol2.obj
 0001:0000873c       __ftol2_sse_excpt          0040973c f   LIBCMT:ftol2.obj
 0001:00008756       __ftol2                    00409756 f   LIBCMT:ftol2.obj
 0001:000087d0       _strlen                    004097d0 f   LIBCMT:strlen.obj
 0001:00008860       _strcpy                    00409860 f   LIBCMT:strcat.obj
 0001:00008870       _strcat                    00409870 f   LIBCMT:strcat.obj
 0001:00008960       _strrchr                   00409960 f   LIBCMT:strrchr.obj
 0001:00008990       _sin                       00409990 f   LIBCMT:_sin_.obj
 0001:000089d0       __CIsin                    004099d0 f   LIBCMT:_sin_.obj
 0001:00008a0b       __CIsin_default            00409a0b f   LIBCMT:_sin_.obj
 0001:00008a1f       __sin_default              00409a1f     LIBCMT:_sin_.obj
 0001:00008be7       __clearfp                  00409be7 f   LIBCMT:_ieee87_.obj
 0001:00008cc0       __control87                00409cc0 f i LIBCMT:_ieee87_.obj
 0001:00008fd2       __controlfp                00409fd2 f   LIBCMT:_ieee87_.obj
 0001:000092f0       _cos                       0040a2f0 f   LIBCMT:_cos_.obj
 0001:00009330       __CIcos                    0040a330 f   LIBCMT:_cos_.obj
 0001:0000936b       __CIcos_default            0040a36b f   LIBCMT:_cos_.obj
 0001:0000937f       __cos_default              0040a37f     LIBCMT:_cos_.obj
 0001:00009420       _tan                       0040a420 f   LIBCMT:_tan_.obj
 0001:00009460       __CItan                    0040a460 f   LIBCMT:_tan_.obj
 0001:0000949b       __CItan_default            0040a49b f   LIBCMT:_tan_.obj
 0001:000094af       __tan_default              0040a4af     LIBCMT:_tan_.obj
 0001:00009550       _asin                      0040a550 f   LIBCMT:_asin_.obj
 0001:00009590       __CIasin                   0040a590 f   LIBCMT:_asin_.obj
 0001:000095cb       __CIasin_default           0040a5cb f   LIBCMT:_asin_.obj
 0001:000095df       __asin_default             0040a5df     LIBCMT:_asin_.obj
 0001:000096a0       _acos                      0040a6a0 f   LIBCMT:_acos_.obj
 0001:000096e0       __CIacos                   0040a6e0 f   LIBCMT:_acos_.obj
 0001:0000971b       __CIacos_default           0040a71b f   LIBCMT:_acos_.obj
 0001:0000972f       __acos_default             0040a72f     LIBCMT:_acos_.obj
 0001:000097f0       _atan                      0040a7f0 f   LIBCMT:_atan_.obj
 0001:00009830       __CIatan                   0040a830 f   LIBCMT:_atan_.obj
 0001:0000986b       __CIatan_default           0040a86b f   LIBCMT:_atan_.obj
 0001:0000987f       __atan_default             0040a87f     LIBCMT:_atan_.obj
 0001:00009910       __CIsqrt                   0040a910 f   LIBCMT:_sqrt_.obj
 0001:00009924       _sqrt                      0040a924     LIBCMT:_sqrt_.obj
 0001:000099d0       _exp                       0040a9d0 f   LIBCMT:_87ctran_.obj
 0001:00009a0c       __CIexp                    0040aa0c f   LIBCMT:_87ctran_.obj
 0001:00009a47       __exp_default              0040aa47 f   LIBCMT:_87ctran_.obj
 0001:00009a51       __CIexp_default            0040aa51 f   LIBCMT:_87ctran_.obj
 0001:00009a60       _log                       0040aa60 f   LIBCMT:_log_.obj
 0001:00009aa0       __CIlog                    0040aaa0 f   LIBCMT:_log_.obj
 0001:00009adb       __CIlog_default            0040aadb f   LIBCMT:_log_.obj
 0001:00009aef       __log_default              0040aaef     LIBCMT:_log_.obj
 0001:00009bb0       _atan2                     0040abb0 f   LIBCMT:_87ctriga_.obj
 0001:00009bba       __CIatan2                  0040abba f   LIBCMT:_87ctriga_.obj
 0001:00009bc4       _setvbuf                   0040abc4 f   LIBCMT:setvbuf.obj
 0001:00009cc0       __setjmp3                  0040acc0 f   LIBCMT:setjmp3.obj
 0001:00009d40       _memset                    0040ad40 f   LIBCMT:memset.obj
 0001:00009dc0       _longjmp                   0040adc0 f   LIBCMT:longjmp.obj
 0001:00009e71       __time32                   0040ae71 f   LIBCMT:time.obj
 0001:00009ebf       ___dtoxmode                0040aebf f   LIBCMT:stat.obj
 0001:0000a056       __stat32                   0040b056 f   LIBCMT:stat.obj
 0001:0000a480       __mkdir                    0040b480 f   LIBCMT:mkdir.obj
 0001:0000a4b2       __rmdir                    0040b4b2 f   LIBCMT:rmdir.obj
 0001:0000a4e2       _remove                    0040b4e2 f   LIBCMT:unlink.obj
 0001:0000a512       __unlink                   0040b512 f   LIBCMT:unlink.obj
 0001:0000a51d       _fgetc                     0040b51d f   LIBCMT:fgetc.obj
 0001:0000a611       _fputc                     0040b611 f   LIBCMT:fputc.obj
 0001:0000a70d       _abs                       0040b70d f   LIBCMT:abs.obj
 0001:0000a71c       __validdrive               0040b71c f   LIBCMT:getcwd.obj
 0001:0000a776       __getdcwd_nolock           0040b776 f   LIBCMT:getcwd.obj
 0001:0000a89a       __getcwd                   0040b89a f   LIBCMT:getcwd.obj
 0001:0000a8e3       __set_output_format        0040b8e3 f   LIBCMT:outputformat.obj
 0001:0000a915       _fgets                     0040b915 f   LIBCMT:fgets.obj
 0001:0000aa4d       _fputs                     0040ba4d f   LIBCMT:fputs.obj
 0001:0000ab53       __fwrite_nolock            0040bb53 f   LIBCMT:fwrite.obj
 0001:0000acaa       _fwrite                    0040bcaa f   LIBCMT:fwrite.obj
 0001:0000ad24       __chdir                    0040bd24 f   LIBCMT:chdir.obj
 0001:0000ae4d       _system                    0040be4d f   LIBCMT:system.obj
 0001:0000af88       __popen                    0040bf88 f   LIBCMT:popen.obj
 0001:0000b450       __pclose                   0040c450 f   LIBCMT:popen.obj
 0001:0000b51b       _clock                     0040c51b f   LIBCMT:clock.obj
 0001:0000b555       ___inittime                0040c555 f   LIBCMT:clock.obj
 0001:0000b583       _puts                      0040c583 f   LIBCMT:puts.obj
 0001:0000b6e0       _strncpy                   0040c6e0 f   LIBCMT:strncpy.obj
 0001:0000b98e       _mainCRTStartup            0040c98e f   LIBCMT:crt0.obj
 0001:0000b998       __ctime32                  0040c998 f   LIBCMT:ctime.obj
 0001:0000b998       _ctime                     0040c998 f   LIBCMT:ctime.obj
 0001:0000b9fd       __openfile                 0040c9fd f   LIBCMT:_open.obj
 0001:0000bc94       __getstream                0040cc94 f   LIBCMT:stream.obj
 0001:0000bdc7       __initp_misc_invarg        0040cdc7 f   LIBCMT:invarg.obj
 0001:0000bdd6       __call_reportfault         0040cdd6 f   LIBCMT:invarg.obj
 0001:0000beff       __invoke_watson            0040ceff f   LIBCMT:invarg.obj
 0001:0000bf24       __invalid_parameter        0040cf24 f   LIBCMT:invarg.obj
 0001:0000bf51       __invalid_parameter_noinfo 0040cf51 f   LIBCMT:invarg.obj
 0001:0000bf61       __get_errno_from_oserr     0040cf61 f   LIBCMT:dosmap.obj
 0001:0000bfa3       __errno                    0040cfa3 f   LIBCMT:dosmap.obj
 0001:0000bfb6       ___doserrno                0040cfb6 f   LIBCMT:dosmap.obj
 0001:0000bfc9       __dosmaperr                0040cfc9 f   LIBCMT:dosmap.obj
 0001:0000bff0       __SEH_prolog4              0040cff0 f   LIBCMT:sehprolg4.obj
 0001:0000c035       __SEH_epilog4              0040d035 f   LIBCMT:sehprolg4.obj
 0001:0000c050       __except_handler4          0040d050 f   LIBCMT:chandler4.obj
 0001:0000c1e0       __local_unwind4            0040d1e0 f   LIBCMT:exsup4.obj
 0001:0000c2b6       __seh_longjmp_unwind4@4    0040d2b6 f   LIBCMT:exsup4.obj
 0001:0000c2d2       @_EH4_CallFilterFunc@8     0040d2d2 f   LIBCMT:exsup4.obj
 0001:0000c2e9       @_EH4_TransferToHandler@8  0040d2e9 f   LIBCMT:exsup4.obj
 0001:0000c302       @_EH4_GlobalUnwind2@8      0040d302 f   LIBCMT:exsup4.obj
 0001:0000c31b       @_EH4_LocalUnwind@16       0040d31b f   LIBCMT:exsup4.obj
 0001:0000c332       _free                      0040d332 f   LIBCMT:free.obj
 0001:0000c36c       __close_nolock             0040d36c f   LIBCMT:close.obj
 0001:0000c408       __close                    0040d408 f   LIBCMT:close.obj
 0001:0000c4cc       __fileno                   0040d4cc f   LIBCMT:fileno.obj
 0001:0000c4f2       __freebuf                  0040d4f2 f   LIBCMT:_freebuf.obj
 0001:0000c523       __lseek_nolock             0040d523 f   LIBCMT:lseek.obj
 0001:0000c598       __lseek                    0040d598 f   LIBCMT:lseek.obj
 0001:0000c66c       __ftell_nolock             0040d66c f   LIBCMT:ftell.obj
 0001:0000c800       __ioinit                   0040d800 f   LIBCMT:ioinit.obj
 0001:0000ca45       _feof                      0040da45 f   LIBCMT:feoferr.obj
 0001:0000ca6d       _ferror                    0040da6d f   LIBCMT:feoferr.obj
 0001:0000ca95       __filbuf                   0040da95 f   LIBCMT:_filbuf.obj
 0001:0000cbb7       __flsbuf                   0040dbb7 f   LIBCMT:_flsbuf.obj
 0001:0000cd1b       __mtinitlocks              0040dd1b f   LIBCMT:mlock.obj
 0001:0000cd65       __mtdeletelocks            0040dd65 f   LIBCMT:mlock.obj
 0001:0000cdbc       __unlock                   0040ddbc f   LIBCMT:mlock.obj
 0001:0000cdd3       __mtinitlocknum            0040ddd3 f   LIBCMT:mlock.obj
 0001:0000ce95       __lock                     0040de95 f   LIBCMT:mlock.obj
 0001:0000cec8       __encoded_null             0040dec8 f   LIBCMT:tidtable.obj
 0001:0000ced1       ___crtTlsAlloc@4           0040ded1 f   LIBCMT:tidtable.obj
 0001:0000ceda       ___set_flsgetvalue         0040deda f   LIBCMT:tidtable.obj
 0001:0000cf0e       __mtterm                   0040df0e f   LIBCMT:tidtable.obj
 0001:0000cf4b       __initptd                  0040df4b f   LIBCMT:tidtable.obj
 0001:0000cfff       __getptd_noexit            0040dfff f   LIBCMT:tidtable.obj
 0001:0000d078       __getptd                   0040e078 f   LIBCMT:tidtable.obj
 0001:0000d092       __freefls@4                0040e092 f   LIBCMT:tidtable.obj
 0001:0000d1c1       __mtinit                   0040e1c1 f   LIBCMT:tidtable.obj
 0001:0000d33c       __XcptFilter               0040e33c f   LIBCMT:winxfltr.obj
 0001:0000d490       _memcpy                    0040e490 f   LIBCMT:memcpy.obj
 0001:0000d7f1       __malloc_crt               0040e7f1 f   LIBCMT:crtheap.obj
 0001:0000d836       __calloc_crt               0040e836 f   LIBCMT:crtheap.obj
 0001:0000d882       __realloc_crt              0040e882 f   LIBCMT:crtheap.obj
 0001:0000d8d0       __recalloc_crt             0040e8d0 f   LIBCMT:crtheap.obj
 0001:0000d922       _calloc                    0040e922 f   LIBCMT:calloc.obj
 0001:0000d962       __read_nolock              0040e962 f   LIBCMT:read.obj
 0001:0000df19       __read                     0040ef19 f   LIBCMT:read.obj
 0001:0000e00f       _memcpy_s                  0040f00f f   LIBCMT:memcpy_s.obj
 0001:0000e084       ___sys_nerr                0040f084 f   LIBCMT:syserr.obj
 0001:0000e08a       ___sys_errlist             0040f08a f   LIBCMT:syserr.obj
 0001:0000e090       __set_osfhnd               0040f090 f   LIBCMT:osfinfo.obj
 0001:0000e111       __free_osfhnd              0040f111 f   LIBCMT:osfinfo.obj
 0001:0000e197       __get_osfhandle            0040f197 f   LIBCMT:osfinfo.obj
 0001:0000e200       ___lock_fhandle            0040f200 f   LIBCMT:osfinfo.obj
 0001:0000e29f       __unlock_fhandle           0040f29f f   LIBCMT:osfinfo.obj
 0001:0000e2c6       __alloc_osfhnd             0040f2c6 f   LIBCMT:osfinfo.obj
 0001:0000e45f       __write_nolock             0040f45f f   LIBCMT:write.obj
 0001:0000eb5c       __write                    0040fb5c f   LIBCMT:write.obj
 0001:0000ec30       __stbuf                    0040fc30 f   LIBCMT:_sftbuf.obj
 0001:0000eccc       __ftbuf                    0040fccc f   LIBCMT:_sftbuf.obj
 0001:0000ed00       ??0_LocaleUpdate@@QAE@PAUlocaleinfo_struct@@@Z 0040fd00 f i LIBCMT:output.obj
 0001:0000ee1c       __output_l                 0040fe1c f   LIBCMT:output.obj
 0001:0000fa24       __mbsnbicoll_l             00410a24 f   LIBCMT:mbsnbico.obj
 0001:0000fb02       __mbsnbicoll               00410b02 f   LIBCMT:mbsnbico.obj
 0001:0000fb1c       ___wtomb_environ           00410b1c f   LIBCMT:wtombenv.obj
 0001:0000fbb3       _strcpy_s                  00410bb3 f   LIBCMT:strcpy_s.obj
 0001:0000fc12       _strnlen                   00410c12 f   LIBCMT:strlen_s.obj
 0001:0000fc2f       __GET_RTERRMSG             00410c2f f   LIBCMT:crt0msg.obj
 0001:0000fc55       __NMSG_WRITE               00410c55 f   LIBCMT:crt0msg.obj
 0001:0000fe04       __FF_MSGBANNER             00410e04 f   LIBCMT:crt0msg.obj
 0001:0000fe3d       __heap_init                00410e3d f   LIBCMT:heapinit.obj
 0001:0000fe5b       __initp_heap_handler       00410e5b f   LIBCMT:handler.obj
 0001:0000fe6a       __callnewh                 00410e6a f   LIBCMT:handler.obj
 0001:0000fe92       ?terminate@@YAXXZ          00410e92 f   LIBCMT:hooks.obj
 0001:0000fecb       __initp_eh_hooks           00410ecb f   LIBCMT:hooks.obj
 0001:0000fedc       __initp_misc_rand_s        00410edc f   LIBCMT:rand_s.obj
 0001:0000feeb       __initp_misc_purevirt      00410eeb f   LIBCMT:inithelp.obj
 0001:0000ffb0       ___onexitinit              00410fb0 f   LIBCMT:onexit.obj
 0001:0000ffe1       __onexit                   00410fe1 f   LIBCMT:onexit.obj
 0001:0001001d       _atexit                    0041101d f   LIBCMT:onexit.obj
 0001:00010034       __RTC_Initialize           00411034 f   LIBCMT:_initsect_.obj
 0001:0001005a       __RTC_Terminate            0041105a f   LIBCMT:_initsect_.obj
 0001:00010080       __initp_misc_cfltcvt_tab   00411080 f   LIBCMT:cmiscdat.obj
 0001:000100b0       __ValidateImageBase        004110b0 f   LIBCMT:pesect.obj
 0001:000100f0       __FindPESection            004110f0 f   LIBCMT:pesect.obj
 0001:00010140       __IsNonwritableInCurrentImage 00411140 f   LIBCMT:pesect.obj
 0001:000102b3       __input_l                  004112b3 f   LIBCMT:input.obj
 0001:000112b7       __forcdecpt_l              004122b7 f   LIBCMT:cvt.obj
 0001:0001132b       __cropzeros_l              0041232b f   LIBCMT:cvt.obj
 0001:000113ad       __positive                 004123ad f   LIBCMT:cvt.obj
 0001:000113c9       __fassign_l                004123c9 f   LIBCMT:cvt.obj
 0001:0001140b       __fassign                  0041240b f   LIBCMT:cvt.obj
 0001:00011444       __forcdecpt                00412444 f   LIBCMT:cvt.obj
 0001:00011457       __cropzeros                00412457 f   LIBCMT:cvt.obj
 0001:000115cb       __cftoe_l                  004125cb f   LIBCMT:cvt.obj
 0001:00011692       __cftoe                    00412692 f   LIBCMT:cvt.obj
 0001:000116b2       __cftoa_l                  004126b2 f   LIBCMT:cvt.obj
 0001:00011b2b       __cftof_l                  00412b2b f   LIBCMT:cvt.obj
 0001:00011bec       __cftog_l                  00412bec f   LIBCMT:cvt.obj
 0001:00011cd9       __cfltcvt_l                00412cd9 f   LIBCMT:cvt.obj
 0001:00011d61       __cfltcvt                  00412d61 f   LIBCMT:cvt.obj
 0001:00011d84       __setdefaultprecision      00412d84 f   LIBCMT:fp8.obj
 0001:00011dac       ___report_gsfailure        00412dac f   LIBCMT:gs_report.obj
 0001:00011eb2       __commit                   00412eb2 f   LIBCMT:commit.obj
 0001:00011f8b       __fcloseall                00412f8b f   LIBCMT:closeall.obj
 0001:00012027       ___sse2_available_init     00413027 f   LIBCMT:cpu_disp.obj
 0001:00012037       __sse2_mathfcns_init       00413037 f   LIBCMT:_mathfcns_.obj
 0001:00012050       __CIsin_pentium4           00413050 f   LIBCMT:_sin_pentium4_.obj
 0001:00012068       __sin_pentium4             00413068     LIBCMT:_sin_pentium4_.obj
 0001:00012220       __trandisp1                00413220 f   LIBCMT:_87disp_.obj
 0001:00012287       __trandisp2                00413287 f   LIBCMT:_87disp_.obj
 0001:00012313       __rttospopde               00413313     LIBCMT:_87disp_.obj
 0001:00012318       __rttospop                 00413318     LIBCMT:_87disp_.obj
 0001:0001231a       __rtnospop                 0041331a     LIBCMT:_87disp_.obj
 0001:0001231c       __rttosnpop                0041331c     LIBCMT:_87disp_.obj
 0001:0001231d       __rtnospopde               0041331d     LIBCMT:_87disp_.obj
 0001:00012324       __rtzeropop                00413324     LIBCMT:_87disp_.obj
 0001:00012326       __rtzeronpop               00413326     LIBCMT:_87disp_.obj
 0001:0001232b       __rtonepop                 0041332b     LIBCMT:_87disp_.obj
 0001:0001232d       __rtonenpop                0041332d     LIBCMT:_87disp_.obj
 0001:00012332       __tosnan1                  00413332     LIBCMT:_87disp_.obj
 0001:0001235d       __nosnan2                  0041335d     LIBCMT:_87disp_.obj
 0001:0001235f       __tosnan2                  0041335f     LIBCMT:_87disp_.obj
 0001:00012387       __nan2                     00413387     LIBCMT:_87disp_.obj
 0001:000123c6       __rtindfpop                004133c6     LIBCMT:_87disp_.obj
 0001:000123c8       __rtindfnpop               004133c8     LIBCMT:_87disp_.obj
 0001:000123d9       __rttosnpopde              004133d9     LIBCMT:_87disp_.obj
 0001:000123e3       __rtchsifneg               004133e3     LIBCMT:_87disp_.obj
 0001:000123f0       __twoToTOS                 004133f0 f   LIBCMT:_common_.obj
 0001:00012405       __load_CW                  00413405 f   LIBCMT:_common_.obj
 0001:0001241c       __convertTOStoQNaN         0041341c f   LIBCMT:_common_.obj
 0001:00012435       __fload_withFB             00413435 f   LIBCMT:_common_.obj
 0001:00012478       __checkTOS_withFB          00413478 f   LIBCMT:_common_.obj
 0001:0001248e       __fast_exit                0041348e f   LIBCMT:_common_.obj
 0001:0001249b       __math_exit                0041349b f   LIBCMT:_common_.obj
 0001:000124c5       __check_overflow_exit      004134c5 f   LIBCMT:_common_.obj
 0001:000124d9       __check_range_exit         004134d9 f   LIBCMT:_common_.obj
 0001:00012580       __startTwoArgErrorHandling 00413580 f   LIBCMT:_genexcep_.obj
 0001:00012597       __startOneArgErrorHandling 00413597 f   LIBCMT:_genexcep_.obj
 0001:000125d3       __controlfp_s              004135d3 f   LIBCMT:_contrlfp_.obj
 0001:00012632       __statfp                   00413632 f   LIBCMT:_fpctrl_.obj
 0001:00012642       __clrfp                    00413642 f   LIBCMT:_fpctrl_.obj
 0001:00012653       __ctrlfp                   00413653 f   LIBCMT:_fpctrl_.obj
 0001:0001267e       __set_statfp               0041367e f   LIBCMT:_fpctrl_.obj
 0001:000126d6       ___set_fpsr_sse2           004136d6 f   LIBCMT:_fpctrl_.obj
 0001:00012750       __CIcos_pentium4           00413750 f   LIBCMT:_cos_pentium4_.obj
 0001:00012768       __cos_pentium4             00413768     LIBCMT:_cos_pentium4_.obj
 0001:00012900       __CItan_pentium4           00413900 f   LIBCMT:_tan_pentium4_.obj
 0001:00012918       __tan_pentium4             00413918     LIBCMT:_tan_pentium4_.obj
 0001:00012b60       __CIasin_pentium4          00413b60 f   LIBCMT:_asin_pentium4_.obj
 0001:00012b78       __asin_pentium4            00413b78     LIBCMT:_asin_pentium4_.obj
 0001:000130e0       __CIacos_pentium4          004140e0 f   LIBCMT:_acos_pentium4_.obj
 0001:000130f8       __acos_pentium4            004140f8     LIBCMT:_acos_pentium4_.obj
 0001:00013640       __CIatan_pentium4          00414640 f   LIBCMT:_atan_pentium4_.obj
 0001:00013658       __atan_pentium4            00414658     LIBCMT:_atan_pentium4_.obj
 0001:00013930       __CIexp_pentium4           00414930 f   LIBCMT:_exp_pentium4_.obj
 0001:00013948       __exp_pentium4             00414948     LIBCMT:_exp_pentium4_.obj
 0001:00013c01       __fFEXP                    00414c01     LIBCMT:_87tran_.obj
 0001:00013c58       __rtinfpopse               00414c58     LIBCMT:_87tran_.obj
 0001:00013c5a       __rtinfnpopse              00414c5a     LIBCMT:_87tran_.obj
 0001:00013c6a       __fFLN                     00414c6a     LIBCMT:_87tran_.obj
 0001:00013d1f       __rtinfpop                 00414d1f     LIBCMT:_87tran_.obj
 0001:00013d21       __rtinfnpop                00414d21     LIBCMT:_87tran_.obj
 0001:00013d3e       __ffexpm1                  00414d3e     LIBCMT:_87tran_.obj
 0001:00013df0       __cintrindisp2             00414df0 f   LIBCMT:_87cdisp_.obj
 0001:00013e2e       __cintrindisp1             00414e2e f   LIBCMT:_87cdisp_.obj
 0001:00013e6b       __ctrandisp2               00414e6b f   LIBCMT:_87cdisp_.obj
 0001:00013ffa       __ctrandisp1               00414ffa f   LIBCMT:_87cdisp_.obj
 0001:0001402d       __fload                    0041502d f   LIBCMT:_87cdisp_.obj
 0001:00014070       __CIlog_pentium4           00415070 f   LIBCMT:_log_pentium4_.obj
 0001:00014088       __log_pentium4             00415088     LIBCMT:_log_pentium4_.obj
 0001:000142fc       __fFATN2                   004152fc     LIBCMT:_87triga_.obj
 0001:0001434c       __rtpiby2                  0041534c     LIBCMT:_87triga_.obj
 0001:00014390       __global_unwind2           00415390 f   LIBCMT:exsup.obj
 0001:000143f5       __local_unwind2            004153f5 f   LIBCMT:exsup.obj
 0001:00014479       __abnormal_termination     00415479 f   LIBCMT:exsup.obj
 0001:0001449c       __NLG_Notify1              0041549c f   LIBCMT:exsup.obj
 0001:000144a5       __NLG_Notify               004154a5 f   LIBCMT:exsup.obj
 0001:000144bc       __NLG_Dispatch2            004154bc     LIBCMT:exsup.obj
 0001:000144bc       __NLG_Dispatch             004154bc     LIBCMT:exsup.obj
 0001:000144c4       __NLG_Call                 004154c4 f   LIBCMT:exsup.obj
 0001:000144c6       __NLG_Return2              004154c6     LIBCMT:exsup.obj
 0001:000144c7       __VEC_memzero              004154c7 f   LIBCMT:p4_memset.obj
 0001:00014581       __rt_probe_read4@4         00415581 f   LIBCMT:sehsupp.obj
 0001:000145d0       __aulldiv                  004155d0 f   LIBCMT:ulldiv.obj
 0001:00014638       __mbsicmp_l                00415638 f   LIBCMT:mbsicmp.obj
 0001:0001482f       __mbsicmp                  0041582f f   LIBCMT:mbsicmp.obj
 0001:00014846       __mbsrchr_l                00415846 f   LIBCMT:mbsrchr.obj
 0001:000148f0       __mbsrchr                  004158f0 f   LIBCMT:mbsrchr.obj
 0001:00014907       __fstat32                  00415907 f   LIBCMT:fstat.obj
 0001:00015367       __sopen_helper             00416367 f   LIBCMT:open.obj
 0001:0001542b       __sopen_s                  0041642b f   LIBCMT:open.obj
 0001:0001544b       ___loctotime32_t           0041644b f   LIBCMT:dtoxtime.obj
 0001:0001564f       __getdrive                 0041664f f   LIBCMT:drive.obj
 0001:0001571d       __mbctolower_l             0041671d f   LIBCMT:mbtolwr.obj
 0001:000157c3       __mbctolower               004167c3 f   LIBCMT:mbtolwr.obj
 0001:000157d6       __mbspbrk_l                004167d6 f   LIBCMT:mbspbrk.obj
 0001:0001589b       __mbspbrk                  0041689b f   LIBCMT:mbspbrk.obj
 0001:000158b2       __mbctoupper_l             004168b2 f   LIBCMT:mbtoupr.obj
 0001:00015958       __mbctoupper               00416958 f   LIBCMT:mbtoupr.obj
 0001:0001596b       __spawnvpe                 0041696b f   LIBCMT:spawnvpe.obj
 0001:00015c49       __spawnve                  00416c49 f   LIBCMT:spawnve.obj
 0001:00015e32       __access_s                 00416e32 f   LIBCMT:access.obj
 0001:00015eb1       __getpath                  00416eb1 f   LIBCMT:getpath.obj
 0001:00015f46       _strcat_s                  00416f46 f   LIBCMT:strcat_s.obj
 0001:00015fb3       __fdopen                   00416fb3 f   LIBCMT:fdopen.obj
 0001:00016129       __pipe                     00417129 f   LIBCMT:pipe.obj
 0001:000163cf       __cwait                    004173cf f   LIBCMT:wait.obj
 0001:00016460       ?__CxxUnhandledExceptionFilter@@YGJPAU_EXCEPTION_POINTERS@@@Z 00417460 f   LIBCMT:unhandld.obj
 0001:000164a2       ___CxxSetUnhandledExceptionFilter 004174a2 f   LIBCMT:unhandld.obj
 0001:000164b0       __setenvp                  004174b0 f   LIBCMT:stdenvp.obj
 0001:00016726       __setargv                  00417726 f   LIBCMT:stdargv.obj
 0001:000167e1       ___crtGetEnvironmentStringsA 004177e1 f   LIBCMT:a_env.obj
 0001:00016878       ___security_init_cookie    00417878 f   LIBCMT:gs_support.obj
 0001:00016913       _asctime                   00417913 f   LIBCMT:asctime.obj
 0001:00016af1       __localtime32_s            00417af1 f   LIBCMT:localtim.obj
 0001:00016cf7       __mbsnbicmp_l              00417cf7 f   LIBCMT:mbsnbicm.obj
 0001:00016efb       __mbsnbicmp                00417efb f   LIBCMT:mbsnbicm.obj
 0001:00016f15       __mbsnbcmp_l               00417f15 f   LIBCMT:mbsnbcmp.obj
 0001:00017061       __mbsnbcmp                 00418061 f   LIBCMT:mbsnbcmp.obj
 0001:0001707b       __crt_debugger_hook        0041807b f   LIBCMT:dbghook.obj
 0001:00017083       __getbuf                   00418083 f   LIBCMT:_getbuf.obj
 0001:000170cc       __lseeki64_nolock          004180cc f   LIBCMT:lseeki64.obj
 0001:00017151       __lseeki64                 00418151 f   LIBCMT:lseeki64.obj
 0001:0001723b       __isatty                   0041823b f   LIBCMT:isatty.obj
 0001:00017291       ___addlocaleref            00418291 f   LIBCMT:localref.obj
 0001:00017320       ___removelocaleref         00418320 f   LIBCMT:localref.obj
 0001:000173b9       ___freetlocinfo            004183b9 f   LIBCMT:localref.obj
 0001:00017504       __updatetlocinfoEx_nolock  00418504 f   LIBCMT:localref.obj
 0001:00017551       ___updatetlocinfo          00418551 f   LIBCMT:localref.obj
 0001:000177ed       ___updatetmbcinfo          004187ed f   LIBCMT:mbctype.obj
 0001:0001790d       __setmbcp_nolock           0041890d f   LIBCMT:mbctype.obj
 0001:00017af6       __setmbcp                  00418af6 f   LIBCMT:mbctype.obj
 0001:00017c90       ___initmbctable            00418c90 f   LIBCMT:mbctype.obj
 0001:00017cae       __VEC_memcpy               00418cae f   LIBCMT:p4_memcpy.obj
 0001:00017db1       __calloc_impl              00418db1 f   LIBCMT:calloc_impl.obj
 0001:00017e33       _realloc                   00418e33 f   LIBCMT:realloc.obj
 0001:00017ee0       __recalloc                 00418ee0 f   LIBCMT:recalloc.obj
 0001:00017f4e       __putwch_nolock            00418f4e f   LIBCMT:putwch.obj
 0001:00017f90       __mbtowc_l                 00418f90 f   LIBCMT:mbtowc.obj
 0001:000180a6       _mbtowc                    004190a6 f   LIBCMT:mbtowc.obj
 0001:000180c0       __isleadbyte_l             004190c0 f i LIBCMT:_wctype.obj
 0001:000180f8       _isleadbyte                004190f8 f i LIBCMT:_wctype.obj
 0001:00018110       __alloca_probe             00419110     LIBCMT:chkstk.obj
 0001:00018110       __chkstk                   00419110 f   LIBCMT:chkstk.obj
 0001:0001813b       __wctomb_s_l               0041913b f   LIBCMT:wctomb.obj
 0001:00018290       _wctomb_s                  00419290 f   LIBCMT:wctomb.obj
 0001:000182b0       __aulldvrm                 004192b0 f   LIBCMT:ulldvrm.obj
 0001:00018345       __freea                    00419345 f i LIBCMT:a_cmp.obj
 0001:000185d3       ___crtCompareStringA       004195d3 f   LIBCMT:a_cmp.obj
 0001:00018615       __strnicoll_l              00419615 f   LIBCMT:strnicol.obj
 0001:000187b1       ___crtsetenv               004197b1 f   LIBCMT:setenv.obj
 0001:000189f3       ___crtMessageBoxW          004199f3 f   LIBCMT:crtmboxw.obj
 0001:00018b5f       _wcscat_s                  00419b5f f   LIBCMT:wcscat_s.obj
 0001:00018bd4       _wcsncpy_s                 00419bd4 f   LIBCMT:wcsncpy_s.obj
 0001:00018ca1       _wcslen                    00419ca1 f   LIBCMT:wcslen.obj
 0001:00018cbc       _wcscpy_s                  00419cbc f   LIBCMT:wcscpy_s.obj
 0001:00018d1f       __set_error_mode           00419d1f f   LIBCMT:errmode.obj
 0001:00018d5e       _abort                     00419d5e f   LIBCMT:abort.obj
 0001:00018d91       _strncpy_s                 00419d91 f   LIBCMT:strncpy_s.obj
 0001:00018e46       __msize                    00419e46 f   LIBCMT:msize.obj
 0001:00018e79       __fptrap                   00419e79 f   LIBCMT:crt0fp.obj
 0001:00018e82       __isdigit_l                00419e82 f i LIBCMT:_ctype.obj
 0001:00018ed3       _isdigit                   00419ed3 f i LIBCMT:_ctype.obj
 0001:00018f01       __isxdigit_l               00419f01 f i LIBCMT:_ctype.obj
 0001:00018f57       _isxdigit                  00419f57 f i LIBCMT:_ctype.obj
 0001:00018f87       __isspace_l                00419f87 f i LIBCMT:_ctype.obj
 0001:00018fd8       _isspace                   00419fd8 f i LIBCMT:_ctype.obj
 0001:00019006       __ungetc_nolock            0041a006 f   LIBCMT:ungetc.obj
 0001:000190f0       __allmul                   0041a0f0 f   LIBCMT:llmul.obj
 0001:00019124       __tolower_l                0041a124 f   LIBCMT:tolower.obj
 0001:00019239       _tolower                   0041a239 f   LIBCMT:tolower.obj
 0001:00019265       __atodbl_l                 0041a265 f   LIBCMT:atodbl.obj
 0001:0001930d       __atoflt_l                 0041a30d f   LIBCMT:atodbl.obj
 0001:000193c0       _memmove                   0041a3c0 f   LIBCMT:memmove.obj
 0001:00019721       __fptostr                  0041a721 f   LIBCMT:_fptostr.obj
 0001:000197d4       ___dtold                   0041a7d4 f   LIBCMT:_cfout_.obj
 0001:00019887       __fltout2                  0041a887 f   LIBCMT:_cfout_.obj
 0001:00019920       __alldvrm                  0041a920 f   LIBCMT:lldvrm.obj
 0001:00019a00       __aullshr                  0041aa00 f   LIBCMT:ullshr.obj
 0001:00019a1f       __87except                 0041aa1f f   LIBCMT:_87except_.obj
 0001:00019b5e       ___libm_error_support      0041ab5e f   LIBCMT:_libm_error_.obj
 0001:00019e2a       __d_inttype                0041ae2a f   LIBCMT:_powhlp_.obj
 0001:00019e94       __powhlp                   0041ae94 f   LIBCMT:_powhlp_.obj
 0001:0001a1a6       ___crtLCMapStringA         0041b1a6 f   LIBCMT:a_map.obj
 0001:0001a1ec       ___ascii_stricmp           0041b1ec f   LIBCMT:stricmp.obj
 0001:0001a225       __stricmp_l                0041b225 f   LIBCMT:stricmp.obj
 0001:0001a2f0       __SEH_prolog4_GS           0041b2f0 f   LIBCMT:sehprolg4gs.obj
 0001:0001a338       __SEH_epilog4_GS           0041b338 f   LIBCMT:sehprolg4gs.obj
 0001:0001a347       __chsize_nolock            0041b347 f   LIBCMT:chsize.obj
 0001:0001a4fd       __setmode_nolock           0041b4fd f   LIBCMT:setmode.obj
 0001:0001a5b8       __get_fmode                0041b5b8 f   LIBCMT:setmode.obj
 0001:0001acc6       ___tzset                   0041bcc6 f   LIBCMT:tzset.obj
 0001:0001ad15       __isindst                  0041bd15 f   LIBCMT:tzset.obj
 0001:0001ad56       __get_daylight             0041bd56 f   LIBCMT:timeset.obj
 0001:0001ad83       __get_dstbias              0041bd83 f   LIBCMT:timeset.obj
 0001:0001adb0       __get_timezone             0041bdb0 f   LIBCMT:timeset.obj
 0001:0001addd       ___daylight                0041bddd f   LIBCMT:timeset.obj
 0001:0001ade3       ___dstbias                 0041bde3 f   LIBCMT:timeset.obj
 0001:0001ade9       ___timezone                0041bde9 f   LIBCMT:timeset.obj
 0001:0001adef       ___tzname                  0041bdef f   LIBCMT:timeset.obj
 0001:0001ae00       _strpbrk                   0041be00 f   LIBCMT:strpbrk.obj
 0001:0001ae40       __mbschr_l                 0041be40 f   LIBCMT:mbschr.obj
 0001:0001aef0       __mbschr                   0041bef0 f   LIBCMT:mbschr.obj
 0001:0001af07       __dospawn                  0041bf07 f   LIBCMT:dospawn.obj
 0001:0001b10b       __cenvarg                  0041c10b f   LIBCMT:cenvarg.obj
 0001:0001b4fa       __ismbblead                0041c4fa f   LIBCMT:ismbbyte.obj
 0001:0001b512       __gmtime32_s               0041c512 f   LIBCMT:gmtime.obj
 0001:0001b652       __strnicmp_l               0041c652 f   LIBCMT:strnicmp.obj
 0001:0001b734       __strnicmp                 0041c734 f   LIBCMT:strnicmp.obj
 0001:0001b787       _strncmp                   0041c787 f   LIBCMT:strncmp.obj
 0001:0001b847       ___free_lc_time            0041c847 f   LIBCMT:inittime.obj
 0001:0001bbbe       ___free_lconv_num          0041cbbe f   LIBCMT:initnum.obj
 0001:0001bc27       ___free_lconv_mon          0041cc27 f   LIBCMT:initmon.obj
 0001:0001be0c       ___crtGetStringTypeA       0041ce0c f   LIBCMT:a_str.obj
 0001:0001be4c       ___initconout              0041ce4c f   LIBCMT:initcon.obj
 0001:0001be6b       ___termconout              0041ce6b f   LIBCMT:initcon.obj
 0001:0001be82       ____lc_codepage_func       0041ce82 f   LIBCMT:initctyp.obj
 0001:0001c0d3       _strtol                    0041d0d3 f   LIBCMT:strtol.obj
 0001:0001c100       __alloca_probe_16          0041d100 f   LIBCMT:alloca16.obj
 0001:0001c116       __alloca_probe_8           0041d116     LIBCMT:alloca16.obj
 0001:0001c12c       __strdup                   0041d12c f   LIBCMT:strdup.obj
 0001:0001c17e       __isctype_l                0041d17e f   LIBCMT:isctype.obj
 0001:0001c236       __ld12tod                  0041d236 f   LIBCMT:_intrncvt_.obj
 0001:0001c787       __ld12tof                  0041d787 f   LIBCMT:_intrncvt_.obj
 0001:0001ccd8       ___strgtold12_l            0041dcd8 f   LIBCMT:_strgtold_.obj
 0001:0001d3b4       _$I10_OUTPUT               0041e3b4 f   LIBCMT:_x10fout_.obj
 0001:0001dcac       __raise_exc_ex             0041ecac f   LIBCMT:_fpexcept_.obj
 0001:0001df88       __raise_exc                0041ef88 f   LIBCMT:_fpexcept_.obj
 0001:0001dfab       __handle_exc               0041efab f   LIBCMT:_fpexcept_.obj
 0001:0001e18f       __set_errno_from_matherr   0041f18f f   LIBCMT:_fpexcept_.obj
 0001:0001e1bc       __matherr                  0041f1bc f   LIBCMT:_matherr_.obj
 0001:0001e1bf       __frnd                     0041f1bf f   LIBCMT:_frnd_.obj
 0001:0001e1d3       __fpclass                  0041f1d3 f   LIBCMT:_ieeemisc_.obj
 0001:0001e270       __set_exp                  0041f270 f   LIBCMT:_util_.obj
 0001:0001e29d       __sptype                   0041f29d f   LIBCMT:_util_.obj
 0001:0001e303       __decomp                   0041f303 f   LIBCMT:_util_.obj
 0001:0001e3c6       _atol                      0041f3c6 f   LIBCMT:atox.obj
 0001:0001e3f0       _strchr                    0041f3f0 f   LIBCMT:strchr.obj
 0001:0001e3f6       ___from_strstr_to_strchr   0041f3f6     LIBCMT:strchr.obj
 0001:0001e4ae       __mbsnicmp_l               0041f4ae f   LIBCMT:mbsnicmp.obj
 0001:0001e679       __mbsnicmp                 0041f679 f   LIBCMT:mbsnicmp.obj
 0001:0001e6a0       ___ascii_strnicmp          0041f6a0 f   LIBCMT:_strnicm.obj
 0001:0001e710       _strcspn                   0041f710 f   LIBCMT:strcspn.obj
 0001:0001e756       ___mtold12                 0041f756 f   LIBCMT:_mantold_.obj
 0001:0001e93a       _RtlUnwind@16              0041f93a f   kernel32:KERNEL32.dll
 0002:00000000       __imp__RegQueryValueExA@24 00420000     Advapi32:ADVAPI32.dll
 0002:00000004       __imp__RegOpenKeyExA@20    00420004     Advapi32:ADVAPI32.dll
 0002:00000008       __imp__RegCloseKey@4       00420008     Advapi32:ADVAPI32.dll
 0002:0000000c       \177ADVAPI32_NULL_THUNK_DATA 0042000c     Advapi32:ADVAPI32.dll
 0002:00000010       __imp__CloseHandle@4       00420010     kernel32:KERNEL32.dll
 0002:00000014       __imp__GetFileTime@16      00420014     kernel32:KERNEL32.dll
 0002:00000018       __imp__CreateFileA@28      00420018     kernel32:KERNEL32.dll
 0002:0000001c       __imp__Beep@8              0042001c     kernel32:KERNEL32.dll
 0002:00000020       __imp__Sleep@4             00420020     kernel32:KERNEL32.dll
 0002:00000024       __imp__GetCurrentProcessId@0 00420024     kernel32:KERNEL32.dll
 0002:00000028       __imp__GetVersionExW@4     00420028     kernel32:KERNEL32.dll
 0002:0000002c       __imp__FlushFileBuffers@4  0042002c     kernel32:KERNEL32.dll
 0002:00000030       __imp__WriteFile@20        00420030     kernel32:KERNEL32.dll
 0002:00000034       __imp__ReadFile@20         00420034     kernel32:KERNEL32.dll
 0002:00000038       __imp__DecodePointer@4     00420038     kernel32:KERNEL32.dll
 0002:0000003c       __imp__EncodePointer@4     0042003c     kernel32:KERNEL32.dll
 0002:00000040       __imp__GetLastError@0      00420040     kernel32:KERNEL32.dll
 0002:00000044       __imp__SetConsoleCtrlHandler@8 00420044     kernel32:KERNEL32.dll
 0002:00000048       __imp__GetFullPathNameA@16 00420048     kernel32:KERNEL32.dll
 0002:0000004c       __imp__HeapAlloc@12        0042004c     kernel32:KERNEL32.dll
 0002:00000050       __imp__GetProcAddress@8    00420050     kernel32:KERNEL32.dll
 0002:00000054       __imp__GetModuleHandleW@4  00420054     kernel32:KERNEL32.dll
 0002:00000058       __imp__ExitProcess@4       00420058     kernel32:KERNEL32.dll
 0002:0000005c       __imp__EnterCriticalSection@4 0042005c     kernel32:KERNEL32.dll
 0002:00000060       __imp__LeaveCriticalSection@4 00420060     kernel32:KERNEL32.dll
 0002:00000064       __imp__RtlUnwind@16        00420064     kernel32:KERNEL32.dll
 0002:00000068       __imp__GetSystemTimeAsFileTime@4 00420068     kernel32:KERNEL32.dll
 0002:0000006c       __imp__FindClose@4         0042006c     kernel32:KERNEL32.dll
 0002:00000070       __imp__FileTimeToSystemTime@8 00420070     kernel32:KERNEL32.dll
 0002:00000074       __imp__FileTimeToLocalFileTime@8 00420074     kernel32:KERNEL32.dll
 0002:00000078       __imp__GetDriveTypeA@4     00420078     kernel32:KERNEL32.dll
 0002:0000007c       __imp__FindFirstFileExA@24 0042007c     kernel32:KERNEL32.dll
 0002:00000080       __imp__CreateDirectoryA@8  00420080     kernel32:KERNEL32.dll
 0002:00000084       __imp__RemoveDirectoryA@4  00420084     kernel32:KERNEL32.dll
 0002:00000088       __imp__DeleteFileA@4       00420088     kernel32:KERNEL32.dll
 0002:0000008c       __imp__GetDriveTypeW@4     0042008c     kernel32:KERNEL32.dll
 0002:00000090       __imp__SetEnvironmentVariableA@8 00420090     kernel32:KERNEL32.dll
 0002:00000094       __imp__GetCurrentDirectoryA@8 00420094     kernel32:KERNEL32.dll
 0002:00000098       __imp__SetCurrentDirectoryA@4 00420098     kernel32:KERNEL32.dll
 0002:0000009c       __imp__CreateProcessA@40   0042009c     kernel32:KERNEL32.dll
 0002:000000a0       __imp__DuplicateHandle@28  004200a0     kernel32:KERNEL32.dll
 0002:000000a4       __imp__GetCurrentProcess@0 004200a4     kernel32:KERNEL32.dll
 0002:000000a8       __imp__GetCommandLineA@0   004200a8     kernel32:KERNEL32.dll
 0002:000000ac       __imp__HeapSetInformation@16 004200ac     kernel32:KERNEL32.dll
 0002:000000b0       __imp__InitializeCriticalSectionAndSpinCount@8 004200b0     kernel32:KERNEL32.dll
 0002:000000b4       __imp__UnhandledExceptionFilter@4 004200b4     kernel32:KERNEL32.dll
 0002:000000b8       __imp__SetUnhandledExceptionFilter@4 004200b8     kernel32:KERNEL32.dll
 0002:000000bc       __imp__IsDebuggerPresent@0 004200bc     kernel32:KERNEL32.dll
 0002:000000c0       __imp__TerminateProcess@8  004200c0     kernel32:KERNEL32.dll
 0002:000000c4       __imp__HeapFree@12         004200c4     kernel32:KERNEL32.dll
 0002:000000c8       __imp__SetFilePointer@16   004200c8     kernel32:KERNEL32.dll
 0002:000000cc       __imp__SetHandleCount@4    004200cc     kernel32:KERNEL32.dll
 0002:000000d0       __imp__GetStdHandle@4      004200d0     kernel32:KERNEL32.dll
 0002:000000d4       __imp__GetFileType@4       004200d4     kernel32:KERNEL32.dll
 0002:000000d8       __imp__GetStartupInfoW@4   004200d8     kernel32:KERNEL32.dll
 0002:000000dc       __imp__DeleteCriticalSection@4 004200dc     kernel32:KERNEL32.dll
 0002:000000e0       __imp__TlsAlloc@0          004200e0     kernel32:KERNEL32.dll
 0002:000000e4       __imp__TlsGetValue@4       004200e4     kernel32:KERNEL32.dll
 0002:000000e8       __imp__TlsSetValue@8       004200e8     kernel32:KERNEL32.dll
 0002:000000ec       __imp__TlsFree@4           004200ec     kernel32:KERNEL32.dll
 0002:000000f0       __imp__InterlockedIncrement@4 004200f0     kernel32:KERNEL32.dll
 0002:000000f4       __imp__SetLastError@4      004200f4     kernel32:KERNEL32.dll
 0002:000000f8       __imp__GetCurrentThreadId@0 004200f8     kernel32:KERNEL32.dll
 0002:000000fc       __imp__InterlockedDecrement@4 004200fc     kernel32:KERNEL32.dll
 0002:00000100       __imp__MultiByteToWideChar@24 00420100     kernel32:KERNEL32.dll
 0002:00000104       __imp__SetStdHandle@8      00420104     kernel32:KERNEL32.dll
 0002:00000108       __imp__WideCharToMultiByte@32 00420108     kernel32:KERNEL32.dll
 0002:0000010c       __imp__GetConsoleCP@0      0042010c     kernel32:KERNEL32.dll
 0002:00000110       __imp__GetConsoleMode@8    00420110     kernel32:KERNEL32.dll
 0002:00000114       __imp__GetModuleFileNameW@12 00420114     kernel32:KERNEL32.dll
 0002:00000118       __imp__HeapCreate@12       00420118     kernel32:KERNEL32.dll
 0002:0000011c       __imp__LoadLibraryW@4      0042011c     kernel32:KERNEL32.dll
 0002:00000120       __imp__IsProcessorFeaturePresent@4 00420120     kernel32:KERNEL32.dll
 0002:00000124       __imp__GetFileInformationByHandle@8 00420124     kernel32:KERNEL32.dll
 0002:00000128       __imp__PeekNamedPipe@24    00420128     kernel32:KERNEL32.dll
 0002:0000012c       __imp__GetCurrentDirectoryW@8 0042012c     kernel32:KERNEL32.dll
 0002:00000130       __imp__GetFileAttributesA@4 00420130     kernel32:KERNEL32.dll
 0002:00000134       __imp__CreatePipe@16       00420134     kernel32:KERNEL32.dll
 0002:00000138       __imp__GetExitCodeProcess@8 00420138     kernel32:KERNEL32.dll
 0002:0000013c       __imp__WaitForSingleObject@8 0042013c     kernel32:KERNEL32.dll
 0002:00000140       __imp__GetModuleFileNameA@12 00420140     kernel32:KERNEL32.dll
 0002:00000144       __imp__FreeEnvironmentStringsW@4 00420144     kernel32:KERNEL32.dll
 0002:00000148       __imp__GetEnvironmentStringsW@0 00420148     kernel32:KERNEL32.dll
 0002:0000014c       __imp__QueryPerformanceCounter@4 0042014c     kernel32:KERNEL32.dll
 0002:00000150       __imp__GetTickCount@0      00420150     kernel32:KERNEL32.dll
 0002:00000154       __imp__GetCPInfo@8         00420154     kernel32:KERNEL32.dll
 0002:00000158       __imp__GetACP@0            00420158     kernel32:KERNEL32.dll
 0002:0000015c       __imp__GetOEMCP@0          0042015c     kernel32:KERNEL32.dll
 0002:00000160       __imp__IsValidCodePage@4   00420160     kernel32:KERNEL32.dll
 0002:00000164       __imp__HeapReAlloc@16      00420164     kernel32:KERNEL32.dll
 0002:00000168       __imp__WriteConsoleW@20    00420168     kernel32:KERNEL32.dll
 0002:0000016c       __imp__CompareStringW@24   0042016c     kernel32:KERNEL32.dll
 0002:00000170       __imp__HeapSize@12         00420170     kernel32:KERNEL32.dll
 0002:00000174       __imp__LCMapStringW@24     00420174     kernel32:KERNEL32.dll
 0002:00000178       __imp__SetEndOfFile@4      00420178     kernel32:KERNEL32.dll
 0002:0000017c       __imp__GetProcessHeap@0    0042017c     kernel32:KERNEL32.dll
 0002:00000180       __imp__GetTimeZoneInformation@4 00420180     kernel32:KERNEL32.dll
 0002:00000184       __imp__GetStringTypeW@16   00420184     kernel32:KERNEL32.dll
 0002:00000188       __imp__CreateFileW@28      00420188     kernel32:KERNEL32.dll
 0002:0000018c       __imp__RaiseException@16   0042018c     kernel32:KERNEL32.dll
 0002:00000190       \177KERNEL32_NULL_THUNK_DATA 00420190     kernel32:KERNEL32.dll
 0002:00000194       ___xc_a                    00420194     LIBCMT:crt0init.obj
 0002:00000198       ___xc_z                    00420198     LIBCMT:crt0init.obj
 0002:0000019c       ___xi_a                    0042019c     LIBCMT:crt0init.obj
 0002:000001bc       ___xi_z                    004201bc     LIBCMT:crt0init.obj
 0002:000001c0       ___xp_a                    004201c0     LIBCMT:crt0init.obj
 0002:000001cc       ___xp_z                    004201cc     LIBCMT:crt0init.obj
 0002:000001d0       ___xt_a                    004201d0     LIBCMT:crt0init.obj
 0002:000001d4       ___xt_z                    004201d4     LIBCMT:crt0init.obj
 0002:000001e0       __real@4059000000000000    004201e0     bpsheap.obj
 0002:000001e8       ??_C@_01EEMJAFIK@?6?$AA@   004201e8     LIBCMT:perror.obj
 0002:000001ec       ??_C@_02LMMGGCAJ@?3?5?$AA@ 004201ec     LIBCMT:perror.obj
 0002:000001f0       ??_C@_0P@MIGLKIOC@CorExitProcess?$AA@ 004201f0     LIBCMT:crt0dat.obj
 0002:00000200       ??_C@_1BI@BGOHAHKC@?$AAm?$AAs?$AAc?$AAo?$AAr?$AAe?$AAe?$AA?4?$AAd?$AAl?$AAl?$AA?$AA@ 00420200     LIBCMT:crt0dat.obj
 0002:00000218       __FPinit                   00420218     LIBCMT:_fpinit_.obj
 0002:0000021c       ??_C@_04PNGHFIJN@?4com?$AA@ 0042021c     LIBCMT:stat.obj
 0002:00000224       ??_C@_04NEEFLLOK@?4bat?$AA@ 00420224     LIBCMT:stat.obj
 0002:0000022c       ??_C@_04CPCBDHLK@?4cmd?$AA@ 0042022c     LIBCMT:stat.obj
 0002:00000234       ??_C@_04JLMDILM@?4exe?$AA@ 00420234     LIBCMT:stat.obj
 0002:0000023c       ??_C@_03LLEJOLGL@?4?1?2?$AA@ 0042023c     LIBCMT:stat.obj
 0002:00000240       ??_C@_02EAOCEIGI@?$DP?$CK?$AA@ 00420240     LIBCMT:stat.obj
 0002:00000244       ??_C@_07INNMNHPJ@cmd?4exe?$AA@ 00420244     LIBCMT:system.obj
 0002:0000024c       ??_C@_02HNHPBPFE@?1c?$AA@  0042024c     LIBCMT:system.obj
 0002:00000250       ??_C@_07CFPBBAOO@COMSPEC?$AA@ 00420250     LIBCMT:system.obj
 0002:00000258       ??_C@_01KICIPPFI@?2?$AA@   00420258     LIBCMT:popen.obj
 0002:0000025c       ??_C@_04HBHDLLBA@PATH?$AA@ 0042025c     LIBCMT:popen.obj
 0002:00000264       ??_C@_04NPFIMJFF@?5?1c?5?$AA@ 00420264     LIBCMT:popen.obj
 0002:0000028c       ??_C@_1BK@DBDEIDLH@?$AAK?$AAE?$AAR?$AAN?$AAE?$AAL?$AA3?$AA2?$AA?4?$AAD?$AAL?$AAL?$AA?$AA@ 0042028c     LIBCMT:tidtable.obj
 0002:000002a8       ??_C@_07PEJMOBNF@FlsFree?$AA@ 004202a8     LIBCMT:tidtable.obj
 0002:000002b0       ??_C@_0M@JCPCPOEF@FlsSetValue?$AA@ 004202b0     LIBCMT:tidtable.obj
 0002:000002bc       ??_C@_0M@GDNOONDI@FlsGetValue?$AA@ 004202bc     LIBCMT:tidtable.obj
 0002:000002c8       ??_C@_08KNHFBNJ@FlsAlloc?$AA@ 004202c8     LIBCMT:tidtable.obj
 0002:000002d8       __XcptActTab               004202d8     LIBCMT:winxfltr.obj
 0002:00000368       __First_FPE_Indx           00420368     LIBCMT:winxfltr.obj
 0002:0000036c       __Num_FPE                  0042036c     LIBCMT:winxfltr.obj
 0002:00000370       __XcptActTabSize           00420370     LIBCMT:winxfltr.obj
 0002:00000374       __XcptActTabCount          00420374     LIBCMT:winxfltr.obj
 0002:00000378       ??_C@_0BG@KLEAJEFJ@Illegal?5byte?5sequence?$AA@ 00420378     LIBCMT:syserr.obj
 0002:00000390       ??_C@_0BE@ICMCHPHH@Directory?5not?5empty?$AA@ 00420390     LIBCMT:syserr.obj
 0002:000003a4       ??_C@_0BJ@IHEHINLI@Function?5not?5implemented?$AA@ 004203a4     LIBCMT:syserr.obj
 0002:000003c0       ??_C@_0BD@CLHBCGPB@No?5locks?5available?$AA@ 004203c0     LIBCMT:syserr.obj
 0002:000003d4       ??_C@_0BC@BEDIHIDK@Filename?5too?5long?$AA@ 004203d4     LIBCMT:syserr.obj
 0002:000003e8       ??_C@_0BK@JAEBMJJM@Resource?5deadlock?5avoided?$AA@ 004203e8     LIBCMT:syserr.obj
 0002:00000404       ??_C@_0BB@FCBJFCAJ@Result?5too?5large?$AA@ 00420404     LIBCMT:syserr.obj
 0002:00000418       ??_C@_0N@MMJPGLJK@Domain?5error?$AA@ 00420418     LIBCMT:syserr.obj
 0002:00000428       ??_C@_0M@LHEPIIOM@Broken?5pipe?$AA@ 00420428     LIBCMT:syserr.obj
 0002:00000434       ??_C@_0P@PKCJJLLM@Too?5many?5links?$AA@ 00420434     LIBCMT:syserr.obj
 0002:00000444       ??_C@_0BG@DDBFNKBH@Read?9only?5file?5system?$AA@ 00420444     LIBCMT:syserr.obj
 0002:0000045c       ??_C@_0N@FEHLOILP@Invalid?5seek?$AA@ 0042045c     LIBCMT:syserr.obj
 0002:0000046c       ??_C@_0BI@FEALHKLD@No?5space?5left?5on?5device?$AA@ 0042046c     LIBCMT:syserr.obj
 0002:00000484       ??_C@_0P@LFMMIPAE@File?5too?5large?$AA@ 00420484     LIBCMT:syserr.obj
 0002:00000494       ??_C@_0CE@ONOKNLPF@Inappropriate?5I?1O?5control?5operat@ 00420494     LIBCMT:syserr.obj
 0002:000004b8       ??_C@_0BE@INBJMKGG@Too?5many?5open?5files?$AA@ 004204b8     LIBCMT:syserr.obj
 0002:000004cc       ??_C@_0BO@IIFBODJE@Too?5many?5open?5files?5in?5system?$AA@ 004204cc     LIBCMT:syserr.obj
 0002:000004ec       ??_C@_0BB@HMGGCEBG@Invalid?5argument?$AA@ 004204ec     LIBCMT:syserr.obj
 0002:00000500       ??_C@_0P@NDHGCGKE@Is?5a?5directory?$AA@ 00420500     LIBCMT:syserr.obj
 0002:00000510       ??_C@_0BA@CJBACOOL@Not?5a?5directory?$AA@ 00420510     LIBCMT:syserr.obj
 0002:00000520       ??_C@_0P@NLEIANHE@No?5such?5device?$AA@ 00420520     LIBCMT:syserr.obj
 0002:00000530       ??_C@_0O@OAMDNOCP@Improper?5link?$AA@ 00420530     LIBCMT:syserr.obj
 0002:00000540       ??_C@_0M@NAAJNNGH@File?5exists?$AA@ 00420540     LIBCMT:syserr.obj
 0002:0000054c       ??_C@_0BA@BIBLIOEK@Resource?5device?$AA@ 0042054c     LIBCMT:syserr.obj
 0002:0000055c       ??_C@_0O@NIPGCINC@Unknown?5error?$AA@ 0042055c     LIBCMT:syserr.obj
 0002:0000056c       ??_C@_0M@LOEHLCJD@Bad?5address?$AA@ 0042056c     LIBCMT:syserr.obj
 0002:00000578       ??_C@_0BC@HFNFNKAI@Permission?5denied?$AA@ 00420578     LIBCMT:syserr.obj
 0002:0000058c       ??_C@_0BB@IMDKMPFB@Not?5enough?5space?$AA@ 0042058c     LIBCMT:syserr.obj
 0002:000005a0       ??_C@_0CB@EPFKGNAK@Resource?5temporarily?5unavailable@ 004205a0     LIBCMT:syserr.obj
 0002:000005c4       ??_C@_0BD@LOHELEP@No?5child?5processes?$AA@ 004205c4     LIBCMT:syserr.obj
 0002:000005d8       ??_C@_0BE@NFGDDCEF@Bad?5file?5descriptor?$AA@ 004205d8     LIBCMT:syserr.obj
 0002:000005ec       ??_C@_0BC@HKPNECK@Exec?5format?5error?$AA@ 004205ec     LIBCMT:syserr.obj
 0002:00000600       ??_C@_0BC@MFFGCDFL@Arg?5list?5too?5long?$AA@ 00420600     LIBCMT:syserr.obj
 0002:00000614       ??_C@_0BK@DPKMCKJ@No?5such?5device?5or?5address?$AA@ 00420614     LIBCMT:syserr.obj
 0002:00000630       ??_C@_0BD@KKNFOBBD@Input?1output?5error?$AA@ 00420630     LIBCMT:syserr.obj
 0002:00000644       ??_C@_0BK@FJBOAFDK@Interrupted?5function?5call?$AA@ 00420644     LIBCMT:syserr.obj
 0002:00000660       ??_C@_0BA@FKIAIBGA@No?5such?5process?$AA@ 00420660     LIBCMT:syserr.obj
 0002:00000670       ??_C@_0BK@FMDHKPNF@No?5such?5file?5or?5directory?$AA@ 00420670     LIBCMT:syserr.obj
 0002:0000068c       ??_C@_0BI@BJFCGOHL@Operation?5not?5permitted?$AA@ 0042068c     LIBCMT:syserr.obj
 0002:000006a4       ??_C@_08INEPGKHH@No?5error?$AA@ 004206a4     LIBCMT:syserr.obj
 0002:000006b0       ??_C@_1O@CEDCILHN@?$AA?$CI?$AAn?$AAu?$AAl?$AAl?$AA?$CJ?$AA?$AA@ 004206b0     LIBCMT:output.obj
 0002:000006c0       ??_C@_06OJHGLDPL@?$CInull?$CJ?$AA@ 004206c0     LIBCMT:output.obj
 0002:000006c8       ___lookuptable             004206c8     LIBCMT:output.obj
 0002:00000724       ??_C@_1BO@BKOMIGKJ@?$AAr?$AAu?$AAn?$AAt?$AAi?$AAm?$AAe?$AA?5?$AAe?$AAr?$AAr?$AAo?$AAr?$AA?5?$AA?$AA@ 00420724     LIBCMT:crt0msg.obj
 0002:00000744       ??_C@_15JNBOKNOG@?$AA?$AN?$AA?6?$AA?$AA@ 00420744     LIBCMT:crt0msg.obj
 0002:0000074c       ??_C@_1BM@JBBEPPHI@?$AAT?$AAL?$AAO?$AAS?$AAS?$AA?5?$AAe?$AAr?$AAr?$AAo?$AAr?$AA?$AN?$AA?6?$AA?$AA@ 0042074c     LIBCMT:crt0msg.obj
 0002:00000768       ??_C@_1BK@KMOMNAAI@?$AAS?$AAI?$AAN?$AAG?$AA?5?$AAe?$AAr?$AAr?$AAo?$AAr?$AA?$AN?$AA?6?$AA?$AA@ 00420768     LIBCMT:crt0msg.obj
 0002:00000784       ??_C@_1BO@BFCDCGC@?$AAD?$AAO?$AAM?$AAA?$AAI?$AAN?$AA?5?$AAe?$AAr?$AAr?$AAo?$AAr?$AA?$AN?$AA?6?$AA?$AA@ 00420784     LIBCMT:crt0msg.obj
 0002:000007a8       ??_C@_1BOO@KGEDBGAJ@?$AAR?$AA6?$AA0?$AA3?$AA3?$AA?$AN?$AA?6?$AA?9?$AA?5?$AAA?$AAt?$AAt?$AAe?$AAm?$AAp?$AAt?$AA?5?$AAt?$AAo?$AA?5?$AAu?$AAs?$AAe?$AA?5?$AAM?$AAS?$AAI?$AAL?$AA?5?$AAc?$AAo?$AAd@ 004207a8     LIBCMT:crt0msg.obj
 0002:00000998       ??_C@_1GG@GOPILAJP@?$AAR?$AA6?$AA0?$AA3?$AA2?$AA?$AN?$AA?6?$AA?9?$AA?5?$AAn?$AAo?$AAt?$AA?5?$AAe?$AAn?$AAo?$AAu?$AAg?$AAh?$AA?5?$AAs?$AAp?$AAa?$AAc?$AAe?$AA?5?$AAf?$AAo?$AAr?$AA?5?$AAl?$AAo@ 00420998     LIBCMT:crt0msg.obj
 0002:00000a00       ??_C@_1MG@ENCOOIDF@?$AAR?$AA6?$AA0?$AA3?$AA1?$AA?$AN?$AA?6?$AA?9?$AA?5?$AAA?$AAt?$AAt?$AAe?$AAm?$AAp?$AAt?$AA?5?$AAt?$AAo?$AA?5?$AAi?$AAn?$AAi?$AAt?$AAi?$AAa?$AAl?$AAi?$AAz?$AAe?$AA?5?$AAt@ 00420a00     LIBCMT:crt0msg.obj
 0002:00000ac8       ??_C@_1DO@BMFCDCD@?$AAR?$AA6?$AA0?$AA3?$AA0?$AA?$AN?$AA?6?$AA?9?$AA?5?$AAC?$AAR?$AAT?$AA?5?$AAn?$AAo?$AAt?$AA?5?$AAi?$AAn?$AAi?$AAt?$AAi?$AAa?$AAl?$AAi?$AAz?$AAe?$AAd?$AA?$AN?$AA?6?$AA?$AA@ 00420ac8     LIBCMT:crt0msg.obj
 0002:00000b08       ??_C@_1EK@HHFLMAOL@?$AAR?$AA6?$AA0?$AA2?$AA8?$AA?$AN?$AA?6?$AA?9?$AA?5?$AAu?$AAn?$AAa?$AAb?$AAl?$AAe?$AA?5?$AAt?$AAo?$AA?5?$AAi?$AAn?$AAi?$AAt?$AAi?$AAa?$AAl?$AAi?$AAz?$AAe?$AA?5?$AAh?$AAe@ 00420b08     LIBCMT:crt0msg.obj
 0002:00000b58       ??_C@_1GK@MFGOKLAG@?$AAR?$AA6?$AA0?$AA2?$AA7?$AA?$AN?$AA?6?$AA?9?$AA?5?$AAn?$AAo?$AAt?$AA?5?$AAe?$AAn?$AAo?$AAu?$AAg?$AAh?$AA?5?$AAs?$AAp?$AAa?$AAc?$AAe?$AA?5?$AAf?$AAo?$AAr?$AA?5?$AAl?$AAo@ 00420b58     LIBCMT:crt0msg.obj
 0002:00000bc8       ??_C@_1GK@MCAAGJMO@?$AAR?$AA6?$AA0?$AA2?$AA6?$AA?$AN?$AA?6?$AA?9?$AA?5?$AAn?$AAo?$AAt?$AA?5?$AAe?$AAn?$AAo?$AAu?$AAg?$AAh?$AA?5?$AAs?$AAp?$AAa?$AAc?$AAe?$AA?5?$AAf?$AAo?$AAr?$AA?5?$AAs?$AAt@ 00420bc8     LIBCMT:crt0msg.obj
 0002:00000c38       ??_C@_1EM@MAADIHMB@?$AAR?$AA6?$AA0?$AA2?$AA5?$AA?$AN?$AA?6?$AA?9?$AA?5?$AAp?$AAu?$AAr?$AAe?$AA?5?$AAv?$AAi?$AAr?$AAt?$AAu?$AAa?$AAl?$AA?5?$AAf?$AAu?$AAn?$AAc?$AAt?$AAi?$AAo?$AAn?$AA?5?$AAc@ 00420c38     LIBCMT:crt0msg.obj
 0002:00000c88       ??_C@_1GK@FHCKBEFA@?$AAR?$AA6?$AA0?$AA2?$AA4?$AA?$AN?$AA?6?$AA?9?$AA?5?$AAn?$AAo?$AAt?$AA?5?$AAe?$AAn?$AAo?$AAu?$AAg?$AAh?$AA?5?$AAs?$AAp?$AAa?$AAc?$AAe?$AA?5?$AAf?$AAo?$AAr?$AA?5?$AA_?$AAo@ 00420c88     LIBCMT:crt0msg.obj
 0002:00000cf8       ??_C@_1FC@ECHBIFBC@?$AAR?$AA6?$AA0?$AA1?$AA9?$AA?$AN?$AA?6?$AA?9?$AA?5?$AAu?$AAn?$AAa?$AAb?$AAl?$AAe?$AA?5?$AAt?$AAo?$AA?5?$AAo?$AAp?$AAe?$AAn?$AA?5?$AAc?$AAo?$AAn?$AAs?$AAo?$AAl?$AAe?$AA?5@ 00420cf8     LIBCMT:crt0msg.obj
 0002:00000d50       ??_C@_1EC@JIBHAOPH@?$AAR?$AA6?$AA0?$AA1?$AA8?$AA?$AN?$AA?6?$AA?9?$AA?5?$AAu?$AAn?$AAe?$AAx?$AAp?$AAe?$AAc?$AAt?$AAe?$AAd?$AA?5?$AAh?$AAe?$AAa?$AAp?$AA?5?$AAe?$AAr?$AAr?$AAo?$AAr?$AA?$AN?$AA?6@ 00420d50     LIBCMT:crt0msg.obj
 0002:00000d98       ??_C@_1FK@BEOGODMC@?$AAR?$AA6?$AA0?$AA1?$AA7?$AA?$AN?$AA?6?$AA?9?$AA?5?$AAu?$AAn?$AAe?$AAx?$AAp?$AAe?$AAc?$AAt?$AAe?$AAd?$AA?5?$AAm?$AAu?$AAl?$AAt?$AAi?$AAt?$AAh?$AAr?$AAe?$AAa?$AAd?$AA?5@ 00420d98     LIBCMT:crt0msg.obj
 0002:00000df8       ??_C@_1FI@LOGNIKDM@?$AAR?$AA6?$AA0?$AA1?$AA6?$AA?$AN?$AA?6?$AA?9?$AA?5?$AAn?$AAo?$AAt?$AA?5?$AAe?$AAn?$AAo?$AAu?$AAg?$AAh?$AA?5?$AAs?$AAp?$AAa?$AAc?$AAe?$AA?5?$AAf?$AAo?$AAr?$AA?5?$AAt?$AAh@ 00420df8     LIBCMT:crt0msg.obj
 0002:00000e50       ??_C@_1EG@BEHAGFJD@?$AAR?$AA6?$AA0?$AA1?$AA0?$AA?$AN?$AA?6?$AA?9?$AA?5?$AAa?$AAb?$AAo?$AAr?$AAt?$AA?$CI?$AA?$CJ?$AA?5?$AAh?$AAa?$AAs?$AA?5?$AAb?$AAe?$AAe?$AAn?$AA?5?$AAc?$AAa?$AAl?$AAl?$AAe?$AAd@ 00420e50     LIBCMT:crt0msg.obj
 0002:00000e98       ??_C@_1FI@HONFMGBI@?$AAR?$AA6?$AA0?$AA0?$AA9?$AA?$AN?$AA?6?$AA?9?$AA?5?$AAn?$AAo?$AAt?$AA?5?$AAe?$AAn?$AAo?$AAu?$AAg?$AAh?$AA?5?$AAs?$AAp?$AAa?$AAc?$AAe?$AA?5?$AAf?$AAo?$AAr?$AA?5?$AAe?$AAn@ 00420e98     LIBCMT:crt0msg.obj
 0002:00000ef0       ??_C@_1FE@LLNEDJMD@?$AAR?$AA6?$AA0?$AA0?$AA8?$AA?$AN?$AA?6?$AA?9?$AA?5?$AAn?$AAo?$AAt?$AA?5?$AAe?$AAn?$AAo?$AAu?$AAg?$AAh?$AA?5?$AAs?$AAp?$AAa?$AAc?$AAe?$AA?5?$AAf?$AAo?$AAr?$AA?5?$AAa?$AAr@ 00420ef0     LIBCMT:crt0msg.obj
 0002:00000f48       ??_C@_1FK@PGACCAFB@?$AAR?$AA6?$AA0?$AA0?$AA2?$AA?$AN?$AA?6?$AA?9?$AA?5?$AAf?$AAl?$AAo?$AAa?$AAt?$AAi?$AAn?$AAg?$AA?5?$AAp?$AAo?$AAi?$AAn?$AAt?$AA?5?$AAs?$AAu?$AAp?$AAp?$AAo?$AAr?$AAt?$AA?5@ 00420f48     LIBCMT:crt0msg.obj
 0002:00001058       ??_C@_1EK@MBDPDCGA@?$AAM?$AAi?$AAc?$AAr?$AAo?$AAs?$AAo?$AAf?$AAt?$AA?5?$AAV?$AAi?$AAs?$AAu?$AAa?$AAl?$AA?5?$AAC?$AA?$CL?$AA?$CL?$AA?5?$AAR?$AAu?$AAn?$AAt?$AAi?$AAm?$AAe?$AA?5?$AAL?$AAi?$AAb@ 00421058     LIBCMT:crt0msg.obj
 0002:000010a4       ??_C@_15IABLJNFO@?$AA?6?$AA?6?$AA?$AA@ 004210a4     LIBCMT:crt0msg.obj
 0002:000010ac       ??_C@_17LGKOMLJ@?$AA?4?$AA?4?$AA?4?$AA?$AA@ 004210ac     LIBCMT:crt0msg.obj
 0002:000010b4       ??_C@_1CO@EAEJAADC@?$AA?$DM?$AAp?$AAr?$AAo?$AAg?$AAr?$AAa?$AAm?$AA?5?$AAn?$AAa?$AAm?$AAe?$AA?5?$AAu?$AAn?$AAk?$AAn?$AAo?$AAw?$AAn?$AA?$DO?$AA?$AA@ 004210b4     LIBCMT:crt0msg.obj
 0002:000010e4       ??_C@_1DE@JNGNBFGO@?$AAR?$AAu?$AAn?$AAt?$AAi?$AAm?$AAe?$AA?5?$AAE?$AAr?$AAr?$AAo?$AAr?$AA?$CB?$AA?6?$AA?6?$AAP?$AAr?$AAo?$AAg?$AAr?$AAa?$AAm?$AA?3?$AA?5?$AA?$AA@ 004210e4     LIBCMT:crt0msg.obj
 0002:00001118       __real@0000000000000000    00421118     LIBCMT:cvt.obj
 0002:00001120       ??_C@_05KLBDPFGC@e?$CL000?$AA@ 00421120     LIBCMT:cvt.obj
 0002:000019d0       __indefinite               004219d0     LIBCMT:_87disp_.obj
 0002:000019da       __piby2                    004219da     LIBCMT:_87disp_.obj
 0002:00001a08       __DEFAULT_CW_in_mem        00421a08     LIBCMT:_common_.obj
 0002:00001a0a       __pi_by_2_to_61            00421a0a     LIBCMT:_common_.obj
 0002:00006ff0       __infinity                 00426ff0     LIBCMT:_87tran_.obj
 0002:00006ffa       __minfinity                00426ffa     LIBCMT:_87tran_.obj
 0002:00007004       __logemax                  00427004     LIBCMT:_87tran_.obj
 0002:0000702a       __OP_EXPjmptab             0042702a     LIBCMT:_87tran_.obj
 0002:00007980       __OP_ATAN2jmptab           00427980     LIBCMT:_87triga_.obj
 0002:000079d0       ??_C@_02CEGDFPFP@?4?2?$AA@ 004279d0     LIBCMT:spawnve.obj
 0002:000079d4       ??_C@_1BC@GDGBMEMK@?$AAH?$AAH?$AA?3?$AAm?$AAm?$AA?3?$AAs?$AAs?$AA?$AA@ 004279d4     LIBCMT:nlsdata2.obj
 0002:000079e8       ??_C@_1CI@KNAKOEBC@?$AAd?$AAd?$AAd?$AAd?$AA?0?$AA?5?$AAM?$AAM?$AAM?$AAM?$AA?5?$AAd?$AAd?$AA?0?$AA?5?$AAy?$AAy?$AAy?$AAy?$AA?$AA@ 004279e8     LIBCMT:nlsdata2.obj
 0002:00007a10       ??_C@_1BC@IEBCMHCM@?$AAM?$AAM?$AA?1?$AAd?$AAd?$AA?1?$AAy?$AAy?$AA?$AA@ 00427a10     LIBCMT:nlsdata2.obj
 0002:00007a24       ??_C@_15CLMNNGEL@?$AAP?$AAM?$AA?$AA@ 00427a24     LIBCMT:nlsdata2.obj
 0002:00007a2c       ??_C@_15ODEHAHHF@?$AAA?$AAM?$AA?$AA@ 00427a2c     LIBCMT:nlsdata2.obj
 0002:00007a34       ??_C@_1BC@FEMKIFH@?$AAD?$AAe?$AAc?$AAe?$AAm?$AAb?$AAe?$AAr?$AA?$AA@ 00427a34     LIBCMT:nlsdata2.obj
 0002:00007a48       ??_C@_1BC@BGLIFPF@?$AAN?$AAo?$AAv?$AAe?$AAm?$AAb?$AAe?$AAr?$AA?$AA@ 00427a48     LIBCMT:nlsdata2.obj
 0002:00007a5c       ??_C@_1BA@EPANDLNG@?$AAO?$AAc?$AAt?$AAo?$AAb?$AAe?$AAr?$AA?$AA@ 00427a5c     LIBCMT:nlsdata2.obj
 0002:00007a6c       ??_C@_1BE@DKAAMBJL@?$AAS?$AAe?$AAp?$AAt?$AAe?$AAm?$AAb?$AAe?$AAr?$AA?$AA@ 00427a6c     LIBCMT:nlsdata2.obj
 0002:00007a80       ??_C@_1O@PAHLKOAC@?$AAA?$AAu?$AAg?$AAu?$AAs?$AAt?$AA?$AA@ 00427a80     LIBCMT:nlsdata2.obj
 0002:00007a90       ??_C@_19BIFMLPCD@?$AAJ?$AAu?$AAl?$AAy?$AA?$AA@ 00427a90     LIBCMT:nlsdata2.obj
 0002:00007a9c       ??_C@_19EPFLPGAP@?$AAJ?$AAu?$AAn?$AAe?$AA?$AA@ 00427a9c     LIBCMT:nlsdata2.obj
 0002:00007aa8       ??_C@_1M@GJNLMHFD@?$AAA?$AAp?$AAr?$AAi?$AAl?$AA?$AA@ 00427aa8     LIBCMT:nlsdata2.obj
 0002:00007ab4       ??_C@_1M@IKEENEDF@?$AAM?$AAa?$AAr?$AAc?$AAh?$AA?$AA@ 00427ab4     LIBCMT:nlsdata2.obj
 0002:00007ac0       ??_C@_1BC@JGDDFFAM@?$AAF?$AAe?$AAb?$AAr?$AAu?$AAa?$AAr?$AAy?$AA?$AA@ 00427ac0     LIBCMT:nlsdata2.obj
 0002:00007ad4       ??_C@_1BA@EFMEIEBA@?$AAJ?$AAa?$AAn?$AAu?$AAa?$AAr?$AAy?$AA?$AA@ 00427ad4     LIBCMT:nlsdata2.obj
 0002:00007ae4       ??_C@_17EGKACKIF@?$AAD?$AAe?$AAc?$AA?$AA@ 00427ae4     LIBCMT:nlsdata2.obj
 0002:00007aec       ??_C@_17BBDMLCIG@?$AAN?$AAo?$AAv?$AA?$AA@ 00427aec     LIBCMT:nlsdata2.obj
 0002:00007af4       ??_C@_17FNLKOI@?$AAO?$AAc?$AAt?$AA?$AA@ 00427af4     LIBCMT:nlsdata2.obj
 0002:00007afc       ??_C@_17HCHCOKMG@?$AAS?$AAe?$AAp?$AA?$AA@ 00427afc     LIBCMT:nlsdata2.obj
 0002:00007b04       ??_C@_17ICPELBCN@?$AAA?$AAu?$AAg?$AA?$AA@ 00427b04     LIBCMT:nlsdata2.obj
 0002:00007b0c       ??_C@_17IJPCKHK@?$AAJ?$AAu?$AAl?$AA?$AA@ 00427b0c     LIBCMT:nlsdata2.obj
 0002:00007b14       ??_C@_17KCJGOCPB@?$AAJ?$AAu?$AAn?$AA?$AA@ 00427b14     LIBCMT:nlsdata2.obj
 0002:00007b1c       ??_C@_17PNNKMEED@?$AAM?$AAa?$AAy?$AA?$AA@ 00427b1c     LIBCMT:nlsdata2.obj
 0002:00007b24       ??_C@_17LFPOIHDD@?$AAA?$AAp?$AAr?$AA?$AA@ 00427b24     LIBCMT:nlsdata2.obj
 0002:00007b2c       ??_C@_17CKNLEDEC@?$AAM?$AAa?$AAr?$AA?$AA@ 00427b2c     LIBCMT:nlsdata2.obj
 0002:00007b34       ??_C@_17LMDJEKJN@?$AAF?$AAe?$AAb?$AA?$AA@ 00427b34     LIBCMT:nlsdata2.obj
 0002:00007b3c       ??_C@_17DKNBKCHM@?$AAJ?$AAa?$AAn?$AA?$AA@ 00427b3c     LIBCMT:nlsdata2.obj
 0002:00007b44       ??_C@_1BC@ENMNNPAJ@?$AAS?$AAa?$AAt?$AAu?$AAr?$AAd?$AAa?$AAy?$AA?$AA@ 00427b44     LIBCMT:nlsdata2.obj
 0002:00007b58       ??_C@_1O@PDICJHAG@?$AAF?$AAr?$AAi?$AAd?$AAa?$AAy?$AA?$AA@ 00427b58     LIBCMT:nlsdata2.obj
 0002:00007b68       ??_C@_1BC@HHMNLIHE@?$AAT?$AAh?$AAu?$AAr?$AAs?$AAd?$AAa?$AAy?$AA?$AA@ 00427b68     LIBCMT:nlsdata2.obj
 0002:00007b7c       ??_C@_1BE@EBOGMDOH@?$AAW?$AAe?$AAd?$AAn?$AAe?$AAs?$AAd?$AAa?$AAy?$AA?$AA@ 00427b7c     LIBCMT:nlsdata2.obj
 0002:00007b90       ??_C@_1BA@ENFBFFEK@?$AAT?$AAu?$AAe?$AAs?$AAd?$AAa?$AAy?$AA?$AA@ 00427b90     LIBCMT:nlsdata2.obj
 0002:00007ba0       ??_C@_1O@MMNBFLIA@?$AAM?$AAo?$AAn?$AAd?$AAa?$AAy?$AA?$AA@ 00427ba0     LIBCMT:nlsdata2.obj
 0002:00007bb0       ??_C@_1O@IHNHDHPB@?$AAS?$AAu?$AAn?$AAd?$AAa?$AAy?$AA?$AA@ 00427bb0     LIBCMT:nlsdata2.obj
 0002:00007bc0       ??_C@_17GGIBDPIH@?$AAS?$AAa?$AAt?$AA?$AA@ 00427bc0     LIBCMT:nlsdata2.obj
 0002:00007bc8       ??_C@_17HFOLPPLP@?$AAF?$AAr?$AAi?$AA?$AA@ 00427bc8     LIBCMT:nlsdata2.obj
 0002:00007bd0       ??_C@_17PDPHAADD@?$AAT?$AAh?$AAu?$AA?$AA@ 00427bd0     LIBCMT:nlsdata2.obj
 0002:00007bd8       ??_C@_17CJEDCEPE@?$AAW?$AAe?$AAd?$AA?$AA@ 00427bd8     LIBCMT:nlsdata2.obj
 0002:00007be0       ??_C@_17BMKGEGOJ@?$AAT?$AAu?$AAe?$AA?$AA@ 00427be0     LIBCMT:nlsdata2.obj
 0002:00007be8       ??_C@_17KBOMKBF@?$AAM?$AAo?$AAn?$AA?$AA@ 00427be8     LIBCMT:nlsdata2.obj
 0002:00007bf0       ??_C@_17MBGCMIPB@?$AAS?$AAu?$AAn?$AA?$AA@ 00427bf0     LIBCMT:nlsdata2.obj
 0002:00007bf8       ??_C@_08JCCMCCIL@HH?3mm?3ss?$AA@ 00427bf8     LIBCMT:nlsdata2.obj
 0002:00007c04       ??_C@_0BE@CKGJFCPC@dddd?0?5MMMM?5dd?0?5yyyy?$AA@ 00427c04     LIBCMT:nlsdata2.obj
 0002:00007c18       ??_C@_08BPBNCDIB@MM?1dd?1yy?$AA@ 00427c18     LIBCMT:nlsdata2.obj
 0002:00007c24       ??_C@_02CJNFDJBF@PM?$AA@   00427c24     LIBCMT:nlsdata2.obj
 0002:00007c28       ??_C@_02DEDBPAFC@AM?$AA@   00427c28     LIBCMT:nlsdata2.obj
 0002:00007c2c       ??_C@_08EDHMEBNP@December?$AA@ 00427c2c     LIBCMT:nlsdata2.obj
 0002:00007c38       ??_C@_08HCHEGEOA@November?$AA@ 00427c38     LIBCMT:nlsdata2.obj
 0002:00007c44       ??_C@_07JJNFCEND@October?$AA@ 00427c44     LIBCMT:nlsdata2.obj
 0002:00007c4c       ??_C@_09BHHEALKD@September?$AA@ 00427c4c     LIBCMT:nlsdata2.obj
 0002:00007c58       ??_C@_06LBBHFDDG@August?$AA@ 00427c58     LIBCMT:nlsdata2.obj
 0002:00007c60       ??_C@_04MIEPOIFP@July?$AA@ 00427c60     LIBCMT:nlsdata2.obj
 0002:00007c68       ??_C@_04CNLMGBGM@June?$AA@ 00427c68     LIBCMT:nlsdata2.obj
 0002:00007c70       ??_C@_05DMJDNLEJ@April?$AA@ 00427c70     LIBCMT:nlsdata2.obj
 0002:00007c78       ??_C@_05HPCKOFNC@March?$AA@ 00427c78     LIBCMT:nlsdata2.obj
 0002:00007c80       ??_C@_08GNJGEPFN@February?$AA@ 00427c80     LIBCMT:nlsdata2.obj
 0002:00007c8c       ??_C@_07CGJPFGJA@January?$AA@ 00427c8c     LIBCMT:nlsdata2.obj
 0002:00007c94       ??_C@_03MKABNOCG@Dec?$AA@  00427c94     LIBCMT:nlsdata2.obj
 0002:00007c98       ??_C@_03JPJOFNIA@Nov?$AA@  00427c98     LIBCMT:nlsdata2.obj
 0002:00007c9c       ??_C@_03BMAOKBAD@Oct?$AA@  00427c9c     LIBCMT:nlsdata2.obj
 0002:00007ca0       ??_C@_03GGCAPAJC@Sep?$AA@  00427ca0     LIBCMT:nlsdata2.obj
 0002:00007ca4       ??_C@_03IFJFEIGA@Aug?$AA@  00427ca4     LIBCMT:nlsdata2.obj
 0002:00007ca8       ??_C@_03LBGABGKK@Jul?$AA@  00427ca8     LIBCMT:nlsdata2.obj
 0002:00007cac       ??_C@_03IDFGHECI@Jun?$AA@  00427cac     LIBCMT:nlsdata2.obj
 0002:00007cb0       ??_C@_03CNMDKL@May?$AA@    00427cb0     LIBCMT:nlsdata2.obj
 0002:00007cb4       ??_C@_03LEOLGMJP@Apr?$AA@  00427cb4     LIBCMT:nlsdata2.obj
 0002:00007cb8       ??_C@_03ODNJBKGA@Mar?$AA@  00427cb8     LIBCMT:nlsdata2.obj
 0002:00007cbc       ??_C@_03HJBDCHOM@Feb?$AA@  00427cbc     LIBCMT:nlsdata2.obj
 0002:00007cc0       ??_C@_03JIHJHPIE@Jan?$AA@  00427cc0     LIBCMT:nlsdata2.obj
 0002:00007cc4       ??_C@_08INBOOONO@Saturday?$AA@ 00427cc4     LIBCMT:nlsdata2.obj
 0002:00007cd0       ??_C@_06JECMNKMI@Friday?$AA@ 00427cd0     LIBCMT:nlsdata2.obj
 0002:00007cd8       ??_C@_08HACCIKIA@Thursday?$AA@ 00427cd8     LIBCMT:nlsdata2.obj
 0002:00007ce4       ??_C@_09DLIGFAKA@Wednesday?$AA@ 00427ce4     LIBCMT:nlsdata2.obj
 0002:00007cf0       ??_C@_07BAAGCFCM@Tuesday?$AA@ 00427cf0     LIBCMT:nlsdata2.obj
 0002:00007cf8       ??_C@_06JLEDEDGH@Monday?$AA@ 00427cf8     LIBCMT:nlsdata2.obj
 0002:00007d00       ??_C@_06OOPIFAJ@Sunday?$AA@ 00427d00     LIBCMT:nlsdata2.obj
 0002:00007d08       ??_C@_03FEFJNEK@Sat?$AA@   00427d08     LIBCMT:nlsdata2.obj
 0002:00007d0c       ??_C@_03IDIOELNC@Fri?$AA@  00427d0c     LIBCMT:nlsdata2.obj
 0002:00007d10       ??_C@_03IOFIKPDN@Thu?$AA@  00427d10     LIBCMT:nlsdata2.obj
 0002:00007d14       ??_C@_03MHOMLAJA@Wed?$AA@  00427d14     LIBCMT:nlsdata2.obj
 0002:00007d18       ??_C@_03NAGEINEP@Tue?$AA@  00427d18     LIBCMT:nlsdata2.obj
 0002:00007d1c       ??_C@_03PDAGKDH@Mon?$AA@   00427d1c     LIBCMT:nlsdata2.obj
 0002:00007d20       ??_C@_03KOEHGMDN@Sun?$AA@  00427d20     LIBCMT:nlsdata2.obj
 0002:00007d28       ___lookuptable_s           00427d28     LIBCMT:outputs.obj
 0002:00007d84       ??_C@_0BI@DFKBFLJE@GetProcessWindowStation?$AA@ 00427d84     LIBCMT:crtmboxw.obj
 0002:00007d9c       ??_C@_0BK@DEKFELLI@GetUserObjectInformationW?$AA@ 00427d9c     LIBCMT:crtmboxw.obj
 0002:00007db8       ??_C@_0BD@HHGDFDBJ@GetLastActivePopup?$AA@ 00427db8     LIBCMT:crtmboxw.obj
 0002:00007dcc       ??_C@_0BA@HNOPNCHB@GetActiveWindow?$AA@ 00427dcc     LIBCMT:crtmboxw.obj
 0002:00007ddc       ??_C@_0M@DLDCCGNP@MessageBoxW?$AA@ 00427ddc     LIBCMT:crtmboxw.obj
 0002:00007de8       ??_C@_1BG@GOEBHBDC@?$AAU?$AAS?$AAE?$AAR?$AA3?$AA2?$AA?4?$AAD?$AAL?$AAL?$AA?$AA@ 00427de8     LIBCMT:crtmboxw.obj
 0002:00007e68       ??_C@_03IIINPABG@tan?$AA@  00427e68     LIBCMT:_libm_error_.obj
 0002:00007e6c       ??_C@_03LALBNOCG@cos?$AA@  00427e6c     LIBCMT:_libm_error_.obj
 0002:00007e70       ??_C@_03BLEJJJBH@sin?$AA@  00427e70     LIBCMT:_libm_error_.obj
 0002:00007e74       ??_C@_04EHEDPDJG@modf?$AA@ 00427e74     LIBCMT:_libm_error_.obj
 0002:00007e7c       ??_C@_05PBJFFIGL@floor?$AA@ 00427e7c     LIBCMT:_libm_error_.obj
 0002:00007e84       ??_C@_04GFPJNGEK@ceil?$AA@ 00427e84     LIBCMT:_libm_error_.obj
 0002:00007e8c       ??_C@_04MLLJIGOK@atan?$AA@ 00427e8c     LIBCMT:_libm_error_.obj
 0002:00007e94       ??_C@_05EOHGHCHD@exp10?$AA@ 00427e94     LIBCMT:_libm_error_.obj
 0002:00007e9c       ??_C@_04PDIFKINK@acos?$AA@ 00427e9c     LIBCMT:_libm_error_.obj
 0002:00007ea4       ??_C@_04FIHNOPOL@asin?$AA@ 00427ea4     LIBCMT:_libm_error_.obj
 0002:00007eac       ??_C@_03MGHMBJCF@log?$AA@  00427eac     LIBCMT:_libm_error_.obj
 0002:00007eb0       ??_C@_05HGHHAHAP@log10?$AA@ 00427eb0     LIBCMT:_libm_error_.obj
 0002:00007eb8       ??_C@_03KHJOGHMM@exp?$AA@  00427eb8     LIBCMT:_libm_error_.obj
 0002:00007ebc       ??_C@_03JGHBODFD@pow?$AA@  00427ebc     LIBCMT:_libm_error_.obj
 0002:00007ec0       __atan_table               00427ec0     LIBCMT:_atan_table_.obj
 0002:000096d0       __real@3fe0000000000000    004296d0     LIBCMT:_powhlp_.obj
 0002:000096d8       ??_C@_02CLFPBFFP@TZ?$AA@   004296d8     LIBCMT:tzset.obj
 0002:000096dc       ___dnames                  004296dc     LIBCMT:timeset.obj
 0002:000096f4       ___mnames                  004296f4     LIBCMT:timeset.obj
 0002:0000971c       ??_C@_01NEMOKFLO@?$DN?$AA@ 0042971c     LIBCMT:cenvarg.obj
 0002:00009720       ??_C@_0L@NKOGAPMJ@SystemRoot?$AA@ 00429720     LIBCMT:cenvarg.obj
 0002:00009730       ___newctype                00429730     LIBCMT:ctype.obj
 0002:00009a30       __wctype                   00429a30     LIBCMT:ctype.obj
 0002:00009c38       ___newclmap                00429c38     LIBCMT:ctype.obj
 0002:00009db8       ___newcumap                00429db8     LIBCMT:ctype.obj
 0002:00009f38       ??_C@_1BA@BALFACEM@?$AAC?$AAO?$AAN?$AAO?$AAU?$AAT?$AA$?$AA?$AA@ 00429f38     LIBCMT:initcon.obj
 0002:00009fc8       ??_C@_06IMKFLFPG@1?$CDQNAN?$AA@ 00429fc8     LIBCMT:_x10fout_.obj
 0002:00009fd0       ??_C@_05DNEBIAHO@1?$CDINF?$AA@ 00429fd0     LIBCMT:_x10fout_.obj
 0002:00009fd8       ??_C@_05PHHOCPM@1?$CDIND?$AA@ 00429fd8     LIBCMT:_x10fout_.obj
 0002:00009fe0       ??_C@_06PGGFOGJG@1?$CDSNAN?$AA@ 00429fe0     LIBCMT:_x10fout_.obj
 0002:00009fe8       ??_C@_0L@KDOEJCKC@_nextafter?$AA@ 00429fe8     LIBCMT:_fpexcept_.obj
 0002:00009ff4       ??_C@_05JGDBENOH@_logb?$AA@ 00429ff4     LIBCMT:_fpexcept_.obj
 0002:00009ffc       ??_C@_03ONILCKOB@_yn?$AA@  00429ffc     LIBCMT:_fpexcept_.obj
 0002:0000a000       ??_C@_03NAKIGLHK@_y1?$AA@  0042a000     LIBCMT:_fpexcept_.obj
 0002:0000a004       ??_C@_03MJLDFKDL@_y0?$AA@  0042a004     LIBCMT:_fpexcept_.obj
 0002:0000a008       ??_C@_05GKKHEGJL@frexp?$AA@ 0042a008     LIBCMT:_fpexcept_.obj
 0002:0000a010       ??_C@_04KEPJIHGP@fmod?$AA@ 0042a010     LIBCMT:_fpexcept_.obj
 0002:0000a018       ??_C@_06MEIMCGCF@_hypot?$AA@ 0042a018     LIBCMT:_fpexcept_.obj
 0002:0000a020       ??_C@_05KBKMEMPO@_cabs?$AA@ 0042a020     LIBCMT:_fpexcept_.obj
 0002:0000a028       ??_C@_05CEJMAHNP@ldexp?$AA@ 0042a028     LIBCMT:_fpexcept_.obj
 0002:0000a030       ??_C@_04ODHECPBC@fabs?$AA@ 0042a030     LIBCMT:_fpexcept_.obj
 0002:0000a038       ??_C@_04EIAKFFMI@sqrt?$AA@ 0042a038     LIBCMT:_fpexcept_.obj
 0002:0000a040       ??_C@_05KNGEOGJB@atan2?$AA@ 0042a040     LIBCMT:_fpexcept_.obj
 0002:0000a048       ??_C@_04FJHINJAO@tanh?$AA@ 0042a048     LIBCMT:_fpexcept_.obj
 0002:0000a050       ??_C@_04HPJJNFIM@cosh?$AA@ 0042a050     LIBCMT:_fpexcept_.obj
 0002:0000a058       ??_C@_04COOMCNPB@sinh?$AA@ 0042a058     LIBCMT:_fpexcept_.obj
 0002:0000a060       ___rtc_iaa                 0042a060     LIBCMT:_initsect_.obj
 0002:0000a064       ___rtc_izz                 0042a064     LIBCMT:_initsect_.obj
 0002:0000a068       ___rtc_taa                 0042a068     LIBCMT:_initsect_.obj
 0002:0000a06c       ___rtc_tzz                 0042a06c     LIBCMT:_initsect_.obj
 0002:0000a794       __IMPORT_DESCRIPTOR_ADVAPI32 0042a794     Advapi32:ADVAPI32.dll
 0002:0000a7a8       __IMPORT_DESCRIPTOR_KERNEL32 0042a7a8     kernel32:KERNEL32.dll
 0002:0000a7bc       __NULL_IMPORT_DESCRIPTOR   0042a7bc     Advapi32:ADVAPI32.dll
 0003:00000000       _SYMNAM                    0042c000     main.obj
 0003:00000004       _SYMGET                    0042c004     main.obj
 0003:00000008       _HASHTABLE                 0042c008     main.obj
 0003:0000000c       symval                     0042c00c     main.obj
 0003:00000438       _psl_callback1             0042c438     main.obj
 0003:0000043c       _psl_callback2             0042c43c     main.obj
 0003:00000440       _psl_callback3             0042c440     main.obj
 0003:00000444       _psl_callback4             0042c444     main.obj
 0003:0000044c       _stackupperbound           0042c44c     main.obj
 0003:00000458       _bndstkupperbound          0042c458     main.obj
 0003:0000045c       _bndstkptr                 0042c45c     main.obj
 0003:00000460       _heaplowerbound            0042c460     main.obj
 0003:0000046c       _gcarraylowerbound         0042c46c     main.obj
 0003:00000470       _gcarrayupperbound         0042c470     main.obj
 0003:00000474       _heaplast                  0042c474     main.obj
 0003:00000478       _heaptrapbound             0042c478     main.obj
 0003:0000047c       _heapupperbound            0042c47c     main.obj
 0003:00000480       __infbitlength_            0042c480     main.obj
 0003:00000484       _lastbps                   0042c484     main.obj
 0003:00000488       _bpslowerbound             0042c488     main.obj
 0003:0000048c       _oldheaplast               0042c48c     main.obj
 0003:00000490       _oldheaplowerbound         0042c490     main.obj
 0003:00000494       _oldheaptrapbound          0042c494     main.obj
 0003:00000498       _oldheapupperbound         0042c498     main.obj
 0003:0000049c       _mainstartinitialize       0042c49c     main.obj
 0003:000004a0       _nextbps                   0042c4a0     main.obj
 0003:000004a4       _unixstdin                 0042c4a4     main.obj
 0003:000004a8       _unixstdout                0042c4a8     main.obj
 0003:000004ac       _unixstderr                0042c4ac     main.obj
 0003:000004b0       _unixnull                  0042c4b0     main.obj
 0003:000004b4       _unixeof                   0042c4b4     main.obj
 0003:000004b8       _unixtty                   0042c4b8     main.obj
 0003:000004d0       _bruch_bruch               0042c4d0     main.obj
 0003:000004e0       _old_symval                0042c4e0     main.obj
 0003:000004e8       _old_symfnc                0042c4e8     main.obj
 0003:000004f0       _old_symprp                0042c4f0     main.obj
 0003:000004f8       _old_symget                0042c4f8     main.obj
 0003:00000524       _stacklowerbound           0042c524     main.obj
 0003:000007fc       symfnc                     0042c7fc     main.obj
 0003:00000fec       symprp                     0042cfec     main.obj
 0003:000017dc       symnam                     0042d7dc     main.obj
 0003:000ec5cc       symget                     005185cc     main.obj
 0003:00126f50       argumentblock              00552f50     main.obj
 0003:00126f90       tokenbuffer                00552f90     main.obj
 0003:0012bdb4       bndstk                     00557db4     main.obj
 0003:0012dcf8       catchstack                 00559cf8     main.obj
 0003:0012f5fc       hashtable                  0055b5fc     main.obj
 0003:0015096c       onewordbuffer              0057c96c     main.obj
 0003:00150974       saveargc                   0057c974     main.obj
 0003:0015097c       saveargv                   0057c97c     main.obj
 0003:00150984       datebuffer                 0057c984     main.obj
 0003:00150e40       ___security_cookie         0057ce40     LIBCMT:gs_cookie.obj
 0003:00150e44       ___security_cookie_complement 0057ce44     LIBCMT:gs_cookie.obj
 0003:00150e48       __fltused                  0057ce48     LIBCMT:_fpinit_.obj
 0003:00150e4c       __ldused                   0057ce4c     LIBCMT:_fpinit_.obj
 0003:00150e50       __iob                      0057ce50     LIBCMT:_file.obj
 0003:00151150       ___app_type                0057d150     LIBCMT:crt0.obj
 0003:001512d0       ___badioinfo               0057d2d0     LIBCMT:ioinit.obj
 0003:00151430       ___flsindex                0057d430     LIBCMT:tidtable.obj
 0003:00151434       ___getvalueindex           0057d434     LIBCMT:tidtable.obj
 0003:00151440       __lookuptrailbytes         0057d440     LIBCMT:read.obj
 0003:00151540       __sys_errlist              0057d540     LIBCMT:syserr.obj
 0003:001515f0       __sys_nerr                 0057d5f0     LIBCMT:syserr.obj
 0003:001515f4       ___nullstring              0057d5f4     LIBCMT:output.obj
 0003:001515f8       ___wnullstring             0057d5f8     LIBCMT:output.obj
 0003:001515fc       __cfltcvt_tab              0057d5fc     LIBCMT:cmiscdat.obj
 0003:00151650       __NLG_Destination          0057d650     LIBCMT:exsup.obj
 0003:00151670       ___clocalestr              0057d670     LIBCMT:nlsdata2.obj
 0003:00151678       ___lc_time_c               0057d678     LIBCMT:nlsdata2.obj
 0003:001517e0       ___initiallocinfo          0057d7e0     LIBCMT:nlsdata2.obj
 0003:001518b8       ___ptlocinfo               0057d8b8     LIBCMT:nlsdata2.obj
 0003:001518bc       ___initiallocalestructinfo 0057d8bc     LIBCMT:nlsdata2.obj
 0003:001518c8       ___initialmbcinfo          0057d8c8     LIBCMT:mbctype.obj
 0003:00151ae8       __mbctype                  0057dae8     LIBCMT:mbctype.obj
 0003:00151bf0       __mbcasemap                0057dbf0     LIBCMT:mbctype.obj
 0003:00151cf0       ___ptmbcinfo               0057dcf0     LIBCMT:mbctype.obj
 0003:00151df0       ___globallocalestatus      0057ddf0     LIBCMT:glstatus.obj
 0003:00151e00       ___abort_behavior          0057de00     LIBCMT:abort.obj
 0003:00151e28       __timezone                 0057de28     LIBCMT:timeset.obj
 0003:00151e2c       __daylight                 0057de2c     LIBCMT:timeset.obj
 0003:00151e30       __dstbias                  0057de30     LIBCMT:timeset.obj
 0003:00151eb8       __tzname                   0057deb8     LIBCMT:timeset.obj
 0003:00151ec0       __lpdays                   0057dec0     LIBCMT:days.obj
 0003:00151ef4       __days                     0057def4     LIBCMT:days.obj
 0003:00151f30       __p_overlay                0057df30     LIBCMT:dospawn.obj
 0003:00151f38       ___lconv_static_decimal    0057df38     LIBCMT:lconv.obj
 0003:00151f3c       ___lconv_static_W_decimal  0057df3c     LIBCMT:lconv.obj
 0003:00151f40       ___lconv_c                 0057df40     LIBCMT:lconv.obj
 0003:00151f90       ___lconv                   0057df90     LIBCMT:lconv.obj
 0003:00151f94       __pctype                   0057df94     LIBCMT:ctype.obj
 0003:00151f98       __pwctype                  0057df98     LIBCMT:ctype.obj
 0003:00151f9c       __confh                    0057df9c     LIBCMT:initcon.obj
 0003:001520c0       __matherr_flag             0057e0c0     LIBCMT:_matherr_.obj
 0003:001520c8       __d_inf                    0057e0c8     LIBCMT:_util_.obj
 0003:001520d0       __d_ind                    0057e0d0     LIBCMT:_util_.obj
 0003:001520d8       __d_max                    0057e0d8     LIBCMT:_util_.obj
 0003:001520e0       __d_min                    0057e0e0     LIBCMT:_util_.obj
 0003:001520e8       __d_mzero                  0057e0e8     LIBCMT:_util_.obj
 0003:001520f0       ___mb_cur_max              0057e0f0     LIBCMT:nlsdata1.obj
 0003:001520f4       ___decimal_point           0057e0f4     LIBCMT:nlsdata1.obj
 0003:001520f8       ___decimal_point_length    0057e0f8     LIBCMT:nlsdata1.obj
 0003:00152100       __pow10pos                 0057e100     LIBCMT:_constpow_.obj
 0003:00152260       __pow10neg                 0057e260     LIBCMT:_constpow_.obj
 0003:001523c0       _abs_imagefile             0057e3c0     bpsheap.obj
 0003:001523c4       _envname                   0057e3c4     bpsheap.obj
 0003:001523cc       _script_mode               0057e3cc     os-hooks.obj
 0003:001523d0       _win_mode                  0057e3d0     os-hooks.obj
 0003:001523d4       _pipe_mode                 0057e3d4     os-hooks.obj
 0003:001523d8       _abs_execfilepath          0057e3d8     os-hooks.obj
 0003:001523dc       _Debug                     0057e3dc     os-hooks.obj
 0003:001527fc       __umaskval                 0057e7fc     LIBCMT:crt0dat.obj
 0003:00152800       ___argc                    0057e800     LIBCMT:crt0dat.obj
 0003:00152804       ___argv                    0057e804     LIBCMT:crt0dat.obj
 0003:00152808       ___wargv                   0057e808     LIBCMT:crt0dat.obj
 0003:0015280c       __environ                  0057e80c     LIBCMT:crt0dat.obj
 0003:00152810       ___initenv                 0057e810     LIBCMT:crt0dat.obj
 0003:00152814       __wenviron                 0057e814     LIBCMT:crt0dat.obj
 0003:00152818       ___winitenv                0057e818     LIBCMT:crt0dat.obj
 0003:0015281c       __pgmptr                   0057e81c     LIBCMT:crt0dat.obj
 0003:00152820       __wpgmptr                  0057e820     LIBCMT:crt0dat.obj
 0003:00152824       __exitflag                 0057e824     LIBCMT:crt0dat.obj
 0003:00152828       __C_Termination_Done       0057e828     LIBCMT:crt0dat.obj
 0003:0015282c       __C_Exit_Done              0057e82c     LIBCMT:crt0dat.obj
 0003:00152830       ___fastflag                0057e830     LIBCMT:_fpinit_.obj
 0003:00152834       __cflush                   0057e834     LIBCMT:_file.obj
 0003:00152838       __outputformat             0057e838     LIBCMT:outputformat.obj
 0003:0015283c       ___idtabsiz                0057e83c     LIBCMT:popen.obj
 0003:00152840       ___idpairs                 0057e840     LIBCMT:popen.obj
 0003:00152850       __aenvptr                  0057e850     LIBCMT:crt0.obj
 0003:00152854       __wenvptr                  0057e854     LIBCMT:crt0.obj
 0003:00152858       ___error_mode              0057e858     LIBCMT:crt0.obj
 0003:0015285c       ___pInvalidArgHandler      0057e85c     LIBCMT:invarg.obj
 0003:001529b0       _gpFlsAlloc                0057e9b0     LIBCMT:tidtable.obj
 0003:001529b4       _gpFlsGetValue             0057e9b4     LIBCMT:tidtable.obj
 0003:001529b8       _gpFlsSetValue             0057e9b8     LIBCMT:tidtable.obj
 0003:001529bc       _gpFlsFree                 0057e9bc     LIBCMT:tidtable.obj
 0003:001529c0       __maxwait                  0057e9c0     LIBCMT:crtheap.obj
 0003:001529c4       __stdbuf                   0057e9c4     LIBCMT:_sftbuf.obj
 0003:00152ff8       __crtheap                  0057eff8     LIBCMT:heapinit.obj
 0003:00152ffc       ?_pnhHeap@@3P6AHI@ZA       0057effc     LIBCMT:handler.obj
 0003:00153000       __newmode                  0057f000     LIBCMT:_newmode.obj
 0003:00153004       ?__pInconsistency@@3P6AXXZA 0057f004     LIBCMT:hooks.obj
 0003:0015300c       ___pPurecall               0057f00c     LIBCMT:inithelp.obj
 0003:0015345c       __commode                  0057f45c     LIBCMT:ncommode.obj
 0003:00153464       ___mbulinfo                0057f464     LIBCMT:mbctype.obj
 0003:00153470       ___mbcodepage              0057f470     LIBCMT:mbctype.obj
 0003:00153474       ___ismbcodepage            0057f474     LIBCMT:mbctype.obj
 0003:00153478       ___mblcid                  0057f478     LIBCMT:mbctype.obj
 0003:00153550       ___lconv_static_null       0057f550     LIBCMT:lconv.obj
 0003:00153554       ___lconv_static_W_null     0057f554     LIBCMT:lconv.obj
 0003:00153558       ___locale_changed          0057f558     LIBCMT:setlocal.obj
 0003:0015355c       __fmode                    0057f55c     LIBCMT:txtmode.obj
 0003:00153560       _hpipe                     0057f560     <common>
 0003:00153574       _lisp2fe_write             0057f574     <common>
 0003:00153578       _fe2lisp_read              0057f578     <common>
 0003:00153580       _collect                   0057f580     <common>
 0003:00153680       _copy                      0057f680     <common>
 0003:00153780       _static_argv               0057f780     <common>
 0003:001537e0       _Name                      0057f7e0     <common>
 0003:00153864       _scriptin                  0057f864     <common>
 0003:00153868       _scriptout                 0057f868     <common>
 0003:00153880       _mainenv                   0057f880     <common>
 0003:001538c0       _max_image_size            0057f8c0     <common>
 0003:001538c4       _bpssize                   0057f8c4     <common>
 0003:001538c8       _imagefile                 0057f8c8     <common>
 0003:001538cc       _oldbreakvalue             0057f8cc     <common>
 0003:001538e0       _symms                     0057f8e0     <common>
 0003:00278860       _bps                       006a4860     <common>
 0003:0794c720       __pmatherr                 07d78720     <common>
 0003:0794c724       __debugger_hook_dummy      07d78724     <common>
 0003:0794c728       ___use_sse2_mathfcns       07d78728     <common>
 0003:0794c72c       ___sse2_available          07d7872c     <common>
 0003:0794c730       __nhandle                  07d78730     <common>
 0003:0794c740       ___pioinfo                 07d78740     <common>
 0003:0794c840       __pDestructExceptionObject 07d78840     <common>
 0003:0794c844       __acmdln                   07d78844     <common>
 0003:0794c848       __NoHeapEnableTerminationOnCorruption 07d78848     <common>
 0003:0794c84c       ___piob                    07d7884c     <common>
 0003:0794c860       __bufin                    07d78860     <common>
 0003:0794d860       __nstream                  07d79860     <common>
 0003:0794d864       ___env_initialized         07d79864     <common>
 0003:0794d868       ___onexitend               07d79868     <common>
 0003:0794d86c       ___onexitbegin             07d7986c     <common>
 0003:0794d870       ___mbctype_initialized     07d79870     <common>
 0003:0794d874       ___dyn_tls_init_callback   07d79874     <common>

 entry point at        0001:0000b98e

 Static symbols

 0001:00004930       _power                     00405930 f   bpsheap.obj
 0001:000054d0       _time                      004064d0 f   pslextra.obj
 0001:00005510       _stat                      00406510 f   pslextra.obj
 0001:00007269       _ctrlevent_capture@4       00408269 f   LIBCMT:winsig.obj
 0001:00007305       _siglookup                 00408305 f   LIBCMT:winsig.obj
 0001:00008041       _doexit                    00409041 f   LIBCMT:crt0dat.obj
 0001:0000826d       _vscan_fn                  0040926d f   LIBCMT:sscanf.obj
 0001:00008435       _flsall                    00409435 f   LIBCMT:fflush.obj
 0001:00008ab9       __hw_cw                    00409ab9 f   LIBCMT:_ieee87_.obj
 0001:00008b47       ___hw_cw_sse2              00409b47 f   LIBCMT:_ieee87_.obj
 0001:00009f7c       _IsRootUNCName             0040af7c f   LIBCMT:stat.obj
 0001:00009ff6       __fullpath_helper          0040aff6 f   LIBCMT:stat.obj
 0001:0000af2a       _idtab                     0040bf2a f   LIBCMT:popen.obj
 0001:0000b804       _fast_error_exit           0040c804 f   LIBCMT:crt0.obj
 0001:0000b82d       ___tmainCRTStartup         0040c82d f   LIBCMT:crt0.obj
 0001:0000c270       __unwind_handler4          0040d270 f   LIBCMT:exsup4.obj
 0001:0000ed87       _write_char                0040fd87 f   LIBCMT:output.obj
 0001:0000edba       _write_string              0040fdba f   LIBCMT:output.obj
 0001:0000fefa       __onexit_nolock            00410efa f   LIBCMT:onexit.obj
 0001:000101fc       ___check_float_string      004111fc f   LIBCMT:input.obj
 0001:00010253       __hextodec                 00411253 f   LIBCMT:input.obj
 0001:00010273       __inc                      00411273 f   LIBCMT:input.obj
 0001:00010289       __whiteout                 00411289 f   LIBCMT:input.obj
 0001:00011425       __shift                    00412425 f   LIBCMT:cvt.obj
 0001:0001146a       __cftoe2_l                 0041246a f   LIBCMT:cvt.obj
 0001:00011a28       __cftof2_l                 00412a28 f   LIBCMT:cvt.obj
 0001:000143b0       __unwind_handler           004153b0 f   LIBCMT:exsup.obj
 0001:00014c33       __tsopen_nolock            00415c33 f   LIBCMT:open.obj
 0001:00015bd7       _comexecmd                 00416bd7 f   LIBCMT:spawnve.obj
 0001:0001658c       _parse_cmdline             0041758c f   LIBCMT:stdargv.obj
 0001:000175ca       ?CPtoLCID@@YAHH@Z          004185ca f   LIBCMT:mbctype.obj
 0001:000175f9       ?setSBCS@@YAXPAUthreadmbcinfostruct@@@Z 004185f9 f   LIBCMT:mbctype.obj
 0001:0001765d       ?setSBUpLow@@YAXPAUthreadmbcinfostruct@@@Z 0041865d f   LIBCMT:mbctype.obj
 0001:00017891       ?getSystemCP@@YAHH@Z       00418891 f   LIBCMT:mbctype.obj
 0001:00018365       ?__crtCompareStringA_stat@@YAHPAUlocaleinfo_struct@@KKPBDH1HH@Z 00419365 f   LIBCMT:a_cmp.obj
 0001:000186ff       _findenv                   004196ff f   LIBCMT:setenv.obj
 0001:00018751       _copy_environ              00419751 f   LIBCMT:setenv.obj
 0001:00019fbf       ?__crtLCMapStringA_stat@@YAHPAUlocaleinfo_struct@@KKPBDHPADHHH@Z 0041afbf f   LIBCMT:a_map.obj
 0001:0001a5e5       __tzset_nolock             0041b5e5 f   LIBCMT:tzset.obj
 0001:0001a8f8       _cvtdate                   0041b8f8 f   LIBCMT:tzset.obj
 0001:0001aaef       __isindst_nolock           0041baef f   LIBCMT:tzset.obj
 0001:0001b4a7       ?x_ismbbtype_l@@YAHPAUlocaleinfo_struct@@IHH@Z 0041c4a7 f   LIBCMT:ismbbyte.obj
 0001:0001bd25       ?__crtGetStringTypeA_stat@@YAHPAUlocaleinfo_struct@@KPBDHPAGHHH@Z 0041cd25 f   LIBCMT:a_str.obj
 0001:0001bea8       ?strtoxl@@YAKPAUlocaleinfo_struct@@PBDPAPBDHH@Z 0041cea8 f   LIBCMT:strtol.obj
